# SymbolsHelper-Confirmed: 1.2.0 amd64 i386 powerpc
libQtServiceFramework.so.1 libqtserviceframework1 #MINVER#
 _Z6qDebugv@Base 1.1.0
 _Z8qWarningv@Base 1.1.0
 _ZN10QByteArray4dataEv@Base 1.1.0
 _ZN10QByteArraypLERKS_@Base 1.1.0
 _ZN10QByteArraypLEc@Base 1.1.0
 _ZN10QDBusErrorD1Ev@Base 1.2.0
 _ZN10QDBusErrorD2Ev@Base 1.2.0
 _ZN10QtMobility14QServiceFilter12setInterfaceERK7QStringS3_NS0_16VersionMatchRuleE@Base 1.1.0
 _ZN10QtMobility14QServiceFilter14setServiceNameERK7QString@Base 1.1.0
 _ZN10QtMobility14QServiceFilter15setCapabilitiesENS0_19CapabilityMatchRuleERK11QStringList@Base 1.1.0
 _ZN10QtMobility14QServiceFilter18setCustomAttributeERK7QStringS3_@Base 1.1.0
 _ZN10QtMobility14QServiceFilter20clearCustomAttributeERK7QString@Base 1.1.0
 _ZN10QtMobility14QServiceFilterC1ERK7QStringS3_NS0_16VersionMatchRuleE@Base 1.1.0
 _ZN10QtMobility14QServiceFilterC1ERKS0_@Base 1.1.0
 _ZN10QtMobility14QServiceFilterC1Ev@Base 1.1.0
 _ZN10QtMobility14QServiceFilterC2ERK7QStringS3_NS0_16VersionMatchRuleE@Base 1.1.0
 _ZN10QtMobility14QServiceFilterC2ERKS0_@Base 1.1.0
 _ZN10QtMobility14QServiceFilterC2Ev@Base 1.1.0
 _ZN10QtMobility14QServiceFilterD1Ev@Base 1.1.0
 _ZN10QtMobility14QServiceFilterD2Ev@Base 1.1.0
 _ZN10QtMobility14QServiceFilteraSERKS0_@Base 1.1.0
 _ZN10QtMobility15QServiceContext11qt_metacallEN11QMetaObject4CallEiPPv@Base 1.1.0
 _ZN10QtMobility15QServiceContext11qt_metacastEPKc@Base 1.1.0
 _ZN10QtMobility15QServiceContext11setClientIdERK7QString@Base 1.1.0
 _ZN10QtMobility15QServiceContext13setClientDataERK7QStringRK8QVariant@Base 1.1.0
 _ZN10QtMobility15QServiceContext13setClientNameERK7QString@Base 1.1.0
 _ZN10QtMobility15QServiceContext15resetClientDataEv@Base 1.1.0
 _ZN10QtMobility15QServiceContext16staticMetaObjectE@Base 1.1.0
 _ZN10QtMobility15QServiceContextC1EP7QObject@Base 1.1.0
 _ZN10QtMobility15QServiceContextC2EP7QObject@Base 1.1.0
 _ZN10QtMobility15QServiceContextD0Ev@Base 1.1.0
 _ZN10QtMobility15QServiceContextD1Ev@Base 1.1.0
 _ZN10QtMobility15QServiceContextD2Ev@Base 1.1.0
 _ZN10QtMobility15QServiceManager10addServiceEP9QIODevice@Base 1.1.0
 _ZN10QtMobility15QServiceManager10addServiceERK7QString@Base 1.1.0
 _ZN10QtMobility15QServiceManager11qt_metacallEN11QMetaObject4CallEiPPv@Base 1.1.0
 _ZN10QtMobility15QServiceManager11qt_metacastEPKc@Base 1.1.0
 _ZN10QtMobility15QServiceManager12serviceAddedERK7QStringNS_8QService5ScopeE@Base 1.1.0
 _ZN10QtMobility15QServiceManager13connectNotifyEPKc@Base 1.1.0
 _ZN10QtMobility15QServiceManager13loadInterfaceERK7QStringPNS_15QServiceContextEPNS_24QAbstractSecuritySessionE@Base 1.1.0
 _ZN10QtMobility15QServiceManager13loadInterfaceERKNS_27QServiceInterfaceDescriptorEPNS_15QServiceContextEPNS_24QAbstractSecuritySessionE@Base 1.1.0
 _ZN10QtMobility15QServiceManager13removeServiceERK7QString@Base 1.1.0
 _ZN10QtMobility15QServiceManager14serviceRemovedERK7QStringNS_8QService5ScopeE@Base 1.1.0
 _ZN10QtMobility15QServiceManager16disconnectNotifyEPKc@Base 1.1.0
 _ZN10QtMobility15QServiceManager16staticMetaObjectE@Base 1.1.0
 _ZN10QtMobility15QServiceManager19setInterfaceDefaultERK7QStringS3_@Base 1.1.0
 _ZN10QtMobility15QServiceManager19setInterfaceDefaultERKNS_27QServiceInterfaceDescriptorE@Base 1.1.0
 _ZN10QtMobility15QServiceManagerC1ENS_8QService5ScopeEP7QObject@Base 1.1.0
 _ZN10QtMobility15QServiceManagerC1EP7QObject@Base 1.1.0
 _ZN10QtMobility15QServiceManagerC2ENS_8QService5ScopeEP7QObject@Base 1.1.0
 _ZN10QtMobility15QServiceManagerC2EP7QObject@Base 1.1.0
 _ZN10QtMobility15QServiceManagerD0Ev@Base 1.1.0
 _ZN10QtMobility15QServiceManagerD1Ev@Base 1.1.0
 _ZN10QtMobility15QServiceManagerD2Ev@Base 1.1.0
 _ZN10QtMobility22QRemoteServiceRegister11createEntryERK7QStringS3_S3_PFP7QObjectvEPK11QMetaObject@Base 1.1.0
 _ZN10QtMobility22QRemoteServiceRegister11qt_metacallEN11QMetaObject4CallEiPPv@Base 1.1.0
 _ZN10QtMobility22QRemoteServiceRegister11qt_metacastEPKc@Base 1.1.0
 _ZN10QtMobility22QRemoteServiceRegister14instanceClosedERKNS0_5EntryE@Base 1.1.0
 _ZN10QtMobility22QRemoteServiceRegister14publishEntriesERK7QString@Base 1.1.0
 _ZN10QtMobility22QRemoteServiceRegister16staticMetaObjectE@Base 1.1.0
 _ZN10QtMobility22QRemoteServiceRegister17setSecurityFilterEPFbPKvE@Base 1.1.0
 _ZN10QtMobility22QRemoteServiceRegister18allInstancesClosedEv@Base 1.1.0
 _ZN10QtMobility22QRemoteServiceRegister27setQuitOnLastInstanceClosedEb@Base 1.1.0
 _ZN10QtMobility22QRemoteServiceRegister5Entry20setInstantiationTypeENS0_12InstanceTypeE@Base 1.1.0
 _ZN10QtMobility22QRemoteServiceRegister5EntryC1ERKS1_@Base 1.1.0
 _ZN10QtMobility22QRemoteServiceRegister5EntryC1Ev@Base 1.1.0
 _ZN10QtMobility22QRemoteServiceRegister5EntryC2ERKS1_@Base 1.1.0
 _ZN10QtMobility22QRemoteServiceRegister5EntryC2Ev@Base 1.1.0
 _ZN10QtMobility22QRemoteServiceRegister5EntryD1Ev@Base 1.1.0
 _ZN10QtMobility22QRemoteServiceRegister5EntryD2Ev@Base 1.1.0
 _ZN10QtMobility22QRemoteServiceRegister5EntryaSERKS1_@Base 1.1.0
 _ZN10QtMobility22QRemoteServiceRegisterC1EP7QObject@Base 1.1.0
 _ZN10QtMobility22QRemoteServiceRegisterC2EP7QObject@Base 1.1.0
 _ZN10QtMobility22QRemoteServiceRegisterD0Ev@Base 1.1.0
 _ZN10QtMobility22QRemoteServiceRegisterD1Ev@Base 1.1.0
 _ZN10QtMobility22QRemoteServiceRegisterD2Ev@Base 1.1.0
 _ZN10QtMobility23QServicePluginInterface14installServiceEv@Base 1.1.0
 _ZN10QtMobility23QServicePluginInterface16uninstallServiceEv@Base 1.1.0
 _ZN10QtMobility23QServicePluginInterfaceC1Ev@Base 1.1.0
 _ZN10QtMobility23QServicePluginInterfaceC2Ev@Base 1.1.0
 _ZN10QtMobility23QServicePluginInterfaceD0Ev@Base 1.1.0
 _ZN10QtMobility23QServicePluginInterfaceD1Ev@Base 1.1.0
 _ZN10QtMobility23QServicePluginInterfaceD2Ev@Base 1.1.0
 _ZN10QtMobility24QAbstractSecuritySession11qt_metacallEN11QMetaObject4CallEiPPv@Base 1.1.0
 _ZN10QtMobility24QAbstractSecuritySession11qt_metacastEPKc@Base 1.1.0
 _ZN10QtMobility24QAbstractSecuritySession16staticMetaObjectE@Base 1.1.0
 _ZN10QtMobility24QAbstractSecuritySessionC1EP7QObject@Base 1.1.0
 _ZN10QtMobility24QAbstractSecuritySessionC2EP7QObject@Base 1.1.0
 _ZN10QtMobility24QAbstractSecuritySessionD0Ev@Base 1.1.0
 _ZN10QtMobility24QAbstractSecuritySessionD1Ev@Base 1.1.0
 _ZN10QtMobility24QAbstractSecuritySessionD2Ev@Base 1.1.0
 _ZN10QtMobility27QServiceInterfaceDescriptorC1ERKS0_@Base 1.1.0
 _ZN10QtMobility27QServiceInterfaceDescriptorC1Ev@Base 1.1.0
 _ZN10QtMobility27QServiceInterfaceDescriptorC2ERKS0_@Base 1.1.0
 _ZN10QtMobility27QServiceInterfaceDescriptorC2Ev@Base 1.1.0
 _ZN10QtMobility27QServiceInterfaceDescriptorD1Ev@Base 1.1.0
 _ZN10QtMobility27QServiceInterfaceDescriptorD2Ev@Base 1.1.0
 _ZN10QtMobility27QServiceInterfaceDescriptoraSERKS0_@Base 1.1.0
 _ZN10QtMobilitylsE6QDebugRKNS_27QServiceInterfaceDescriptorE@Base 1.1.0
 _ZN10QtMobilitylsER11QDataStreamRKNS_14QServiceFilterE@Base 1.1.0
 _ZN10QtMobilitylsER11QDataStreamRKNS_22QRemoteServiceRegister5EntryE@Base 1.1.0
 _ZN10QtMobilitylsER11QDataStreamRKNS_27QServiceInterfaceDescriptorE@Base 1.1.0
 _ZN10QtMobilityrsER11QDataStreamRNS_14QServiceFilterE@Base 1.1.0
 _ZN10QtMobilityrsER11QDataStreamRNS_22QRemoteServiceRegister5EntryE@Base 1.1.0
 _ZN10QtMobilityrsER11QDataStreamRNS_27QServiceInterfaceDescriptorE@Base 1.1.0
 _ZN11QDataStream10setVersionEi@Base 1.1.0
 _ZN11QDataStreamlsEj@Base 1.1.0
 _ZN11QDataStreamlsEt@Base 1.1.0
 _ZN11QDataStreamrsERh@Base 1.1.0
 _ZN11QDataStreamrsERj@Base 1.1.0
 _ZN11QDataStreamrsERt@Base 1.1.0
 _ZN15QBasicAtomicInt3refEv@Base 1.1.0
 _ZN15QBasicAtomicInt5derefEv@Base 1.1.0
 _ZN15QBasicAtomicIntC1Ev@Base 1.2.0
 _ZN15QBasicAtomicIntC2Ev@Base 1.2.0
 _ZN15QObjectUserDataC1Ev@Base 1.2.0
 _ZN15QObjectUserDataC2Ev@Base 1.2.0
 _ZN20QXmlStreamAttributesD1Ev@Base 1.2.0
 _ZN20QXmlStreamAttributesD2Ev@Base 1.2.0
 _ZN5QCharC1E11QLatin1Char@Base 1.1.0
 _ZN5QCharC2E11QLatin1Char@Base 1.1.0
 _ZN6QDebug6StreamD1Ev@Base 1.2.0
 _ZN6QDebug6StreamD2Ev@Base 1.2.0
 _ZN7QString5clearEv@Base 1.1.0
 _ZN9QHashData8willGrowEv@Base 1.1.0
 _ZN9QHashData9firstNodeEv@Base 1.1.0
 _ZN9QHashData9hasShrunkEv@Base 1.1.0
 _ZNK10QByteArray4dataEv@Base 1.1.0
 _ZNK10QByteArray7isEmptyEv@Base 1.1.0
 _ZNK10QByteArraycvPKcEv@Base 1.1.0
 _ZNK10QByteArrayixEi@Base 1.1.0
 _ZNK10QtMobility14QServiceFilter11serviceNameEv@Base 1.1.0
 _ZNK10QtMobility14QServiceFilter12capabilitiesEv@Base 1.1.0
 _ZNK10QtMobility14QServiceFilter12majorVersionEv@Base 1.1.0
 _ZNK10QtMobility14QServiceFilter12minorVersionEv@Base 1.1.0
 _ZNK10QtMobility14QServiceFilter13interfaceNameEv@Base 1.1.0
 _ZNK10QtMobility14QServiceFilter15customAttributeERK7QString@Base 1.1.0
 _ZNK10QtMobility14QServiceFilter16customAttributesEv@Base 1.1.0
 _ZNK10QtMobility14QServiceFilter16versionMatchRuleEv@Base 1.1.0
 _ZNK10QtMobility14QServiceFilter19capabilityMatchRuleEv@Base 1.1.0
 _ZNK10QtMobility15QServiceContext10clientDataERK7QString@Base 1.1.0
 _ZNK10QtMobility15QServiceContext10clientNameEv@Base 1.1.0
 _ZNK10QtMobility15QServiceContext10metaObjectEv@Base 1.1.0
 _ZNK10QtMobility15QServiceContext8clientIdEv@Base 1.1.0
 _ZNK10QtMobility15QServiceManager10metaObjectEv@Base 1.1.0
 _ZNK10QtMobility15QServiceManager12findServicesERK7QString@Base 1.1.0
 _ZNK10QtMobility15QServiceManager14findInterfacesERK7QString@Base 1.1.0
 _ZNK10QtMobility15QServiceManager14findInterfacesERKNS_14QServiceFilterE@Base 1.1.0
 _ZNK10QtMobility15QServiceManager16interfaceDefaultERK7QString@Base 1.1.0
 _ZNK10QtMobility15QServiceManager5errorEv@Base 1.1.0
 _ZNK10QtMobility15QServiceManager5scopeEv@Base 1.1.0
 _ZNK10QtMobility22QRemoteServiceRegister10metaObjectEv@Base 1.1.0
 _ZNK10QtMobility22QRemoteServiceRegister24quitOnLastInstanceClosedEv@Base 1.1.0
 _ZNK10QtMobility22QRemoteServiceRegister5Entry10metaObjectEv@Base 1.1.0
 _ZNK10QtMobility22QRemoteServiceRegister5Entry11serviceNameEv@Base 1.1.0
 _ZNK10QtMobility22QRemoteServiceRegister5Entry13interfaceNameEv@Base 1.1.0
 _ZNK10QtMobility22QRemoteServiceRegister5Entry17instantiationTypeEv@Base 1.1.0
 _ZNK10QtMobility22QRemoteServiceRegister5Entry7isValidEv@Base 1.1.0
 _ZNK10QtMobility22QRemoteServiceRegister5Entry7versionEv@Base 1.1.0
 _ZNK10QtMobility22QRemoteServiceRegister5EntryeqERKS1_@Base 1.1.0
 _ZNK10QtMobility22QRemoteServiceRegister5EntryneERKS1_@Base 1.1.0
 _ZNK10QtMobility24QAbstractSecuritySession10metaObjectEv@Base 1.1.0
 _ZNK10QtMobility27QServiceInterfaceDescriptor11serviceNameEv@Base 1.1.0
 _ZNK10QtMobility27QServiceInterfaceDescriptor12majorVersionEv@Base 1.1.0
 _ZNK10QtMobility27QServiceInterfaceDescriptor12minorVersionEv@Base 1.1.0
 _ZNK10QtMobility27QServiceInterfaceDescriptor13interfaceNameEv@Base 1.1.0
 _ZNK10QtMobility27QServiceInterfaceDescriptor15customAttributeERK7QString@Base 1.1.0
 _ZNK10QtMobility27QServiceInterfaceDescriptor16customAttributesEv@Base 1.1.0
 _ZNK10QtMobility27QServiceInterfaceDescriptor5scopeEv@Base 1.1.0
 _ZNK10QtMobility27QServiceInterfaceDescriptor7isValidEv@Base 1.1.0
 _ZNK10QtMobility27QServiceInterfaceDescriptor9attributeENS0_9AttributeE@Base 1.1.0
 _ZNK10QtMobility27QServiceInterfaceDescriptoreqERKS0_@Base 1.1.0
 _ZNK11QDataStream6deviceEv@Base 1.1.0
 _ZNK11QMetaObject10superClassEv@Base 1.1.0
 _ZNK11QMetaObject9classNameEv@Base 1.1.0
 _ZNK7QString3argEiiiRK5QChar@Base 1.1.0
 (optional=templinst)_ZNK8QVariant10canConvertI13QDBusArgumentEEbv@Base 1.1.0
 (optional=templinst)_ZNK8QVariant5valueI13QDBusArgumentEET_v@Base 1.1.0
 _ZTI11QSharedData@Base 1.1.0
 _ZTI12QDBusContext@Base 1.1.0
 _ZTIN10QtMobility15QServiceContextE@Base 1.1.0
 _ZTIN10QtMobility15QServiceManagerE@Base 1.1.0
 _ZTIN10QtMobility22QRemoteServiceRegisterE@Base 1.1.0
 _ZTIN10QtMobility23QServicePluginInterfaceE@Base 1.1.0
 _ZTIN10QtMobility24QAbstractSecuritySessionE@Base 1.1.0
 _ZTS11QSharedData@Base 1.1.0
 _ZTS12QDBusContext@Base 1.1.0
 _ZTSN10QtMobility15QServiceContextE@Base 1.1.0
 _ZTSN10QtMobility15QServiceManagerE@Base 1.1.0
 _ZTSN10QtMobility22QRemoteServiceRegisterE@Base 1.1.0
 _ZTSN10QtMobility23QServicePluginInterfaceE@Base 1.1.0
 _ZTSN10QtMobility24QAbstractSecuritySessionE@Base 1.1.0
 _ZTVN10QtMobility15QServiceContextE@Base 1.1.0
 _ZTVN10QtMobility15QServiceManagerE@Base 1.1.0
 _ZTVN10QtMobility22QRemoteServiceRegisterE@Base 1.1.0
 _ZTVN10QtMobility23QServicePluginInterfaceE@Base 1.1.0
 _ZTVN10QtMobility24QAbstractSecuritySessionE@Base 1.1.0
