# SymbolsHelper-Confirmed: 1.2.0 amd64 i386
libQtLocation.so.1 libqtlocation1 #MINVER#
 _Z6qDebugv@Base 1.1.0
 _Z8qWarningv@Base 1.1.0
 _ZN10QByteArray4dataEv@Base 1.1.0
 _ZN10QByteArrayixEi@Base 1.1.0
#MISSING: 1.2.0# _ZN10QTransformC1ERKS_@Base 1.2.0
#MISSING: 1.2.0# _ZN10QTransformC2ERKS_@Base 1.2.0
 _ZN10QtMobility11QGeoAddress10setCountryERK7QString@Base 1.1.0
 _ZN10QtMobility11QGeoAddress11setDistrictERK7QString@Base 1.1.0
 _ZN10QtMobility11QGeoAddress11setPostcodeERK7QString@Base 1.1.0
 _ZN10QtMobility11QGeoAddress14setCountryCodeERK7QString@Base 1.1.0
 _ZN10QtMobility11QGeoAddress5clearEv@Base 1.1.0
 _ZN10QtMobility11QGeoAddress7setCityERK7QString@Base 1.1.0
 _ZN10QtMobility11QGeoAddress8setStateERK7QString@Base 1.1.0
 _ZN10QtMobility11QGeoAddress9setCountyERK7QString@Base 1.1.0
 _ZN10QtMobility11QGeoAddress9setStreetERK7QString@Base 1.1.0
 _ZN10QtMobility11QGeoAddressC1ERKS0_@Base 1.1.0
 _ZN10QtMobility11QGeoAddressC1Ev@Base 1.1.0
 _ZN10QtMobility11QGeoAddressC2ERKS0_@Base 1.1.0
 _ZN10QtMobility11QGeoAddressC2Ev@Base 1.1.0
 _ZN10QtMobility11QGeoAddressD1Ev@Base 1.1.0
 _ZN10QtMobility11QGeoAddressD2Ev@Base 1.1.0
 _ZN10QtMobility11QGeoAddressaSERKS0_@Base 1.1.0
 (subst)_ZN10QtMobility11QGeoMapData10setBearingE{qreal}@Base 1.2.0
 _ZN10QtMobility11QGeoMapData10setMapTypeENS_15QGraphicsGeoMap7MapTypeE@Base 1.1.0
 _ZN10QtMobility11QGeoMapData11qt_metacallEN11QMetaObject4CallEiPPv@Base 1.1.0
 _ZN10QtMobility11QGeoMapData11qt_metacastEPKc@Base 1.1.0
 (subst)_ZN10QtMobility11QGeoMapData11tiltChangedE{qreal}@Base 1.2.0
 _ZN10QtMobility11QGeoMapData12addMapObjectEPNS_13QGeoMapObjectE@Base 1.1.0
 _ZN10QtMobility11QGeoMapData12paintObjectsEP8QPainterPK24QStyleOptionGraphicsItem@Base 1.1.0
 (subst)_ZN10QtMobility11QGeoMapData12setZoomLevelE{qreal}@Base 1.1.0
 _ZN10QtMobility11QGeoMapData13addMapOverlayEPNS_14QGeoMapOverlayE@Base 1.1.0
 _ZN10QtMobility11QGeoMapData13centerChangedERKNS_14QGeoCoordinateE@Base 1.1.0
 _ZN10QtMobility11QGeoMapData13setWindowSizeERK6QSizeF@Base 1.1.0
 (subst)_ZN10QtMobility11QGeoMapData14bearingChangedE{qreal}@Base 1.2.0
 _ZN10QtMobility11QGeoMapData14mapTypeChangedENS_15QGraphicsGeoMap7MapTypeE@Base 1.1.0
 _ZN10QtMobility11QGeoMapData15clearMapObjectsEv@Base 1.1.0
 _ZN10QtMobility11QGeoMapData15containerObjectEv@Base 1.1.0
 _ZN10QtMobility11QGeoMapData15removeMapObjectEPNS_13QGeoMapObjectE@Base 1.1.0
 _ZN10QtMobility11QGeoMapData16clearMapOverlaysEv@Base 1.1.0
 _ZN10QtMobility11QGeoMapData16removeMapOverlayEPNS_14QGeoMapOverlayE@Base 1.1.0
 _ZN10QtMobility11QGeoMapData16staticMetaObjectE@Base 1.1.0
 _ZN10QtMobility11QGeoMapData16updateMapDisplayERK6QRectF@Base 1.1.0
 (subst)_ZN10QtMobility11QGeoMapData16zoomLevelChangedE{qreal}@Base 1.1.0
 _ZN10QtMobility11QGeoMapData17windowSizeChangedERK6QSizeF@Base 1.1.0
 _ZN10QtMobility11QGeoMapData19createMapObjectInfoEPNS_13QGeoMapObjectE@Base 1.1.0
 _ZN10QtMobility11QGeoMapData19setConnectivityModeENS_15QGraphicsGeoMap16ConnectivityModeE@Base 1.1.0
 _ZN10QtMobility11QGeoMapData20paintProviderNoticesEP8QPainterPK24QStyleOptionGraphicsItem@Base 1.1.0
 _ZN10QtMobility11QGeoMapData23connectivityModeChangedENS_15QGraphicsGeoMap16ConnectivityModeE@Base 1.1.0
 _ZN10QtMobility11QGeoMapData29setBlockPropertyChangeSignalsEb@Base 1.1.0
 _ZN10QtMobility11QGeoMapData3panEii@Base 1.1.0
 _ZN10QtMobility11QGeoMapData4initEv@Base 1.1.0
 _ZN10QtMobility11QGeoMapData5paintEP8QPainterPK24QStyleOptionGraphicsItem@Base 1.1.0
 (subst)_ZN10QtMobility11QGeoMapData7setTiltE{qreal}@Base 1.2.0
 _ZN10QtMobility11QGeoMapData8paintMapEP8QPainterPK24QStyleOptionGraphicsItem@Base 1.1.0
 _ZN10QtMobility11QGeoMapData9setCenterERKNS_14QGeoCoordinateE@Base 1.1.0
 _ZN10QtMobility11QGeoMapDataC1EPNS_18QGeoMapDataPrivateE@Base 1.1.0
 _ZN10QtMobility11QGeoMapDataC1EPNS_24QGeoMappingManagerEngineE@Base 1.1.0
 _ZN10QtMobility11QGeoMapDataC2EPNS_18QGeoMapDataPrivateE@Base 1.1.0
 _ZN10QtMobility11QGeoMapDataC2EPNS_24QGeoMappingManagerEngineE@Base 1.1.0
 _ZN10QtMobility11QGeoMapDataD0Ev@Base 1.1.0
 _ZN10QtMobility11QGeoMapDataD1Ev@Base 1.1.0
 _ZN10QtMobility11QGeoMapDataD2Ev@Base 1.1.0
 _ZN10QtMobility11QLandmarkId10setLocalIdERK7QString@Base 1.1.0
 _ZN10QtMobility11QLandmarkId13setManagerUriERK7QString@Base 1.1.0
 _ZN10QtMobility11QLandmarkIdC1ERKS0_@Base 1.1.0
 _ZN10QtMobility11QLandmarkIdC1Ev@Base 1.1.0
 _ZN10QtMobility11QLandmarkIdC2ERKS0_@Base 1.1.0
 _ZN10QtMobility11QLandmarkIdC2Ev@Base 1.1.0
 _ZN10QtMobility11QLandmarkIdD1Ev@Base 1.1.0
 _ZN10QtMobility11QLandmarkIdD2Ev@Base 1.1.0
 _ZN10QtMobility11QLandmarkIdaSERKS0_@Base 1.1.0
 _ZN10QtMobility12QGeoManeuver11setPositionERKNS_14QGeoCoordinateE@Base 1.1.0
 _ZN10QtMobility12QGeoManeuver11setWaypointERKNS_14QGeoCoordinateE@Base 1.1.0
 _ZN10QtMobility12QGeoManeuver12setDirectionENS0_20InstructionDirectionE@Base 1.1.0
 _ZN10QtMobility12QGeoManeuver18setInstructionTextERK7QString@Base 1.1.0
 _ZN10QtMobility12QGeoManeuver24setTimeToNextInstructionEi@Base 1.1.0
 (subst)_ZN10QtMobility12QGeoManeuver28setDistanceToNextInstructionE{qreal}@Base 1.1.0
 _ZN10QtMobility12QGeoManeuverC1ERKS0_@Base 1.1.0
 _ZN10QtMobility12QGeoManeuverC1Ev@Base 1.1.0
 _ZN10QtMobility12QGeoManeuverC2ERKS0_@Base 1.1.0
 _ZN10QtMobility12QGeoManeuverC2Ev@Base 1.1.0
 _ZN10QtMobility12QGeoManeuverD1Ev@Base 1.1.0
 _ZN10QtMobility12QGeoManeuverD2Ev@Base 1.1.0
 _ZN10QtMobility12QGeoManeuveraSERKS0_@Base 1.1.0
 _ZN10QtMobility13QGeoMapObject10setMapDataEPNS_11QGeoMapDataE@Base 1.1.0
 _ZN10QtMobility13QGeoMapObject10setVisibleEb@Base 1.1.0
 _ZN10QtMobility13QGeoMapObject11qt_metacallEN11QMetaObject4CallEiPPv@Base 1.1.0
 _ZN10QtMobility13QGeoMapObject11qt_metacastEPKc@Base 1.1.0
 _ZN10QtMobility13QGeoMapObject11setSelectedEb@Base 1.1.0
 _ZN10QtMobility13QGeoMapObject12unitsChangedENS0_14CoordinateUnitE@Base 1.2.0
 _ZN10QtMobility13QGeoMapObject13originChangedENS_14QGeoCoordinateE@Base 1.2.0
 _ZN10QtMobility13QGeoMapObject13zValueChangedEi@Base 1.1.0
 _ZN10QtMobility13QGeoMapObject14visibleChangedEb@Base 1.1.0
 _ZN10QtMobility13QGeoMapObject15selectedChangedEb@Base 1.1.0
 _ZN10QtMobility13QGeoMapObject16setTransformTypeERKNS0_13TransformTypeE@Base 1.2.0
 _ZN10QtMobility13QGeoMapObject16staticMetaObjectE@Base 1.1.0
 _ZN10QtMobility13QGeoMapObject20transformTypeChangedENS0_13TransformTypeE@Base 1.2.0
 _ZN10QtMobility13QGeoMapObject8setUnitsERKNS0_14CoordinateUnitE@Base 1.2.0
 _ZN10QtMobility13QGeoMapObject9setOriginERKNS_14QGeoCoordinateE@Base 1.2.0
 _ZN10QtMobility13QGeoMapObject9setZValueEi@Base 1.1.0
 _ZN10QtMobility13QGeoMapObjectC1EPNS_11QGeoMapDataE@Base 1.1.0
 _ZN10QtMobility13QGeoMapObjectC2EPNS_11QGeoMapDataE@Base 1.1.0
 _ZN10QtMobility13QGeoMapObjectD0Ev@Base 1.1.0
 _ZN10QtMobility13QGeoMapObjectD1Ev@Base 1.1.0
 _ZN10QtMobility13QGeoMapObjectD2Ev@Base 1.1.0
 _ZN10QtMobility14QGeoCoordinate11setAltitudeEd@Base 1.1.0
 _ZN10QtMobility14QGeoCoordinate11setLatitudeEd@Base 1.1.0
 _ZN10QtMobility14QGeoCoordinate12setLongitudeEd@Base 1.1.0
 _ZN10QtMobility14QGeoCoordinateC1ERKS0_@Base 1.1.0
 _ZN10QtMobility14QGeoCoordinateC1Edd@Base 1.1.0
 _ZN10QtMobility14QGeoCoordinateC1Eddd@Base 1.1.0
 _ZN10QtMobility14QGeoCoordinateC1Ev@Base 1.1.0
 _ZN10QtMobility14QGeoCoordinateC2ERKS0_@Base 1.1.0
 _ZN10QtMobility14QGeoCoordinateC2Edd@Base 1.1.0
 _ZN10QtMobility14QGeoCoordinateC2Eddd@Base 1.1.0
 _ZN10QtMobility14QGeoCoordinateC2Ev@Base 1.1.0
 _ZN10QtMobility14QGeoCoordinateD1Ev@Base 1.1.0
 _ZN10QtMobility14QGeoCoordinateD2Ev@Base 1.1.0
 _ZN10QtMobility14QGeoCoordinateaSERKS0_@Base 1.1.0
 _ZN10QtMobility14QGeoMapOverlay10setMapDataEPNS_11QGeoMapDataE@Base 1.1.0
 _ZN10QtMobility14QGeoMapOverlayC1Ev@Base 1.1.0
 _ZN10QtMobility14QGeoMapOverlayC2Ev@Base 1.1.0
 _ZN10QtMobility14QGeoMapOverlayD0Ev@Base 1.1.0
 _ZN10QtMobility14QGeoMapOverlayD1Ev@Base 1.1.0
 _ZN10QtMobility14QGeoMapOverlayD2Ev@Base 1.1.0
 _ZN10QtMobility14QGeoRouteReply11qt_metacallEN11QMetaObject4CallEiPPv@Base 1.1.0
 _ZN10QtMobility14QGeoRouteReply11qt_metacastEPKc@Base 1.1.0
 _ZN10QtMobility14QGeoRouteReply11setFinishedEb@Base 1.1.0
 _ZN10QtMobility14QGeoRouteReply16staticMetaObjectE@Base 1.1.0
 _ZN10QtMobility14QGeoRouteReply5abortEv@Base 1.1.0
 _ZN10QtMobility14QGeoRouteReply5errorENS0_5ErrorERK7QString@Base 1.1.0
 _ZN10QtMobility14QGeoRouteReply8finishedEv@Base 1.1.0
 _ZN10QtMobility14QGeoRouteReply8setErrorENS0_5ErrorERK7QString@Base 1.1.0
 _ZN10QtMobility14QGeoRouteReply9setRoutesERK5QListINS_9QGeoRouteEE@Base 1.1.0
 _ZN10QtMobility14QGeoRouteReplyC1ENS0_5ErrorERK7QStringP7QObject@Base 1.1.0
 _ZN10QtMobility14QGeoRouteReplyC1ERKNS_16QGeoRouteRequestEP7QObject@Base 1.1.0
 _ZN10QtMobility14QGeoRouteReplyC2ENS0_5ErrorERK7QStringP7QObject@Base 1.1.0
 _ZN10QtMobility14QGeoRouteReplyC2ERKNS_16QGeoRouteRequestEP7QObject@Base 1.1.0
 _ZN10QtMobility14QGeoRouteReplyD0Ev@Base 1.1.0
 _ZN10QtMobility14QGeoRouteReplyD1Ev@Base 1.1.0
 _ZN10QtMobility14QGeoRouteReplyD2Ev@Base 1.1.0
 _ZN10QtMobility15QGeoAreaMonitor10areaExitedERKNS_16QGeoPositionInfoE@Base 1.1.0
 _ZN10QtMobility15QGeoAreaMonitor11areaEnteredERKNS_16QGeoPositionInfoE@Base 1.1.0
 _ZN10QtMobility15QGeoAreaMonitor11qt_metacallEN11QMetaObject4CallEiPPv@Base 1.1.0
 _ZN10QtMobility15QGeoAreaMonitor11qt_metacastEPKc@Base 1.1.0
 _ZN10QtMobility15QGeoAreaMonitor16staticMetaObjectE@Base 1.1.0
 _ZN10QtMobility15QGeoAreaMonitor20createDefaultMonitorEP7QObject@Base 1.1.0
 _ZN10QtMobility15QGeoAreaMonitor9setCenterERKNS_14QGeoCoordinateE@Base 1.1.0
 (subst)_ZN10QtMobility15QGeoAreaMonitor9setRadiusE{qreal}@Base 1.1.0
 _ZN10QtMobility15QGeoAreaMonitorC1EP7QObject@Base 1.1.0
 _ZN10QtMobility15QGeoAreaMonitorC2EP7QObject@Base 1.1.0
 _ZN10QtMobility15QGeoAreaMonitorD0Ev@Base 1.1.0
 _ZN10QtMobility15QGeoAreaMonitorD1Ev@Base 1.1.0
 _ZN10QtMobility15QGeoAreaMonitorD2Ev@Base 1.1.0
 _ZN10QtMobility15QGeoBoundingBox10setTopLeftERKNS_14QGeoCoordinateE@Base 1.1.0
 _ZN10QtMobility15QGeoBoundingBox11setTopRightERKNS_14QGeoCoordinateE@Base 1.1.0
 _ZN10QtMobility15QGeoBoundingBox13setBottomLeftERKNS_14QGeoCoordinateE@Base 1.1.0
 _ZN10QtMobility15QGeoBoundingBox14setBottomRightERKNS_14QGeoCoordinateE@Base 1.1.0
 _ZN10QtMobility15QGeoBoundingBox8setWidthEd@Base 1.1.0
 _ZN10QtMobility15QGeoBoundingBox9setCenterERKNS_14QGeoCoordinateE@Base 1.1.0
 _ZN10QtMobility15QGeoBoundingBox9setHeightEd@Base 1.1.0
 _ZN10QtMobility15QGeoBoundingBox9translateEdd@Base 1.1.0
 _ZN10QtMobility15QGeoBoundingBoxC1ERKNS_14QGeoCoordinateES3_@Base 1.1.0
 _ZN10QtMobility15QGeoBoundingBoxC1ERKNS_14QGeoCoordinateEdd@Base 1.1.0
 _ZN10QtMobility15QGeoBoundingBoxC1ERKS0_@Base 1.1.0
 _ZN10QtMobility15QGeoBoundingBoxC1Ev@Base 1.1.0
 _ZN10QtMobility15QGeoBoundingBoxC2ERKNS_14QGeoCoordinateES3_@Base 1.1.0
 _ZN10QtMobility15QGeoBoundingBoxC2ERKNS_14QGeoCoordinateEdd@Base 1.1.0
 _ZN10QtMobility15QGeoBoundingBoxC2ERKS0_@Base 1.1.0
 _ZN10QtMobility15QGeoBoundingBoxC2Ev@Base 1.1.0
 _ZN10QtMobility15QGeoBoundingBoxD0Ev@Base 1.1.0
 _ZN10QtMobility15QGeoBoundingBoxD1Ev@Base 1.1.0
 _ZN10QtMobility15QGeoBoundingBoxD2Ev@Base 1.1.0
 _ZN10QtMobility15QGeoBoundingBoxaSERKS0_@Base 1.1.0
 _ZN10QtMobility15QGeoBoundingBoxoRERKS0_@Base 1.1.0
 _ZN10QtMobility15QGeoSearchReply11qt_metacallEN11QMetaObject4CallEiPPv@Base 1.1.0
 _ZN10QtMobility15QGeoSearchReply11qt_metacastEPKc@Base 1.1.0
 _ZN10QtMobility15QGeoSearchReply11setFinishedEb@Base 1.1.0
 _ZN10QtMobility15QGeoSearchReply11setViewportEPNS_16QGeoBoundingAreaE@Base 1.1.0
 _ZN10QtMobility15QGeoSearchReply16staticMetaObjectE@Base 1.1.0
 _ZN10QtMobility15QGeoSearchReply5abortEv@Base 1.1.0
 _ZN10QtMobility15QGeoSearchReply5errorENS0_5ErrorERK7QString@Base 1.1.0
 _ZN10QtMobility15QGeoSearchReply8addPlaceERKNS_9QGeoPlaceE@Base 1.1.0
 _ZN10QtMobility15QGeoSearchReply8finishedEv@Base 1.1.0
 _ZN10QtMobility15QGeoSearchReply8setErrorENS0_5ErrorERK7QString@Base 1.1.0
 _ZN10QtMobility15QGeoSearchReply8setLimitEi@Base 1.1.0
 _ZN10QtMobility15QGeoSearchReply9setOffsetEi@Base 1.1.0
 _ZN10QtMobility15QGeoSearchReply9setPlacesERK5QListINS_9QGeoPlaceEE@Base 1.1.0
 _ZN10QtMobility15QGeoSearchReplyC1ENS0_5ErrorERK7QStringP7QObject@Base 1.1.0
 _ZN10QtMobility15QGeoSearchReplyC1EP7QObject@Base 1.1.0
 _ZN10QtMobility15QGeoSearchReplyC2ENS0_5ErrorERK7QStringP7QObject@Base 1.1.0
 _ZN10QtMobility15QGeoSearchReplyC2EP7QObject@Base 1.1.0
 _ZN10QtMobility15QGeoSearchReplyD0Ev@Base 1.1.0
 _ZN10QtMobility15QGeoSearchReplyD1Ev@Base 1.1.0
 _ZN10QtMobility15QGeoSearchReplyD2Ev@Base 1.1.0
 (subst)_ZN10QtMobility15QGraphicsGeoMap10setBearingE{qreal}@Base 1.2.0
 _ZN10QtMobility15QGraphicsGeoMap10setMapTypeENS0_7MapTypeE@Base 1.1.0
 _ZN10QtMobility15QGraphicsGeoMap11qt_metacallEN11QMetaObject4CallEiPPv@Base 1.1.0
 _ZN10QtMobility15QGraphicsGeoMap11qt_metacastEPKc@Base 1.1.0
 _ZN10QtMobility15QGraphicsGeoMap11resizeEventEP25QGraphicsSceneResizeEvent@Base 1.1.0
 (subst)_ZN10QtMobility15QGraphicsGeoMap11tiltChangedE{qreal}@Base 1.2.0
 _ZN10QtMobility15QGraphicsGeoMap12addMapObjectEPNS_13QGeoMapObjectE@Base 1.1.0
 (subst)_ZN10QtMobility15QGraphicsGeoMap12setZoomLevelE{qreal}@Base 1.1.0
 _ZN10QtMobility15QGraphicsGeoMap13addMapOverlayEPNS_14QGeoMapOverlayE@Base 1.1.0
 _ZN10QtMobility15QGraphicsGeoMap13centerChangedERKNS_14QGeoCoordinateE@Base 1.1.0
 _ZN10QtMobility15QGraphicsGeoMap13fitInViewportERKNS_15QGeoBoundingBoxEb@Base 1.1.0
 (subst)_ZN10QtMobility15QGraphicsGeoMap14bearingChangedE{qreal}@Base 1.2.0
 _ZN10QtMobility15QGraphicsGeoMap14mapTypeChangedENS0_7MapTypeE@Base 1.1.0
 _ZN10QtMobility15QGraphicsGeoMap15clearMapObjectsEv@Base 1.1.0
 _ZN10QtMobility15QGraphicsGeoMap15removeMapObjectEPNS_13QGeoMapObjectE@Base 1.1.0
 _ZN10QtMobility15QGraphicsGeoMap16clearMapOverlaysEv@Base 1.1.0
 _ZN10QtMobility15QGraphicsGeoMap16removeMapOverlayEPNS_14QGeoMapOverlayE@Base 1.1.0
 _ZN10QtMobility15QGraphicsGeoMap16staticMetaObjectE@Base 1.1.0
 _ZN10QtMobility15QGraphicsGeoMap16updateMapDisplayERK6QRectF@Base 1.1.0
 (subst)_ZN10QtMobility15QGraphicsGeoMap16zoomLevelChangedE{qreal}@Base 1.1.0
 _ZN10QtMobility15QGraphicsGeoMap19setConnectivityModeENS0_16ConnectivityModeE@Base 1.1.0
 _ZN10QtMobility15QGraphicsGeoMap23connectivityModeChangedENS0_16ConnectivityModeE@Base 1.1.0
 _ZN10QtMobility15QGraphicsGeoMap3panEii@Base 1.1.0
 _ZN10QtMobility15QGraphicsGeoMap5paintEP8QPainterPK24QStyleOptionGraphicsItemP7QWidget@Base 1.1.0
 (subst)_ZN10QtMobility15QGraphicsGeoMap7setTiltE{qreal}@Base 1.2.0
 _ZN10QtMobility15QGraphicsGeoMap9setCenterERKNS_14QGeoCoordinateE@Base 1.1.0
 _ZN10QtMobility15QGraphicsGeoMapC1EPNS_18QGeoMappingManagerEP13QGraphicsItem@Base 1.1.0
 _ZN10QtMobility15QGraphicsGeoMapC2EPNS_18QGeoMappingManagerEP13QGraphicsItem@Base 1.1.0
 _ZN10QtMobility15QGraphicsGeoMapD0Ev@Base 1.1.0
 _ZN10QtMobility15QGraphicsGeoMapD1Ev@Base 1.1.0
 _ZN10QtMobility15QGraphicsGeoMapD2Ev@Base 1.1.0
 _ZN10QtMobility15QLandmarkFilterC1EPNS_22QLandmarkFilterPrivateE@Base 1.1.0
 _ZN10QtMobility15QLandmarkFilterC1ERKS0_@Base 1.1.0
 _ZN10QtMobility15QLandmarkFilterC1Ev@Base 1.1.0
 _ZN10QtMobility15QLandmarkFilterC2EPNS_22QLandmarkFilterPrivateE@Base 1.1.0
 _ZN10QtMobility15QLandmarkFilterC2ERKS0_@Base 1.1.0
 _ZN10QtMobility15QLandmarkFilterC2Ev@Base 1.1.0
 _ZN10QtMobility15QLandmarkFilterD0Ev@Base 1.1.0
 _ZN10QtMobility15QLandmarkFilterD1Ev@Base 1.1.0
 _ZN10QtMobility15QLandmarkFilterD2Ev@Base 1.1.0
 _ZN10QtMobility15QLandmarkFilteraSERKS0_@Base 1.1.0
#MISSING: 1.2.0# _ZN10QtMobility16QGeoBoundingAreaC1ERKS0_@Base 1.2.0
#MISSING: 1.2.0# _ZN10QtMobility16QGeoBoundingAreaC1Ev@Base 1.2.0
#MISSING: 1.2.0# _ZN10QtMobility16QGeoBoundingAreaC2ERKS0_@Base 1.2.0
#MISSING: 1.2.0# _ZN10QtMobility16QGeoBoundingAreaC2Ev@Base 1.2.0
 _ZN10QtMobility16QGeoBoundingAreaD0Ev@Base 1.1.0
 _ZN10QtMobility16QGeoBoundingAreaD1Ev@Base 1.1.0
 _ZN10QtMobility16QGeoBoundingAreaD2Ev@Base 1.1.0
#MISSING: 1.2.0# _ZN10QtMobility16QGeoBoundingAreaaSERKS0_@Base 1.2.0
 (subst)_ZN10QtMobility16QGeoPositionInfo12setAttributeENS0_9AttributeE{qreal}@Base 1.1.0
 _ZN10QtMobility16QGeoPositionInfo12setTimestampERK9QDateTime@Base 1.1.0
 _ZN10QtMobility16QGeoPositionInfo13setCoordinateERKNS_14QGeoCoordinateE@Base 1.1.0
 _ZN10QtMobility16QGeoPositionInfo15removeAttributeENS0_9AttributeE@Base 1.1.0
 _ZN10QtMobility16QGeoPositionInfoC1ERKNS_14QGeoCoordinateERK9QDateTime@Base 1.1.0
 _ZN10QtMobility16QGeoPositionInfoC1ERKS0_@Base 1.1.0
 _ZN10QtMobility16QGeoPositionInfoC1Ev@Base 1.1.0
 _ZN10QtMobility16QGeoPositionInfoC2ERKNS_14QGeoCoordinateERK9QDateTime@Base 1.1.0
 _ZN10QtMobility16QGeoPositionInfoC2ERKS0_@Base 1.1.0
 _ZN10QtMobility16QGeoPositionInfoC2Ev@Base 1.1.0
 _ZN10QtMobility16QGeoPositionInfoD1Ev@Base 1.1.0
 _ZN10QtMobility16QGeoPositionInfoD2Ev@Base 1.1.0
 _ZN10QtMobility16QGeoPositionInfoaSERKS0_@Base 1.1.0
 _ZN10QtMobility16QGeoRouteRequest12setWaypointsERK5QListINS_14QGeoCoordinateEE@Base 1.1.0
 _ZN10QtMobility16QGeoRouteRequest14setTravelModesE6QFlagsINS0_10TravelModeEE@Base 1.1.0
 _ZN10QtMobility16QGeoRouteRequest15setExcludeAreasERK5QListINS_15QGeoBoundingBoxEE@Base 1.1.0
 _ZN10QtMobility16QGeoRouteRequest16setFeatureWeightENS0_11FeatureTypeENS0_13FeatureWeightE@Base 1.1.0
 _ZN10QtMobility16QGeoRouteRequest16setSegmentDetailENS0_13SegmentDetailE@Base 1.1.0
 _ZN10QtMobility16QGeoRouteRequest17setManeuverDetailENS0_14ManeuverDetailE@Base 1.1.0
 _ZN10QtMobility16QGeoRouteRequest20setRouteOptimizationE6QFlagsINS0_17RouteOptimizationEE@Base 1.1.0
 _ZN10QtMobility16QGeoRouteRequest26setNumberAlternativeRoutesEi@Base 1.1.0
 _ZN10QtMobility16QGeoRouteRequestC1ERK5QListINS_14QGeoCoordinateEE@Base 1.1.0
 _ZN10QtMobility16QGeoRouteRequestC1ERKNS_14QGeoCoordinateES3_@Base 1.1.0
 _ZN10QtMobility16QGeoRouteRequestC1ERKS0_@Base 1.1.0
 _ZN10QtMobility16QGeoRouteRequestC2ERK5QListINS_14QGeoCoordinateEE@Base 1.1.0
 _ZN10QtMobility16QGeoRouteRequestC2ERKNS_14QGeoCoordinateES3_@Base 1.1.0
 _ZN10QtMobility16QGeoRouteRequestC2ERKS0_@Base 1.1.0
 _ZN10QtMobility16QGeoRouteRequestD1Ev@Base 1.1.0
 _ZN10QtMobility16QGeoRouteRequestD2Ev@Base 1.1.0
 _ZN10QtMobility16QGeoRouteRequestaSERKS0_@Base 1.1.0
 (subst)_ZN10QtMobility16QGeoRouteSegment11setDistanceE{qreal}@Base 1.1.0
 _ZN10QtMobility16QGeoRouteSegment11setManeuverERKNS_12QGeoManeuverE@Base 1.1.0
 _ZN10QtMobility16QGeoRouteSegment13setTravelTimeEi@Base 1.1.0
 _ZN10QtMobility16QGeoRouteSegment19setNextRouteSegmentERKS0_@Base 1.1.0
 _ZN10QtMobility16QGeoRouteSegment7setPathERK5QListINS_14QGeoCoordinateEE@Base 1.1.0
 _ZN10QtMobility16QGeoRouteSegmentC1ER28QExplicitlySharedDataPointerINS_23QGeoRouteSegmentPrivateEE@Base 1.1.0
 _ZN10QtMobility16QGeoRouteSegmentC1ERKS0_@Base 1.1.0
 _ZN10QtMobility16QGeoRouteSegmentC1Ev@Base 1.1.0
 _ZN10QtMobility16QGeoRouteSegmentC2ER28QExplicitlySharedDataPointerINS_23QGeoRouteSegmentPrivateEE@Base 1.1.0
 _ZN10QtMobility16QGeoRouteSegmentC2ERKS0_@Base 1.1.0
 _ZN10QtMobility16QGeoRouteSegmentC2Ev@Base 1.1.0
 _ZN10QtMobility16QGeoRouteSegmentD1Ev@Base 1.1.0
 _ZN10QtMobility16QGeoRouteSegmentD2Ev@Base 1.1.0
 _ZN10QtMobility16QGeoRouteSegmentaSERKS0_@Base 1.1.0
 _ZN10QtMobility16QGeoTiledMapData10setMapTypeENS_15QGraphicsGeoMap7MapTypeE@Base 1.1.0
 _ZN10QtMobility16QGeoTiledMapData11qt_metacallEN11QMetaObject4CallEiPPv@Base 1.1.0
 _ZN10QtMobility16QGeoTiledMapData11qt_metacastEPKc@Base 1.1.0
 _ZN10QtMobility16QGeoTiledMapData12paintObjectsEP8QPainterPK24QStyleOptionGraphicsItem@Base 1.1.0
 (subst)_ZN10QtMobility16QGeoTiledMapData12setZoomLevelE{qreal}@Base 1.1.0
 _ZN10QtMobility16QGeoTiledMapData12tileFinishedEv@Base 1.1.0
 _ZN10QtMobility16QGeoTiledMapData13fitInViewportERKNS_15QGeoBoundingBoxEb@Base 1.1.0
 _ZN10QtMobility16QGeoTiledMapData13replyFinishedEPNS_17QGeoTiledMapReplyE@Base 1.2.0
 _ZN10QtMobility16QGeoTiledMapData13setWindowSizeERK6QSizeF@Base 1.1.0
 _ZN10QtMobility16QGeoTiledMapData15processRequestsEv@Base 1.1.0
 _ZN10QtMobility16QGeoTiledMapData16staticMetaObjectE@Base 1.1.0
 _ZN10QtMobility16QGeoTiledMapData19createMapObjectInfoEPNS_13QGeoMapObjectE@Base 1.1.0
 _ZN10QtMobility16QGeoTiledMapData19setConnectivityModeENS_15QGraphicsGeoMap16ConnectivityModeE@Base 1.2.0
 _ZN10QtMobility16QGeoTiledMapData23triggerUpdateMapDisplayERK6QRectF@Base 1.1.0
 _ZN10QtMobility16QGeoTiledMapData3panEii@Base 1.1.0
 _ZN10QtMobility16QGeoTiledMapData8paintMapEP8QPainterPK24QStyleOptionGraphicsItem@Base 1.1.0
 _ZN10QtMobility16QGeoTiledMapData9setCenterERKNS_14QGeoCoordinateE@Base 1.1.0
 _ZN10QtMobility16QGeoTiledMapData9tileErrorENS_17QGeoTiledMapReply5ErrorE7QString@Base 1.1.0
 _ZN10QtMobility16QGeoTiledMapDataC1EPNS_24QGeoMappingManagerEngineE@Base 1.1.0
 _ZN10QtMobility16QGeoTiledMapDataC2EPNS_24QGeoMappingManagerEngineE@Base 1.1.0
 _ZN10QtMobility16QGeoTiledMapDataD0Ev@Base 1.1.0
 _ZN10QtMobility16QGeoTiledMapDataD1Ev@Base 1.1.0
 _ZN10QtMobility16QGeoTiledMapDataD2Ev@Base 1.1.0
 _ZN10QtMobility16QLandmarkManager11dataChangedEv@Base 1.1.0
 _ZN10QtMobility16QLandmarkManager11qt_metacallEN11QMetaObject4CallEiPPv@Base 1.1.0
 _ZN10QtMobility16QLandmarkManager11qt_metacastEPKc@Base 1.1.0
 _ZN10QtMobility16QLandmarkManager12saveCategoryEPNS_17QLandmarkCategoryE@Base 1.1.0
 _ZN10QtMobility16QLandmarkManager12saveLandmarkEPNS_9QLandmarkE@Base 1.1.0
 _ZN10QtMobility16QLandmarkManager13connectNotifyEPKc@Base 1.1.0
 _ZN10QtMobility16QLandmarkManager13saveLandmarksEP5QListINS_9QLandmarkEE@Base 1.1.0
 _ZN10QtMobility16QLandmarkManager14landmarksAddedERK5QListINS_11QLandmarkIdEE@Base 1.1.0
 _ZN10QtMobility16QLandmarkManager14removeCategoryERKNS_17QLandmarkCategoryE@Base 1.1.0
 _ZN10QtMobility16QLandmarkManager14removeCategoryERKNS_19QLandmarkCategoryIdE@Base 1.1.0
 _ZN10QtMobility16QLandmarkManager14removeLandmarkERKNS_11QLandmarkIdE@Base 1.1.0
 _ZN10QtMobility16QLandmarkManager14removeLandmarkERKNS_9QLandmarkE@Base 1.1.0
 _ZN10QtMobility16QLandmarkManager15categoriesAddedERK5QListINS_19QLandmarkCategoryIdEE@Base 1.1.0
 _ZN10QtMobility16QLandmarkManager15importLandmarksEP9QIODeviceRK7QStringNS0_14TransferOptionERKNS_19QLandmarkCategoryIdE@Base 1.1.0
 _ZN10QtMobility16QLandmarkManager15importLandmarksERK7QStringS3_NS0_14TransferOptionERKNS_19QLandmarkCategoryIdE@Base 1.1.0
 _ZN10QtMobility16QLandmarkManager15removeLandmarksERK5QListINS_11QLandmarkIdEE@Base 1.1.0
 _ZN10QtMobility16QLandmarkManager15removeLandmarksERK5QListINS_9QLandmarkEE@Base 1.1.0
 _ZN10QtMobility16QLandmarkManager16disconnectNotifyEPKc@Base 1.1.0
 _ZN10QtMobility16QLandmarkManager16landmarksChangedERK5QListINS_11QLandmarkIdEE@Base 1.1.0
 _ZN10QtMobility16QLandmarkManager16landmarksRemovedERK5QListINS_11QLandmarkIdEE@Base 1.1.0
 _ZN10QtMobility16QLandmarkManager16staticMetaObjectE@Base 1.1.0
 _ZN10QtMobility16QLandmarkManager17availableManagersEv@Base 1.1.0
 _ZN10QtMobility16QLandmarkManager17categoriesChangedERK5QListINS_19QLandmarkCategoryIdEE@Base 1.1.0
 _ZN10QtMobility16QLandmarkManager17categoriesRemovedERK5QListINS_19QLandmarkCategoryIdEE@Base 1.1.0
 _ZN10QtMobility16QLandmarkManager3GpxE@Base 1.1.0
 _ZN10QtMobility16QLandmarkManager3KmlE@Base 1.1.0
 _ZN10QtMobility16QLandmarkManager3KmzE@Base 1.1.0
 _ZN10QtMobility16QLandmarkManager3LmxE@Base 1.1.0
 _ZN10QtMobility16QLandmarkManager6engineEv@Base 1.1.0
 _ZN10QtMobility16QLandmarkManager7fromUriERK7QStringP7QObject@Base 1.1.0
 _ZN10QtMobility16QLandmarkManager8buildUriERK7QStringRK4QMapIS1_S1_Ei@Base 1.1.0
 _ZN10QtMobility16QLandmarkManager8parseUriERK7QStringPS1_P4QMapIS1_S1_E@Base 1.1.0
 _ZN10QtMobility16QLandmarkManagerC1EP7QObject@Base 1.1.0
 _ZN10QtMobility16QLandmarkManagerC1ERK7QStringRK4QMapIS1_S1_EP7QObject@Base 1.1.0
 _ZN10QtMobility16QLandmarkManagerC2EP7QObject@Base 1.1.0
 _ZN10QtMobility16QLandmarkManagerC2ERK7QStringRK4QMapIS1_S1_EP7QObject@Base 1.1.0
 _ZN10QtMobility16QLandmarkManagerD0Ev@Base 1.1.0
 _ZN10QtMobility16QLandmarkManagerD1Ev@Base 1.1.0
 _ZN10QtMobility16QLandmarkManagerD2Ev@Base 1.1.0
 _ZN10QtMobility17QGeoMapObjectInfo11qt_metacallEN11QMetaObject4CallEiPPv@Base 1.1.0
 _ZN10QtMobility17QGeoMapObjectInfo11qt_metacastEPKc@Base 1.1.0
 _ZN10QtMobility17QGeoMapObjectInfo12unitsChangedENS_13QGeoMapObject14CoordinateUnitE@Base 1.2.0
 _ZN10QtMobility17QGeoMapObjectInfo13centerChangedERKNS_14QGeoCoordinateE@Base 1.1.0
 _ZN10QtMobility17QGeoMapObjectInfo13originChangedERKNS_14QGeoCoordinateE@Base 1.2.0
 _ZN10QtMobility17QGeoMapObjectInfo13zValueChangedEi@Base 1.1.0
 _ZN10QtMobility17QGeoMapObjectInfo14visibleChangedEb@Base 1.1.0
 _ZN10QtMobility17QGeoMapObjectInfo15selectedChangedEb@Base 1.1.0
 _ZN10QtMobility17QGeoMapObjectInfo16staticMetaObjectE@Base 1.1.0
 (subst)_ZN10QtMobility17QGeoMapObjectInfo16zoomLevelChangedE{qreal}@Base 1.1.0
 _ZN10QtMobility17QGeoMapObjectInfo17windowSizeChangedERK6QSizeF@Base 1.1.0
 _ZN10QtMobility17QGeoMapObjectInfo20transformTypeChangedENS_13QGeoMapObject13TransformTypeE@Base 1.2.0
 _ZN10QtMobility17QGeoMapObjectInfo4initEv@Base 1.1.0
 _ZN10QtMobility17QGeoMapObjectInfo7mapDataEv@Base 1.1.0
 _ZN10QtMobility17QGeoMapObjectInfo9mapObjectEv@Base 1.1.0
 _ZN10QtMobility17QGeoMapObjectInfoC1EPNS_11QGeoMapDataEPNS_13QGeoMapObjectE@Base 1.1.0
 _ZN10QtMobility17QGeoMapObjectInfoC2EPNS_11QGeoMapDataEPNS_13QGeoMapObjectE@Base 1.1.0
 _ZN10QtMobility17QGeoMapObjectInfoD0Ev@Base 1.1.0
 _ZN10QtMobility17QGeoMapObjectInfoD1Ev@Base 1.1.0
 _ZN10QtMobility17QGeoMapObjectInfoD2Ev@Base 1.1.0
 _ZN10QtMobility17QGeoMapTextObject10penChangedERK4QPen@Base 1.1.0
 _ZN10QtMobility17QGeoMapTextObject11fontChangedERK5QFont@Base 1.1.0
 _ZN10QtMobility17QGeoMapTextObject11qt_metacallEN11QMetaObject4CallEiPPv@Base 1.1.0
 _ZN10QtMobility17QGeoMapTextObject11qt_metacastEPKc@Base 1.1.0
 _ZN10QtMobility17QGeoMapTextObject11textChangedERK7QString@Base 1.1.0
 _ZN10QtMobility17QGeoMapTextObject12brushChangedERK6QBrush@Base 1.1.0
 _ZN10QtMobility17QGeoMapTextObject12setAlignmentE6QFlagsIN2Qt13AlignmentFlagEE@Base 1.1.0
 _ZN10QtMobility17QGeoMapTextObject13offsetChangedERK6QPoint@Base 1.1.0
 _ZN10QtMobility17QGeoMapTextObject13setCoordinateERKNS_14QGeoCoordinateE@Base 1.1.0
 _ZN10QtMobility17QGeoMapTextObject16alignmentChangedE6QFlagsIN2Qt13AlignmentFlagEE@Base 1.1.0
 _ZN10QtMobility17QGeoMapTextObject16staticMetaObjectE@Base 1.1.0
 _ZN10QtMobility17QGeoMapTextObject17coordinateChangedERKNS_14QGeoCoordinateE@Base 1.1.0
 _ZN10QtMobility17QGeoMapTextObject6setPenERK4QPen@Base 1.1.0
 _ZN10QtMobility17QGeoMapTextObject7setFontERK5QFont@Base 1.1.0
 _ZN10QtMobility17QGeoMapTextObject7setTextERK7QString@Base 1.1.0
 _ZN10QtMobility17QGeoMapTextObject8setBrushERK6QBrush@Base 1.1.0
 _ZN10QtMobility17QGeoMapTextObject9setOffsetERK6QPoint@Base 1.1.0
 _ZN10QtMobility17QGeoMapTextObjectC1ERKNS_14QGeoCoordinateERK7QStringRK5QFontRK6QPoint6QFlagsIN2Qt13AlignmentFlagEE@Base 1.1.0
 _ZN10QtMobility17QGeoMapTextObjectC1Ev@Base 1.1.0
 _ZN10QtMobility17QGeoMapTextObjectC2ERKNS_14QGeoCoordinateERK7QStringRK5QFontRK6QPoint6QFlagsIN2Qt13AlignmentFlagEE@Base 1.1.0
 _ZN10QtMobility17QGeoMapTextObjectC2Ev@Base 1.1.0
 _ZN10QtMobility17QGeoMapTextObjectD0Ev@Base 1.1.0
 _ZN10QtMobility17QGeoMapTextObjectD1Ev@Base 1.1.0
 _ZN10QtMobility17QGeoMapTextObjectD2Ev@Base 1.1.0
 (subst)_ZN10QtMobility17QGeoSatelliteInfo12setAttributeENS0_9AttributeE{qreal}@Base 1.1.0
 _ZN10QtMobility17QGeoSatelliteInfo12setPrnNumberEi@Base 1.1.0
 _ZN10QtMobility17QGeoSatelliteInfo15removeAttributeENS0_9AttributeE@Base 1.1.0
 _ZN10QtMobility17QGeoSatelliteInfo17setSignalStrengthEi@Base 1.1.0
 _ZN10QtMobility17QGeoSatelliteInfoC1ERKS0_@Base 1.1.0
 _ZN10QtMobility17QGeoSatelliteInfoC1Ev@Base 1.1.0
 _ZN10QtMobility17QGeoSatelliteInfoC2ERKS0_@Base 1.1.0
 _ZN10QtMobility17QGeoSatelliteInfoC2Ev@Base 1.1.0
 _ZN10QtMobility17QGeoSatelliteInfoD1Ev@Base 1.1.0
 _ZN10QtMobility17QGeoSatelliteInfoD2Ev@Base 1.1.0
 _ZN10QtMobility17QGeoSatelliteInfoaSERKS0_@Base 1.1.0
 _ZN10QtMobility17QGeoSearchManager11qt_metacallEN11QMetaObject4CallEiPPv@Base 1.1.0
 _ZN10QtMobility17QGeoSearchManager11qt_metacastEPKc@Base 1.1.0
 _ZN10QtMobility17QGeoSearchManager14reverseGeocodeERKNS_14QGeoCoordinateEPNS_16QGeoBoundingAreaE@Base 1.1.0
 _ZN10QtMobility17QGeoSearchManager16staticMetaObjectE@Base 1.1.0
 _ZN10QtMobility17QGeoSearchManager28addAdditionalLandmarkManagerEPNS_16QLandmarkManagerE@Base 1.1.0
 _ZN10QtMobility17QGeoSearchManager29setAdditionalLandmarkManagersERK5QListIPNS_16QLandmarkManagerEE@Base 1.1.0
 _ZN10QtMobility17QGeoSearchManager5errorEPNS_15QGeoSearchReplyENS1_5ErrorE7QString@Base 1.1.0
 _ZN10QtMobility17QGeoSearchManager6searchERK7QString6QFlagsINS0_10SearchTypeEEiiPNS_16QGeoBoundingAreaE@Base 1.1.0
 _ZN10QtMobility17QGeoSearchManager7geocodeERKNS_11QGeoAddressEPNS_16QGeoBoundingAreaE@Base 1.1.0
 _ZN10QtMobility17QGeoSearchManager8finishedEPNS_15QGeoSearchReplyE@Base 1.1.0
 _ZN10QtMobility17QGeoSearchManager9setLocaleERK7QLocale@Base 1.1.0
 _ZN10QtMobility17QGeoSearchManagerC1EPNS_23QGeoSearchManagerEngineEP7QObject@Base 1.1.0
 _ZN10QtMobility17QGeoSearchManagerC2EPNS_23QGeoSearchManagerEngineEP7QObject@Base 1.1.0
 _ZN10QtMobility17QGeoSearchManagerD0Ev@Base 1.1.0
 _ZN10QtMobility17QGeoSearchManagerD1Ev@Base 1.1.0
 _ZN10QtMobility17QGeoSearchManagerD2Ev@Base 1.1.0
 _ZN10QtMobility17QGeoTiledMapReply11qt_metacallEN11QMetaObject4CallEiPPv@Base 1.1.0
 _ZN10QtMobility17QGeoTiledMapReply11qt_metacastEPKc@Base 1.1.0
 _ZN10QtMobility17QGeoTiledMapReply11setFinishedEb@Base 1.1.0
 _ZN10QtMobility17QGeoTiledMapReply15setMapImageDataERK10QByteArray@Base 1.1.0
 _ZN10QtMobility17QGeoTiledMapReply16staticMetaObjectE@Base 1.1.0
 _ZN10QtMobility17QGeoTiledMapReply17setMapImageFormatERK7QString@Base 1.1.0
 _ZN10QtMobility17QGeoTiledMapReply5abortEv@Base 1.1.0
 _ZN10QtMobility17QGeoTiledMapReply5errorENS0_5ErrorERK7QString@Base 1.1.0
 _ZN10QtMobility17QGeoTiledMapReply8finishedEv@Base 1.1.0
 _ZN10QtMobility17QGeoTiledMapReply8setErrorENS0_5ErrorERK7QString@Base 1.1.0
 _ZN10QtMobility17QGeoTiledMapReply9setCachedEb@Base 1.1.0
 _ZN10QtMobility17QGeoTiledMapReplyC1ENS0_5ErrorERK7QStringP7QObject@Base 1.1.0
 _ZN10QtMobility17QGeoTiledMapReplyC1ERKNS_19QGeoTiledMapRequestEP7QObject@Base 1.1.0
 _ZN10QtMobility17QGeoTiledMapReplyC2ENS0_5ErrorERK7QStringP7QObject@Base 1.1.0
 _ZN10QtMobility17QGeoTiledMapReplyC2ERKNS_19QGeoTiledMapRequestEP7QObject@Base 1.1.0
 _ZN10QtMobility17QGeoTiledMapReplyD0Ev@Base 1.1.0
 _ZN10QtMobility17QGeoTiledMapReplyD1Ev@Base 1.1.0
 _ZN10QtMobility17QGeoTiledMapReplyD2Ev@Base 1.1.0
 _ZN10QtMobility17QLandmarkCategory10setIconUrlERK4QUrl@Base 1.1.0
 _ZN10QtMobility17QLandmarkCategory13setCategoryIdERKNS_19QLandmarkCategoryIdE@Base 1.1.0
 _ZN10QtMobility17QLandmarkCategory5clearEv@Base 1.1.0
 _ZN10QtMobility17QLandmarkCategory7setNameERK7QString@Base 1.1.0
 _ZN10QtMobility17QLandmarkCategoryC1ERKS0_@Base 1.1.0
 _ZN10QtMobility17QLandmarkCategoryC1Ev@Base 1.1.0
 _ZN10QtMobility17QLandmarkCategoryC2ERKS0_@Base 1.1.0
 _ZN10QtMobility17QLandmarkCategoryC2Ev@Base 1.1.0
 _ZN10QtMobility17QLandmarkCategoryD1Ev@Base 1.1.0
 _ZN10QtMobility17QLandmarkCategoryD2Ev@Base 1.1.0
 _ZN10QtMobility17QLandmarkCategoryaSERKS0_@Base 1.1.0
 _ZN10QtMobility17QLandmarkIdFilter14setLandmarkIdsERK5QListINS_11QLandmarkIdEE@Base 1.1.0
 _ZN10QtMobility17QLandmarkIdFilter5clearEv@Base 1.1.0
 _ZN10QtMobility17QLandmarkIdFilter6appendERKNS_11QLandmarkIdE@Base 1.1.0
 _ZN10QtMobility17QLandmarkIdFilter6removeERKNS_11QLandmarkIdE@Base 1.1.0
 _ZN10QtMobility17QLandmarkIdFilterC1ERK5QListINS_11QLandmarkIdEE@Base 1.1.0
 _ZN10QtMobility17QLandmarkIdFilterC1ERKNS_15QLandmarkFilterE@Base 1.1.0
 _ZN10QtMobility17QLandmarkIdFilterC2ERK5QListINS_11QLandmarkIdEE@Base 1.1.0
 _ZN10QtMobility17QLandmarkIdFilterC2ERKNS_15QLandmarkFilterE@Base 1.1.0
 _ZN10QtMobility17QLandmarkIdFilterD0Ev@Base 1.1.0
 _ZN10QtMobility17QLandmarkIdFilterD1Ev@Base 1.1.0
 _ZN10QtMobility17QLandmarkIdFilterD2Ev@Base 1.1.0
 _ZN10QtMobility17QLandmarkIdFilterlsERKNS_11QLandmarkIdE@Base 1.1.0
 _ZN10QtMobility17QLandmarkNameSort18setCaseSensitivityEN2Qt15CaseSensitivityE@Base 1.1.0
 _ZN10QtMobility17QLandmarkNameSortC1EN2Qt9SortOrderENS1_15CaseSensitivityE@Base 1.1.0
 _ZN10QtMobility17QLandmarkNameSortC1ERKNS_18QLandmarkSortOrderE@Base 1.1.0
#MISSING: 1.2.0# _ZN10QtMobility17QLandmarkNameSortC1ERKS0_@Base 1.2.0
 _ZN10QtMobility17QLandmarkNameSortC2EN2Qt9SortOrderENS1_15CaseSensitivityE@Base 1.1.0
 _ZN10QtMobility17QLandmarkNameSortC2ERKNS_18QLandmarkSortOrderE@Base 1.1.0
#MISSING: 1.2.0# _ZN10QtMobility17QLandmarkNameSortC2ERKS0_@Base 1.2.0
 _ZN10QtMobility17QLandmarkNameSortD0Ev@Base 1.1.0
 _ZN10QtMobility17QLandmarkNameSortD1Ev@Base 1.1.0
 _ZN10QtMobility17QLandmarkNameSortD2Ev@Base 1.1.0
#MISSING: 1.2.0# _ZN10QtMobility17QLandmarkNameSortaSERKS0_@Base 1.2.0
 _ZN10QtMobility18QGeoBoundingCircle9setCenterERKNS_14QGeoCoordinateE@Base 1.1.0
 (subst)_ZN10QtMobility18QGeoBoundingCircle9setRadiusE{qreal}@Base 1.1.0
 _ZN10QtMobility18QGeoBoundingCircle9translateEdd@Base 1.1.0
 (subst)_ZN10QtMobility18QGeoBoundingCircleC1ERKNS_14QGeoCoordinateE{qreal}@Base 1.1.0
 _ZN10QtMobility18QGeoBoundingCircleC1ERKS0_@Base 1.1.0
 _ZN10QtMobility18QGeoBoundingCircleC1Ev@Base 1.1.0
 (subst)_ZN10QtMobility18QGeoBoundingCircleC2ERKNS_14QGeoCoordinateE{qreal}@Base 1.1.0
 _ZN10QtMobility18QGeoBoundingCircleC2ERKS0_@Base 1.1.0
 _ZN10QtMobility18QGeoBoundingCircleC2Ev@Base 1.1.0
 _ZN10QtMobility18QGeoBoundingCircleD0Ev@Base 1.1.0
 _ZN10QtMobility18QGeoBoundingCircleD1Ev@Base 1.1.0
 _ZN10QtMobility18QGeoBoundingCircleD2Ev@Base 1.1.0
 _ZN10QtMobility18QGeoBoundingCircleaSERKS0_@Base 1.1.0
 _ZN10QtMobility18QGeoMapGroupObject10childAddedEPNS_13QGeoMapObjectE@Base 1.1.0
 _ZN10QtMobility18QGeoMapGroupObject10setMapDataEPNS_11QGeoMapDataE@Base 1.1.0
 _ZN10QtMobility18QGeoMapGroupObject10setVisibleEb@Base 1.2.0
 _ZN10QtMobility18QGeoMapGroupObject11qt_metacallEN11QMetaObject4CallEiPPv@Base 1.1.0
 _ZN10QtMobility18QGeoMapGroupObject11qt_metacastEPKc@Base 1.1.0
 _ZN10QtMobility18QGeoMapGroupObject12childRemovedEPNS_13QGeoMapObjectE@Base 1.1.0
 _ZN10QtMobility18QGeoMapGroupObject12childUpdatedEPNS_13QGeoMapObjectE@Base 1.2.0
 _ZN10QtMobility18QGeoMapGroupObject14addChildObjectEPNS_13QGeoMapObjectE@Base 1.1.0
 _ZN10QtMobility18QGeoMapGroupObject16staticMetaObjectE@Base 1.1.0
 _ZN10QtMobility18QGeoMapGroupObject17clearChildObjectsEv@Base 1.1.0
 _ZN10QtMobility18QGeoMapGroupObject17removeChildObjectEPNS_13QGeoMapObjectE@Base 1.1.0
 _ZN10QtMobility18QGeoMapGroupObjectC1Ev@Base 1.1.0
 _ZN10QtMobility18QGeoMapGroupObjectC2Ev@Base 1.1.0
 _ZN10QtMobility18QGeoMapGroupObjectD0Ev@Base 1.1.0
 _ZN10QtMobility18QGeoMapGroupObjectD1Ev@Base 1.1.0
 _ZN10QtMobility18QGeoMapGroupObjectD2Ev@Base 1.1.0
 _ZN10QtMobility18QGeoMapRouteObject10penChangedERK4QPen@Base 1.1.0
 _ZN10QtMobility18QGeoMapRouteObject11qt_metacallEN11QMetaObject4CallEiPPv@Base 1.1.0
 _ZN10QtMobility18QGeoMapRouteObject11qt_metacastEPKc@Base 1.1.0
 _ZN10QtMobility18QGeoMapRouteObject12routeChangedERKNS_9QGeoRouteE@Base 1.1.0
 _ZN10QtMobility18QGeoMapRouteObject14setDetailLevelEj@Base 1.1.0
 _ZN10QtMobility18QGeoMapRouteObject16staticMetaObjectE@Base 1.1.0
 _ZN10QtMobility18QGeoMapRouteObject18detailLevelChangedEj@Base 1.1.0
 _ZN10QtMobility18QGeoMapRouteObject6setPenERK4QPen@Base 1.1.0
 _ZN10QtMobility18QGeoMapRouteObject8setRouteERKNS_9QGeoRouteE@Base 1.1.0
 _ZN10QtMobility18QGeoMapRouteObjectC1ERKNS_9QGeoRouteE@Base 1.1.0
 _ZN10QtMobility18QGeoMapRouteObjectC1Ev@Base 1.1.0
 _ZN10QtMobility18QGeoMapRouteObjectC2ERKNS_9QGeoRouteE@Base 1.1.0
 _ZN10QtMobility18QGeoMapRouteObjectC2Ev@Base 1.1.0
 _ZN10QtMobility18QGeoMapRouteObjectD0Ev@Base 1.1.0
 _ZN10QtMobility18QGeoMapRouteObjectD1Ev@Base 1.1.0
 _ZN10QtMobility18QGeoMapRouteObjectD2Ev@Base 1.1.0
 _ZN10QtMobility18QGeoMappingManager11qt_metacallEN11QMetaObject4CallEiPPv@Base 1.1.0
 _ZN10QtMobility18QGeoMappingManager11qt_metacastEPKc@Base 1.1.0
 _ZN10QtMobility18QGeoMappingManager13createMapDataEv@Base 1.1.0
 _ZN10QtMobility18QGeoMappingManager16staticMetaObjectE@Base 1.1.0
 _ZN10QtMobility18QGeoMappingManager9setLocaleERK7QLocale@Base 1.1.0
 _ZN10QtMobility18QGeoMappingManagerC1EPNS_24QGeoMappingManagerEngineEP7QObject@Base 1.1.0
 _ZN10QtMobility18QGeoMappingManagerC2EPNS_24QGeoMappingManagerEngineEP7QObject@Base 1.1.0
 _ZN10QtMobility18QGeoMappingManagerD0Ev@Base 1.1.0
 _ZN10QtMobility18QGeoMappingManagerD1Ev@Base 1.1.0
 _ZN10QtMobility18QGeoMappingManagerD2Ev@Base 1.1.0
 _ZN10QtMobility18QGeoRoutingManager11qt_metacallEN11QMetaObject4CallEiPPv@Base 1.1.0
 _ZN10QtMobility18QGeoRoutingManager11qt_metacastEPKc@Base 1.1.0
 _ZN10QtMobility18QGeoRoutingManager11updateRouteERKNS_9QGeoRouteERKNS_14QGeoCoordinateE@Base 1.1.0
 _ZN10QtMobility18QGeoRoutingManager14calculateRouteERKNS_16QGeoRouteRequestE@Base 1.1.0
 _ZN10QtMobility18QGeoRoutingManager16staticMetaObjectE@Base 1.1.0
 _ZN10QtMobility18QGeoRoutingManager5errorEPNS_14QGeoRouteReplyENS1_5ErrorE7QString@Base 1.1.0
 _ZN10QtMobility18QGeoRoutingManager8finishedEPNS_14QGeoRouteReplyE@Base 1.1.0
 _ZN10QtMobility18QGeoRoutingManager9setLocaleERK7QLocale@Base 1.1.0
 _ZN10QtMobility18QGeoRoutingManagerC1EPNS_24QGeoRoutingManagerEngineEP7QObject@Base 1.1.0
 _ZN10QtMobility18QGeoRoutingManagerC2EPNS_24QGeoRoutingManagerEngineEP7QObject@Base 1.1.0
 _ZN10QtMobility18QGeoRoutingManagerD0Ev@Base 1.1.0
 _ZN10QtMobility18QGeoRoutingManagerD1Ev@Base 1.1.0
 _ZN10QtMobility18QGeoRoutingManagerD2Ev@Base 1.1.0
 _ZN10QtMobility18QLandmarkBoxFilter10setTopLeftERKNS_14QGeoCoordinateE@Base 1.1.0
 _ZN10QtMobility18QLandmarkBoxFilter11bottomRightEv@Base 1.1.0
 _ZN10QtMobility18QLandmarkBoxFilter14setBottomRightERKNS_14QGeoCoordinateE@Base 1.1.0
 _ZN10QtMobility18QLandmarkBoxFilter14setBoundingBoxERKNS_15QGeoBoundingBoxE@Base 1.1.0
 _ZN10QtMobility18QLandmarkBoxFilter7topLeftEv@Base 1.1.0
 _ZN10QtMobility18QLandmarkBoxFilterC1ERKNS_14QGeoCoordinateES3_@Base 1.1.0
 _ZN10QtMobility18QLandmarkBoxFilterC1ERKNS_15QGeoBoundingBoxE@Base 1.1.0
 _ZN10QtMobility18QLandmarkBoxFilterC1ERKNS_15QLandmarkFilterE@Base 1.1.0
 _ZN10QtMobility18QLandmarkBoxFilterC2ERKNS_14QGeoCoordinateES3_@Base 1.1.0
 _ZN10QtMobility18QLandmarkBoxFilterC2ERKNS_15QGeoBoundingBoxE@Base 1.1.0
 _ZN10QtMobility18QLandmarkBoxFilterC2ERKNS_15QLandmarkFilterE@Base 1.1.0
 _ZN10QtMobility18QLandmarkBoxFilterD0Ev@Base 1.1.0
 _ZN10QtMobility18QLandmarkBoxFilterD1Ev@Base 1.1.0
 _ZN10QtMobility18QLandmarkBoxFilterD2Ev@Base 1.1.0
 _ZN10QtMobility18QLandmarkSortOrder12setDirectionEN2Qt9SortOrderE@Base 1.1.0
 _ZN10QtMobility18QLandmarkSortOrderC1EPNS_25QLandmarkSortOrderPrivateE@Base 1.1.0
 _ZN10QtMobility18QLandmarkSortOrderC1ERKS0_@Base 1.1.0
 _ZN10QtMobility18QLandmarkSortOrderC1Ev@Base 1.1.0
 _ZN10QtMobility18QLandmarkSortOrderC2EPNS_25QLandmarkSortOrderPrivateE@Base 1.1.0
 _ZN10QtMobility18QLandmarkSortOrderC2ERKS0_@Base 1.1.0
 _ZN10QtMobility18QLandmarkSortOrderC2Ev@Base 1.1.0
 _ZN10QtMobility18QLandmarkSortOrderD0Ev@Base 1.1.0
 _ZN10QtMobility18QLandmarkSortOrderD1Ev@Base 1.1.0
 _ZN10QtMobility18QLandmarkSortOrderD2Ev@Base 1.1.0
 _ZN10QtMobility18QLandmarkSortOrderaSERKS0_@Base 1.1.0
 _ZN10QtMobility19QGeoMapCircleObject10penChangedERK4QPen@Base 1.1.0
 _ZN10QtMobility19QGeoMapCircleObject11qt_metacallEN11QMetaObject4CallEiPPv@Base 1.1.0
 _ZN10QtMobility19QGeoMapCircleObject11qt_metacastEPKc@Base 1.1.0
 _ZN10QtMobility19QGeoMapCircleObject12brushChangedERK6QBrush@Base 1.1.0
 _ZN10QtMobility19QGeoMapCircleObject13centerChangedERKNS_14QGeoCoordinateE@Base 1.1.0
 (subst)_ZN10QtMobility19QGeoMapCircleObject13radiusChangedE{qreal}@Base 1.1.0
 _ZN10QtMobility19QGeoMapCircleObject13setPointCountEj@Base 1.2.0
 _ZN10QtMobility19QGeoMapCircleObject16staticMetaObjectE@Base 1.1.0
 _ZN10QtMobility19QGeoMapCircleObject6setPenERK4QPen@Base 1.1.0
 _ZN10QtMobility19QGeoMapCircleObject8setBrushERK6QBrush@Base 1.1.0
 _ZN10QtMobility19QGeoMapCircleObject9setCenterERKNS_14QGeoCoordinateE@Base 1.1.0
 _ZN10QtMobility19QGeoMapCircleObject9setCircleERKNS_18QGeoBoundingCircleE@Base 1.1.0
 (subst)_ZN10QtMobility19QGeoMapCircleObject9setRadiusE{qreal}@Base 1.1.0
 (subst)_ZN10QtMobility19QGeoMapCircleObjectC1ERKNS_14QGeoCoordinateE{qreal}@Base 1.1.0
 _ZN10QtMobility19QGeoMapCircleObjectC1ERKNS_18QGeoBoundingCircleE@Base 1.1.0
 _ZN10QtMobility19QGeoMapCircleObjectC1Ev@Base 1.1.0
 (subst)_ZN10QtMobility19QGeoMapCircleObjectC2ERKNS_14QGeoCoordinateE{qreal}@Base 1.1.0
 _ZN10QtMobility19QGeoMapCircleObjectC2ERKNS_18QGeoBoundingCircleE@Base 1.1.0
 _ZN10QtMobility19QGeoMapCircleObjectC2Ev@Base 1.1.0
 _ZN10QtMobility19QGeoMapCircleObjectD0Ev@Base 1.1.0
 _ZN10QtMobility19QGeoMapCircleObjectD1Ev@Base 1.1.0
 _ZN10QtMobility19QGeoMapCircleObjectD2Ev@Base 1.1.0
 _ZN10QtMobility19QGeoMapCustomObject11qt_metacallEN11QMetaObject4CallEiPPv@Base 1.2.0
 _ZN10QtMobility19QGeoMapCustomObject11qt_metacastEPKc@Base 1.2.0
 _ZN10QtMobility19QGeoMapCustomObject13offsetChangedERK6QPoint@Base 1.2.0
 _ZN10QtMobility19QGeoMapCustomObject13triggerUpdateEv@Base 1.2.0
 _ZN10QtMobility19QGeoMapCustomObject15setGraphicsItemEP13QGraphicsItem@Base 1.2.0
 _ZN10QtMobility19QGeoMapCustomObject16setTransformTypeERKNS_13QGeoMapObject13TransformTypeE@Base 1.2.0
 _ZN10QtMobility19QGeoMapCustomObject16staticMetaObjectE@Base 1.2.0
 _ZN10QtMobility19QGeoMapCustomObject19graphicsItemChangedEP13QGraphicsItem@Base 1.2.0
 _ZN10QtMobility19QGeoMapCustomObject6updateEv@Base 1.2.0
 _ZN10QtMobility19QGeoMapCustomObject8setUnitsERKNS_13QGeoMapObject14CoordinateUnitE@Base 1.2.0
 _ZN10QtMobility19QGeoMapCustomObject9setOffsetERK6QPoint@Base 1.2.0
 _ZN10QtMobility19QGeoMapCustomObject9setOriginERKNS_14QGeoCoordinateE@Base 1.2.0
 _ZN10QtMobility19QGeoMapCustomObjectC1ERKNS_14QGeoCoordinateERK6QPoint@Base 1.2.0
 _ZN10QtMobility19QGeoMapCustomObjectC1Ev@Base 1.2.0
 _ZN10QtMobility19QGeoMapCustomObjectC2ERKNS_14QGeoCoordinateERK6QPoint@Base 1.2.0
 _ZN10QtMobility19QGeoMapCustomObjectC2Ev@Base 1.2.0
 _ZN10QtMobility19QGeoMapCustomObjectD0Ev@Base 1.2.0
 _ZN10QtMobility19QGeoMapCustomObjectD1Ev@Base 1.2.0
 _ZN10QtMobility19QGeoMapCustomObjectD2Ev@Base 1.2.0
 _ZN10QtMobility19QGeoMapPixmapObject11qt_metacallEN11QMetaObject4CallEiPPv@Base 1.1.0
 _ZN10QtMobility19QGeoMapPixmapObject11qt_metacastEPKc@Base 1.1.0
 _ZN10QtMobility19QGeoMapPixmapObject13offsetChangedERK6QPoint@Base 1.1.0
 _ZN10QtMobility19QGeoMapPixmapObject13pixmapChangedERK7QPixmap@Base 1.1.0
 _ZN10QtMobility19QGeoMapPixmapObject13setCoordinateERKNS_14QGeoCoordinateE@Base 1.1.0
 _ZN10QtMobility19QGeoMapPixmapObject16staticMetaObjectE@Base 1.1.0
 _ZN10QtMobility19QGeoMapPixmapObject17coordinateChangedERKNS_14QGeoCoordinateE@Base 1.1.0
 _ZN10QtMobility19QGeoMapPixmapObject9setOffsetERK6QPoint@Base 1.1.0
 _ZN10QtMobility19QGeoMapPixmapObject9setPixmapERK7QPixmap@Base 1.1.0
 _ZN10QtMobility19QGeoMapPixmapObjectC1ERKNS_14QGeoCoordinateERK6QPointRK7QPixmap@Base 1.1.0
 _ZN10QtMobility19QGeoMapPixmapObjectC1Ev@Base 1.1.0
 _ZN10QtMobility19QGeoMapPixmapObjectC2ERKNS_14QGeoCoordinateERK6QPointRK7QPixmap@Base 1.1.0
 _ZN10QtMobility19QGeoMapPixmapObjectC2Ev@Base 1.1.0
 _ZN10QtMobility19QGeoMapPixmapObjectD0Ev@Base 1.1.0
 _ZN10QtMobility19QGeoMapPixmapObjectD1Ev@Base 1.1.0
 _ZN10QtMobility19QGeoMapPixmapObjectD2Ev@Base 1.1.0
 _ZN10QtMobility19QGeoServiceProvider25availableServiceProvidersEv@Base 1.1.0
 _ZN10QtMobility19QGeoServiceProviderC1ERK7QStringRK4QMapIS1_8QVariantE@Base 1.1.0
 _ZN10QtMobility19QGeoServiceProviderC2ERK7QStringRK4QMapIS1_8QVariantE@Base 1.1.0
 _ZN10QtMobility19QGeoServiceProviderD1Ev@Base 1.1.0
 _ZN10QtMobility19QGeoServiceProviderD2Ev@Base 1.1.0
 (subst)_ZN10QtMobility19QGeoTiledMapRequestC1ENS_15QGraphicsGeoMap16ConnectivityModeENS1_7MapTypeE{qreal}iiRK5QRect@Base 1.1.0
 _ZN10QtMobility19QGeoTiledMapRequestC1ERKS0_@Base 1.1.0
 _ZN10QtMobility19QGeoTiledMapRequestC1Ev@Base 1.1.0
 (subst)_ZN10QtMobility19QGeoTiledMapRequestC2ENS_15QGraphicsGeoMap16ConnectivityModeENS1_7MapTypeE{qreal}iiRK5QRect@Base 1.1.0
 _ZN10QtMobility19QGeoTiledMapRequestC2ERKS0_@Base 1.1.0
 _ZN10QtMobility19QGeoTiledMapRequestC2Ev@Base 1.1.0
 _ZN10QtMobility19QGeoTiledMapRequestD1Ev@Base 1.1.0
 _ZN10QtMobility19QGeoTiledMapRequestD2Ev@Base 1.1.0
 _ZN10QtMobility19QGeoTiledMapRequestaSERKS0_@Base 1.1.0
 _ZN10QtMobility19QLandmarkCategoryId10setLocalIdERK7QString@Base 1.1.0
 _ZN10QtMobility19QLandmarkCategoryId13setManagerUriERK7QString@Base 1.1.0
 _ZN10QtMobility19QLandmarkCategoryIdC1ERKS0_@Base 1.1.0
 _ZN10QtMobility19QLandmarkCategoryIdC1Ev@Base 1.1.0
 _ZN10QtMobility19QLandmarkCategoryIdC2ERKS0_@Base 1.1.0
 _ZN10QtMobility19QLandmarkCategoryIdC2Ev@Base 1.1.0
 _ZN10QtMobility19QLandmarkCategoryIdD1Ev@Base 1.1.0
 _ZN10QtMobility19QLandmarkCategoryIdD2Ev@Base 1.1.0
 _ZN10QtMobility19QLandmarkCategoryIdaSERKS0_@Base 1.1.0
 _ZN10QtMobility19QLandmarkNameFilter13setMatchFlagsE6QFlagsINS_15QLandmarkFilter9MatchFlagEE@Base 1.1.0
 _ZN10QtMobility19QLandmarkNameFilter7setNameERK7QString@Base 1.1.0
 _ZN10QtMobility19QLandmarkNameFilterC1ERK7QString@Base 1.1.0
 _ZN10QtMobility19QLandmarkNameFilterC1ERKNS_15QLandmarkFilterE@Base 1.1.0
 _ZN10QtMobility19QLandmarkNameFilterC2ERK7QString@Base 1.1.0
 _ZN10QtMobility19QLandmarkNameFilterC2ERKNS_15QLandmarkFilterE@Base 1.1.0
 _ZN10QtMobility19QLandmarkNameFilterD0Ev@Base 1.1.0
 _ZN10QtMobility19QLandmarkNameFilterD1Ev@Base 1.1.0
 _ZN10QtMobility19QLandmarkNameFilterD2Ev@Base 1.1.0
 _ZN10QtMobility20QGeoMapPolygonObject10penChangedERK4QPen@Base 1.1.0
 _ZN10QtMobility20QGeoMapPolygonObject11pathChangedERK5QListINS_14QGeoCoordinateEE@Base 1.1.0
 _ZN10QtMobility20QGeoMapPolygonObject11qt_metacallEN11QMetaObject4CallEiPPv@Base 1.1.0
 _ZN10QtMobility20QGeoMapPolygonObject11qt_metacastEPKc@Base 1.1.0
 _ZN10QtMobility20QGeoMapPolygonObject12brushChangedERK6QBrush@Base 1.1.0
 _ZN10QtMobility20QGeoMapPolygonObject16staticMetaObjectE@Base 1.1.0
 _ZN10QtMobility20QGeoMapPolygonObject6setPenERK4QPen@Base 1.1.0
 _ZN10QtMobility20QGeoMapPolygonObject7setPathERK5QListINS_14QGeoCoordinateEE@Base 1.1.0
 _ZN10QtMobility20QGeoMapPolygonObject8setBrushERK6QBrush@Base 1.1.0
 _ZN10QtMobility20QGeoMapPolygonObjectC1Ev@Base 1.1.0
 _ZN10QtMobility20QGeoMapPolygonObjectC2Ev@Base 1.1.0
 _ZN10QtMobility20QGeoMapPolygonObjectD0Ev@Base 1.1.0
 _ZN10QtMobility20QGeoMapPolygonObjectD1Ev@Base 1.1.0
 _ZN10QtMobility20QGeoMapPolygonObjectD2Ev@Base 1.1.0
 _ZN10QtMobility20QLandmarkSaveRequest11qt_metacallEN11QMetaObject4CallEiPPv@Base 1.1.0
 _ZN10QtMobility20QLandmarkSaveRequest11qt_metacastEPKc@Base 1.1.0
 _ZN10QtMobility20QLandmarkSaveRequest11setLandmarkERKNS_9QLandmarkE@Base 1.1.0
 _ZN10QtMobility20QLandmarkSaveRequest12setLandmarksERK5QListINS_9QLandmarkEE@Base 1.1.0
 _ZN10QtMobility20QLandmarkSaveRequest16staticMetaObjectE@Base 1.1.0
 _ZN10QtMobility20QLandmarkSaveRequestC1EPNS_16QLandmarkManagerEP7QObject@Base 1.1.0
 _ZN10QtMobility20QLandmarkSaveRequestC2EPNS_16QLandmarkManagerEP7QObject@Base 1.1.0
 _ZN10QtMobility20QLandmarkSaveRequestD0Ev@Base 1.1.0
 _ZN10QtMobility20QLandmarkSaveRequestD1Ev@Base 1.1.0
 _ZN10QtMobility20QLandmarkSaveRequestD2Ev@Base 1.1.0
 _ZN10QtMobility20QLandmarkUnionFilter10setFiltersERK5QListINS_15QLandmarkFilterEE@Base 1.1.0
 _ZN10QtMobility20QLandmarkUnionFilter5clearEv@Base 1.1.0
 _ZN10QtMobility20QLandmarkUnionFilter6appendERKNS_15QLandmarkFilterE@Base 1.1.0
 _ZN10QtMobility20QLandmarkUnionFilter6removeERKNS_15QLandmarkFilterE@Base 1.1.0
 _ZN10QtMobility20QLandmarkUnionFilter7prependERKNS_15QLandmarkFilterE@Base 1.1.0
 _ZN10QtMobility20QLandmarkUnionFilterC1ERKNS_15QLandmarkFilterE@Base 1.1.0
 _ZN10QtMobility20QLandmarkUnionFilterC1Ev@Base 1.1.0
 _ZN10QtMobility20QLandmarkUnionFilterC2ERKNS_15QLandmarkFilterE@Base 1.1.0
 _ZN10QtMobility20QLandmarkUnionFilterC2Ev@Base 1.1.0
 _ZN10QtMobility20QLandmarkUnionFilterD0Ev@Base 1.1.0
 _ZN10QtMobility20QLandmarkUnionFilterD1Ev@Base 1.1.0
 _ZN10QtMobility20QLandmarkUnionFilterD2Ev@Base 1.1.0
 _ZN10QtMobility20QLandmarkUnionFilterlsERKNS_15QLandmarkFilterE@Base 1.1.0
 _ZN10QtMobility21QGeoMapPolylineObject10penChangedERK4QPen@Base 1.1.0
 _ZN10QtMobility21QGeoMapPolylineObject11pathChangedERK5QListINS_14QGeoCoordinateEE@Base 1.1.0
 _ZN10QtMobility21QGeoMapPolylineObject11qt_metacallEN11QMetaObject4CallEiPPv@Base 1.1.0
 _ZN10QtMobility21QGeoMapPolylineObject11qt_metacastEPKc@Base 1.1.0
 _ZN10QtMobility21QGeoMapPolylineObject16staticMetaObjectE@Base 1.1.0
 _ZN10QtMobility21QGeoMapPolylineObject6setPenERK4QPen@Base 1.1.0
 _ZN10QtMobility21QGeoMapPolylineObject7setPathERK5QListINS_14QGeoCoordinateEE@Base 1.1.0
 _ZN10QtMobility21QGeoMapPolylineObjectC1Ev@Base 1.1.0
 _ZN10QtMobility21QGeoMapPolylineObjectC2Ev@Base 1.1.0
 _ZN10QtMobility21QGeoMapPolylineObjectD0Ev@Base 1.1.0
 _ZN10QtMobility21QGeoMapPolylineObjectD1Ev@Base 1.1.0
 _ZN10QtMobility21QGeoMapPolylineObjectD2Ev@Base 1.1.0
 _ZN10QtMobility21QLandmarkFetchRequest10setSortingERK5QListINS_18QLandmarkSortOrderEE@Base 1.1.0
 _ZN10QtMobility21QLandmarkFetchRequest10setSortingERKNS_18QLandmarkSortOrderE@Base 1.1.0
 _ZN10QtMobility21QLandmarkFetchRequest11qt_metacallEN11QMetaObject4CallEiPPv@Base 1.1.0
 _ZN10QtMobility21QLandmarkFetchRequest11qt_metacastEPKc@Base 1.1.0
 _ZN10QtMobility21QLandmarkFetchRequest16staticMetaObjectE@Base 1.1.0
 _ZN10QtMobility21QLandmarkFetchRequest8setLimitEi@Base 1.1.0
 _ZN10QtMobility21QLandmarkFetchRequest9setFilterERKNS_15QLandmarkFilterE@Base 1.1.0
 _ZN10QtMobility21QLandmarkFetchRequest9setOffsetEi@Base 1.1.0
 _ZN10QtMobility21QLandmarkFetchRequestC1EPNS_16QLandmarkManagerEP7QObject@Base 1.1.0
 _ZN10QtMobility21QLandmarkFetchRequestC2EPNS_16QLandmarkManagerEP7QObject@Base 1.1.0
 _ZN10QtMobility21QLandmarkFetchRequestD0Ev@Base 1.1.0
 _ZN10QtMobility21QLandmarkFetchRequestD1Ev@Base 1.1.0
 _ZN10QtMobility21QLandmarkFetchRequestD2Ev@Base 1.1.0
 _ZN10QtMobility22QGeoMapRectangleObject10penChangedERK4QPen@Base 1.1.0
 _ZN10QtMobility22QGeoMapRectangleObject10setTopLeftERKNS_14QGeoCoordinateE@Base 1.1.0
 _ZN10QtMobility22QGeoMapRectangleObject11qt_metacallEN11QMetaObject4CallEiPPv@Base 1.1.0
 _ZN10QtMobility22QGeoMapRectangleObject11qt_metacastEPKc@Base 1.1.0
 _ZN10QtMobility22QGeoMapRectangleObject12brushChangedERK6QBrush@Base 1.1.0
 _ZN10QtMobility22QGeoMapRectangleObject14setBottomRightERKNS_14QGeoCoordinateE@Base 1.1.0
 _ZN10QtMobility22QGeoMapRectangleObject14topLeftChangedERKNS_14QGeoCoordinateE@Base 1.1.0
 _ZN10QtMobility22QGeoMapRectangleObject16staticMetaObjectE@Base 1.1.0
 _ZN10QtMobility22QGeoMapRectangleObject18bottomRightChangedERKNS_14QGeoCoordinateE@Base 1.1.0
 _ZN10QtMobility22QGeoMapRectangleObject6setPenERK4QPen@Base 1.1.0
 _ZN10QtMobility22QGeoMapRectangleObject8setBrushERK6QBrush@Base 1.1.0
 _ZN10QtMobility22QGeoMapRectangleObject9setBoundsERKNS_15QGeoBoundingBoxE@Base 1.1.0
 _ZN10QtMobility22QGeoMapRectangleObjectC1ERKNS_14QGeoCoordinateES3_@Base 1.1.0
 _ZN10QtMobility22QGeoMapRectangleObjectC1ERKNS_15QGeoBoundingBoxE@Base 1.1.0
 _ZN10QtMobility22QGeoMapRectangleObjectC1Ev@Base 1.1.0
 _ZN10QtMobility22QGeoMapRectangleObjectC2ERKNS_14QGeoCoordinateES3_@Base 1.1.0
 _ZN10QtMobility22QGeoMapRectangleObjectC2ERKNS_15QGeoBoundingBoxE@Base 1.1.0
 _ZN10QtMobility22QGeoMapRectangleObjectC2Ev@Base 1.1.0
 _ZN10QtMobility22QGeoMapRectangleObjectD0Ev@Base 1.1.0
 _ZN10QtMobility22QGeoMapRectangleObjectD1Ev@Base 1.1.0
 _ZN10QtMobility22QGeoMapRectangleObjectD2Ev@Base 1.1.0
 _ZN10QtMobility22QGeoPositionInfoSource11qt_metacallEN11QMetaObject4CallEiPPv@Base 1.1.0
 _ZN10QtMobility22QGeoPositionInfoSource11qt_metacastEPKc@Base 1.1.0
 _ZN10QtMobility22QGeoPositionInfoSource12createSourceERK7QStringP7QObject@Base 1.2.0
 _ZN10QtMobility22QGeoPositionInfoSource13updateTimeoutEv@Base 1.1.0
 _ZN10QtMobility22QGeoPositionInfoSource15positionUpdatedERKNS_16QGeoPositionInfoE@Base 1.1.0
 _ZN10QtMobility22QGeoPositionInfoSource16availableSourcesEv@Base 1.2.0
 _ZN10QtMobility22QGeoPositionInfoSource16staticMetaObjectE@Base 1.1.0
 _ZN10QtMobility22QGeoPositionInfoSource17setUpdateIntervalEi@Base 1.1.0
 _ZN10QtMobility22QGeoPositionInfoSource19createDefaultSourceEP7QObject@Base 1.1.0
 _ZN10QtMobility22QGeoPositionInfoSource30setPreferredPositioningMethodsE6QFlagsINS0_17PositioningMethodEE@Base 1.1.0
 _ZN10QtMobility22QGeoPositionInfoSourceC1EP7QObject@Base 1.1.0
 _ZN10QtMobility22QGeoPositionInfoSourceC2EP7QObject@Base 1.1.0
 _ZN10QtMobility22QGeoPositionInfoSourceD0Ev@Base 1.1.0
 _ZN10QtMobility22QGeoPositionInfoSourceD1Ev@Base 1.1.0
 _ZN10QtMobility22QGeoPositionInfoSourceD2Ev@Base 1.1.0
 _ZN10QtMobility22QLandmarkExportRequest11qt_metacallEN11QMetaObject4CallEiPPv@Base 1.1.0
 _ZN10QtMobility22QLandmarkExportRequest11qt_metacastEPKc@Base 1.1.0
 _ZN10QtMobility22QLandmarkExportRequest11setFileNameERK7QString@Base 1.1.0
 _ZN10QtMobility22QLandmarkExportRequest14setLandmarkIdsERK5QListINS_11QLandmarkIdEE@Base 1.1.0
 _ZN10QtMobility22QLandmarkExportRequest16staticMetaObjectE@Base 1.1.0
 _ZN10QtMobility22QLandmarkExportRequest17setTransferOptionENS_16QLandmarkManager14TransferOptionE@Base 1.1.0
 _ZN10QtMobility22QLandmarkExportRequest9setDeviceEP9QIODevice@Base 1.1.0
 _ZN10QtMobility22QLandmarkExportRequest9setFormatERK7QString@Base 1.1.0
 _ZN10QtMobility22QLandmarkExportRequestC1EPNS_16QLandmarkManagerEP7QObject@Base 1.1.0
 _ZN10QtMobility22QLandmarkExportRequestC2EPNS_16QLandmarkManagerEP7QObject@Base 1.1.0
 _ZN10QtMobility22QLandmarkExportRequestD0Ev@Base 1.1.0
 _ZN10QtMobility22QLandmarkExportRequestD1Ev@Base 1.1.0
 _ZN10QtMobility22QLandmarkExportRequestD2Ev@Base 1.1.0
 _ZN10QtMobility22QLandmarkImportRequest11qt_metacallEN11QMetaObject4CallEiPPv@Base 1.1.0
 _ZN10QtMobility22QLandmarkImportRequest11qt_metacastEPKc@Base 1.1.0
 _ZN10QtMobility22QLandmarkImportRequest11setFileNameERK7QString@Base 1.1.0
 _ZN10QtMobility22QLandmarkImportRequest13setCategoryIdERKNS_19QLandmarkCategoryIdE@Base 1.1.0
 _ZN10QtMobility22QLandmarkImportRequest16staticMetaObjectE@Base 1.1.0
 _ZN10QtMobility22QLandmarkImportRequest17setTransferOptionENS_16QLandmarkManager14TransferOptionE@Base 1.1.0
 _ZN10QtMobility22QLandmarkImportRequest9setDeviceEP9QIODevice@Base 1.1.0
 _ZN10QtMobility22QLandmarkImportRequest9setFormatERK7QString@Base 1.1.0
 _ZN10QtMobility22QLandmarkImportRequestC1EPNS_16QLandmarkManagerEP7QObject@Base 1.1.0
 _ZN10QtMobility22QLandmarkImportRequestC2EPNS_16QLandmarkManagerEP7QObject@Base 1.1.0
 _ZN10QtMobility22QLandmarkImportRequestD0Ev@Base 1.1.0
 _ZN10QtMobility22QLandmarkImportRequestD1Ev@Base 1.1.0
 _ZN10QtMobility22QLandmarkImportRequestD2Ev@Base 1.1.0
 _ZN10QtMobility22QLandmarkManagerEngine10testFilterERKNS_15QLandmarkFilterERKNS_9QLandmarkE@Base 1.1.0
 _ZN10QtMobility22QLandmarkManagerEngine11compareNameERKNS_9QLandmarkES3_RKNS_17QLandmarkNameSortE@Base 1.1.0
 _ZN10QtMobility22QLandmarkManagerEngine11dataChangedEv@Base 1.1.0
 _ZN10QtMobility22QLandmarkManagerEngine11qt_metacallEN11QMetaObject4CallEiPPv@Base 1.1.0
 _ZN10QtMobility22QLandmarkManagerEngine11qt_metacastEPKc@Base 1.1.0
 _ZN10QtMobility22QLandmarkManagerEngine12saveCategoryEPNS_17QLandmarkCategoryEPNS_16QLandmarkManager5ErrorEP7QString@Base 1.1.0
 _ZN10QtMobility22QLandmarkManagerEngine12saveLandmarkEPNS_9QLandmarkEPNS_16QLandmarkManager5ErrorEP7QString@Base 1.1.0
 _ZN10QtMobility22QLandmarkManagerEngine12startRequestEPNS_24QLandmarkAbstractRequestE@Base 1.1.0
 _ZN10QtMobility22QLandmarkManagerEngine13cancelRequestEPNS_24QLandmarkAbstractRequestE@Base 1.1.0
 _ZN10QtMobility22QLandmarkManagerEngine13saveLandmarksEP5QListINS_9QLandmarkEEP4QMapIiNS_16QLandmarkManager5ErrorEEPS7_P7QString@Base 1.1.0
 _ZN10QtMobility22QLandmarkManagerEngine13sortLandmarksERK5QListINS_9QLandmarkEERKS1_INS_18QLandmarkSortOrderEE@Base 1.1.0
 _ZN10QtMobility22QLandmarkManagerEngine14landmarksAddedERK5QListINS_11QLandmarkIdEE@Base 1.1.0
 _ZN10QtMobility22QLandmarkManagerEngine14removeCategoryERKNS_19QLandmarkCategoryIdEPNS_16QLandmarkManager5ErrorEP7QString@Base 1.1.0
 _ZN10QtMobility22QLandmarkManagerEngine14removeLandmarkERKNS_11QLandmarkIdEPNS_16QLandmarkManager5ErrorEP7QString@Base 1.1.0
 _ZN10QtMobility22QLandmarkManagerEngine15categoriesAddedERK5QListINS_19QLandmarkCategoryIdEE@Base 1.1.0
 _ZN10QtMobility22QLandmarkManagerEngine15compareLandmarkERKNS_9QLandmarkES3_RK5QListINS_18QLandmarkSortOrderEE@Base 1.1.0
 _ZN10QtMobility22QLandmarkManagerEngine15importLandmarksEP9QIODeviceRK7QStringNS_16QLandmarkManager14TransferOptionERKNS_19QLandmarkCategoryIdEPNS6_5ErrorEPS3_@Base 1.1.0
 _ZN10QtMobility22QLandmarkManagerEngine15removeLandmarksERK5QListINS_11QLandmarkIdEEP4QMapIiNS_16QLandmarkManager5ErrorEEPS8_P7QString@Base 1.1.0
 _ZN10QtMobility22QLandmarkManagerEngine16landmarksChangedERK5QListINS_11QLandmarkIdEE@Base 1.1.0
 _ZN10QtMobility22QLandmarkManagerEngine16landmarksRemovedERK5QListINS_11QLandmarkIdEE@Base 1.1.0
 _ZN10QtMobility22QLandmarkManagerEngine16requestDestroyedEPNS_24QLandmarkAbstractRequestE@Base 1.1.0
 _ZN10QtMobility22QLandmarkManagerEngine16staticMetaObjectE@Base 1.1.0
 _ZN10QtMobility22QLandmarkManagerEngine17categoriesChangedERK5QListINS_19QLandmarkCategoryIdEE@Base 1.1.0
 _ZN10QtMobility22QLandmarkManagerEngine17categoriesRemovedERK5QListINS_19QLandmarkCategoryIdEE@Base 1.1.0
 _ZN10QtMobility22QLandmarkManagerEngine18updateRequestStateEPNS_24QLandmarkAbstractRequestENS1_5StateE@Base 1.1.0
 _ZN10QtMobility22QLandmarkManagerEngine22waitForRequestFinishedEPNS_24QLandmarkAbstractRequestEi@Base 1.1.0
 _ZN10QtMobility22QLandmarkManagerEngine25updateLandmarkSaveRequestEPNS_20QLandmarkSaveRequestERK5QListINS_9QLandmarkEENS_16QLandmarkManager5ErrorERK7QStringRK4QMapIiS9_ENS_24QLandmarkAbstractRequest5StateE@Base 1.1.0
 _ZN10QtMobility22QLandmarkManagerEngine26updateLandmarkFetchRequestEPNS_21QLandmarkFetchRequestERK5QListINS_9QLandmarkEENS_16QLandmarkManager5ErrorERK7QStringNS_24QLandmarkAbstractRequest5StateE@Base 1.1.0
 _ZN10QtMobility22QLandmarkManagerEngine27updateLandmarkExportRequestEPNS_22QLandmarkExportRequestENS_16QLandmarkManager5ErrorERK7QStringNS_24QLandmarkAbstractRequest5StateE@Base 1.1.0
 _ZN10QtMobility22QLandmarkManagerEngine27updateLandmarkImportRequestEPNS_22QLandmarkImportRequestERK5QListINS_11QLandmarkIdEENS_16QLandmarkManager5ErrorERK7QStringNS_24QLandmarkAbstractRequest5StateE@Base 1.1.0
 _ZN10QtMobility22QLandmarkManagerEngine27updateLandmarkRemoveRequestEPNS_22QLandmarkRemoveRequestENS_16QLandmarkManager5ErrorERK7QStringRK4QMapIiS4_ENS_24QLandmarkAbstractRequest5StateE@Base 1.1.0
 _ZN10QtMobility22QLandmarkManagerEngine28updateLandmarkIdFetchRequestEPNS_23QLandmarkIdFetchRequestERK5QListINS_11QLandmarkIdEENS_16QLandmarkManager5ErrorERK7QStringNS_24QLandmarkAbstractRequest5StateE@Base 1.1.0
 _ZN10QtMobility22QLandmarkManagerEngine30updateLandmarkFetchByIdRequestEPNS_25QLandmarkFetchByIdRequestERK5QListINS_9QLandmarkEENS_16QLandmarkManager5ErrorERK7QStringRK4QMapIiS9_ENS_24QLandmarkAbstractRequest5StateE@Base 1.1.0
 _ZN10QtMobility22QLandmarkManagerEngine33updateLandmarkCategorySaveRequestEPNS_28QLandmarkCategorySaveRequestERK5QListINS_17QLandmarkCategoryEENS_16QLandmarkManager5ErrorERK7QStringRK4QMapIiS9_ENS_24QLandmarkAbstractRequest5StateE@Base 1.1.0
 _ZN10QtMobility22QLandmarkManagerEngine34updateLandmarkCategoryFetchRequestEPNS_29QLandmarkCategoryFetchRequestERK5QListINS_17QLandmarkCategoryEENS_16QLandmarkManager5ErrorERK7QStringNS_24QLandmarkAbstractRequest5StateE@Base 1.1.0
 _ZN10QtMobility22QLandmarkManagerEngine35updateLandmarkCategoryRemoveRequestEPNS_30QLandmarkCategoryRemoveRequestENS_16QLandmarkManager5ErrorERK7QStringRK4QMapIiS4_ENS_24QLandmarkAbstractRequest5StateE@Base 1.1.0
 _ZN10QtMobility22QLandmarkManagerEngine36updateLandmarkCategoryIdFetchRequestEPNS_31QLandmarkCategoryIdFetchRequestERK5QListINS_19QLandmarkCategoryIdEENS_16QLandmarkManager5ErrorERK7QStringNS_24QLandmarkAbstractRequest5StateE@Base 1.1.0
 _ZN10QtMobility22QLandmarkManagerEngine38updateLandmarkCategoryFetchByIdRequestEPNS_33QLandmarkCategoryFetchByIdRequestERK5QListINS_17QLandmarkCategoryEENS_16QLandmarkManager5ErrorERK7QStringRK4QMapIiS9_ENS_24QLandmarkAbstractRequest5StateE@Base 1.1.0
 _ZN10QtMobility22QLandmarkManagerEngine9addSortedEP5QListINS_9QLandmarkEERKS2_RKS1_INS_18QLandmarkSortOrderEE@Base 1.1.0
 _ZN10QtMobility22QLandmarkManagerEngineC1Ev@Base 1.1.0
 _ZN10QtMobility22QLandmarkManagerEngineC2Ev@Base 1.1.0
 _ZN10QtMobility22QLandmarkManagerEngineD0Ev@Base 1.1.0
 _ZN10QtMobility22QLandmarkManagerEngineD1Ev@Base 1.1.0
 _ZN10QtMobility22QLandmarkManagerEngineD2Ev@Base 1.1.0
 _ZN10QtMobility22QLandmarkRemoveRequest11qt_metacallEN11QMetaObject4CallEiPPv@Base 1.1.0
 _ZN10QtMobility22QLandmarkRemoveRequest11qt_metacastEPKc@Base 1.1.0
 _ZN10QtMobility22QLandmarkRemoveRequest11setLandmarkERKNS_9QLandmarkE@Base 1.1.0
 _ZN10QtMobility22QLandmarkRemoveRequest12setLandmarksERK5QListINS_9QLandmarkEE@Base 1.1.0
 _ZN10QtMobility22QLandmarkRemoveRequest13setLandmarkIdERKNS_11QLandmarkIdE@Base 1.1.0
 _ZN10QtMobility22QLandmarkRemoveRequest14setLandmarkIdsERK5QListINS_11QLandmarkIdEE@Base 1.1.0
 _ZN10QtMobility22QLandmarkRemoveRequest16staticMetaObjectE@Base 1.1.0
 _ZN10QtMobility22QLandmarkRemoveRequestC1EPNS_16QLandmarkManagerEP7QObject@Base 1.1.0
 _ZN10QtMobility22QLandmarkRemoveRequestC2EPNS_16QLandmarkManagerEP7QObject@Base 1.1.0
 _ZN10QtMobility22QLandmarkRemoveRequestD0Ev@Base 1.1.0
 _ZN10QtMobility22QLandmarkRemoveRequestD1Ev@Base 1.1.0
 _ZN10QtMobility22QLandmarkRemoveRequestD2Ev@Base 1.1.0
 _ZN10QtMobility23QGeoSatelliteInfoSource11qt_metacallEN11QMetaObject4CallEiPPv@Base 1.1.0
 _ZN10QtMobility23QGeoSatelliteInfoSource11qt_metacastEPKc@Base 1.1.0
 _ZN10QtMobility23QGeoSatelliteInfoSource12createSourceERK7QStringP7QObject@Base 1.2.0
 _ZN10QtMobility23QGeoSatelliteInfoSource14requestTimeoutEv@Base 1.1.0
 _ZN10QtMobility23QGeoSatelliteInfoSource16availableSourcesEv@Base 1.2.0
 _ZN10QtMobility23QGeoSatelliteInfoSource16staticMetaObjectE@Base 1.1.0
 _ZN10QtMobility23QGeoSatelliteInfoSource19createDefaultSourceEP7QObject@Base 1.1.0
 _ZN10QtMobility23QGeoSatelliteInfoSource22satellitesInUseUpdatedERK5QListINS_17QGeoSatelliteInfoEE@Base 1.1.0
 _ZN10QtMobility23QGeoSatelliteInfoSource23satellitesInViewUpdatedERK5QListINS_17QGeoSatelliteInfoEE@Base 1.1.0
 _ZN10QtMobility23QGeoSatelliteInfoSourceC1EP7QObject@Base 1.1.0
 _ZN10QtMobility23QGeoSatelliteInfoSourceC2EP7QObject@Base 1.1.0
#MISSING: 1.2.0# _ZN10QtMobility23QGeoSatelliteInfoSourceD0Ev@Base 1.2.0
#MISSING: 1.2.0# _ZN10QtMobility23QGeoSatelliteInfoSourceD1Ev@Base 1.2.0
#MISSING: 1.2.0# _ZN10QtMobility23QGeoSatelliteInfoSourceD2Ev@Base 1.2.0
 _ZN10QtMobility23QGeoSearchManagerEngine11qt_metacallEN11QMetaObject4CallEiPPv@Base 1.1.0
 _ZN10QtMobility23QGeoSearchManagerEngine11qt_metacastEPKc@Base 1.1.0
 _ZN10QtMobility23QGeoSearchManagerEngine14reverseGeocodeERKNS_14QGeoCoordinateEPNS_16QGeoBoundingAreaE@Base 1.1.0
 _ZN10QtMobility23QGeoSearchManagerEngine14setManagerNameERK7QString@Base 1.1.0
 _ZN10QtMobility23QGeoSearchManagerEngine16staticMetaObjectE@Base 1.1.0
 _ZN10QtMobility23QGeoSearchManagerEngine17setManagerVersionEi@Base 1.1.0
 _ZN10QtMobility23QGeoSearchManagerEngine20setSupportsGeocodingEb@Base 1.1.0
 _ZN10QtMobility23QGeoSearchManagerEngine23setSupportedSearchTypesE6QFlagsINS_17QGeoSearchManager10SearchTypeEE@Base 1.1.0
 _ZN10QtMobility23QGeoSearchManagerEngine25setDefaultLandmarkManagerEPNS_16QLandmarkManagerE@Base 1.1.0
 _ZN10QtMobility23QGeoSearchManagerEngine27setSupportsReverseGeocodingEb@Base 1.1.0
 _ZN10QtMobility23QGeoSearchManagerEngine28addAdditionalLandmarkManagerEPNS_16QLandmarkManagerE@Base 1.1.0
 _ZN10QtMobility23QGeoSearchManagerEngine29setAdditionalLandmarkManagersERK5QListIPNS_16QLandmarkManagerEE@Base 1.1.0
 _ZN10QtMobility23QGeoSearchManagerEngine5errorEPNS_15QGeoSearchReplyENS1_5ErrorE7QString@Base 1.1.0
 _ZN10QtMobility23QGeoSearchManagerEngine6searchERK7QString6QFlagsINS_17QGeoSearchManager10SearchTypeEEiiPNS_16QGeoBoundingAreaE@Base 1.1.0
 _ZN10QtMobility23QGeoSearchManagerEngine7geocodeERKNS_11QGeoAddressEPNS_16QGeoBoundingAreaE@Base 1.1.0
 _ZN10QtMobility23QGeoSearchManagerEngine8finishedEPNS_15QGeoSearchReplyE@Base 1.1.0
 _ZN10QtMobility23QGeoSearchManagerEngine9setLocaleERK7QLocale@Base 1.1.0
 _ZN10QtMobility23QGeoSearchManagerEngineC1ERK4QMapI7QString8QVariantEP7QObject@Base 1.1.0
 _ZN10QtMobility23QGeoSearchManagerEngineC2ERK4QMapI7QString8QVariantEP7QObject@Base 1.1.0
 _ZN10QtMobility23QGeoSearchManagerEngineD0Ev@Base 1.1.0
 _ZN10QtMobility23QGeoSearchManagerEngineD1Ev@Base 1.1.0
 _ZN10QtMobility23QGeoSearchManagerEngineD2Ev@Base 1.1.0
 _ZN10QtMobility23QLandmarkCategoryFilter11setCategoryERKNS_17QLandmarkCategoryE@Base 1.1.0
 _ZN10QtMobility23QLandmarkCategoryFilter13setCategoryIdERKNS_19QLandmarkCategoryIdE@Base 1.1.0
 _ZN10QtMobility23QLandmarkCategoryFilterC1ERKNS_15QLandmarkFilterE@Base 1.1.0
 _ZN10QtMobility23QLandmarkCategoryFilterC1ERKNS_19QLandmarkCategoryIdE@Base 1.1.0
 _ZN10QtMobility23QLandmarkCategoryFilterC2ERKNS_15QLandmarkFilterE@Base 1.1.0
 _ZN10QtMobility23QLandmarkCategoryFilterC2ERKNS_19QLandmarkCategoryIdE@Base 1.1.0
 _ZN10QtMobility23QLandmarkCategoryFilterD0Ev@Base 1.1.0
 _ZN10QtMobility23QLandmarkCategoryFilterD1Ev@Base 1.1.0
 _ZN10QtMobility23QLandmarkCategoryFilterD2Ev@Base 1.1.0
 _ZN10QtMobility23QLandmarkIdFetchRequest10setSortingERK5QListINS_18QLandmarkSortOrderEE@Base 1.1.0
 _ZN10QtMobility23QLandmarkIdFetchRequest10setSortingERKNS_18QLandmarkSortOrderE@Base 1.1.0
 _ZN10QtMobility23QLandmarkIdFetchRequest11qt_metacallEN11QMetaObject4CallEiPPv@Base 1.1.0
 _ZN10QtMobility23QLandmarkIdFetchRequest11qt_metacastEPKc@Base 1.1.0
 _ZN10QtMobility23QLandmarkIdFetchRequest16staticMetaObjectE@Base 1.1.0
 _ZN10QtMobility23QLandmarkIdFetchRequest8setLimitEi@Base 1.1.0
 _ZN10QtMobility23QLandmarkIdFetchRequest9setFilterERKNS_15QLandmarkFilterE@Base 1.1.0
 _ZN10QtMobility23QLandmarkIdFetchRequest9setOffsetEi@Base 1.1.0
 _ZN10QtMobility23QLandmarkIdFetchRequestC1EPNS_16QLandmarkManagerEP7QObject@Base 1.1.0
 _ZN10QtMobility23QLandmarkIdFetchRequestC2EPNS_16QLandmarkManagerEP7QObject@Base 1.1.0
 _ZN10QtMobility23QLandmarkIdFetchRequestD0Ev@Base 1.1.0
 _ZN10QtMobility23QLandmarkIdFetchRequestD1Ev@Base 1.1.0
 _ZN10QtMobility23QLandmarkIdFetchRequestD2Ev@Base 1.1.0
 _ZN10QtMobility23QNmeaPositionInfoSource11qt_metacallEN11QMetaObject4CallEiPPv@Base 1.1.0
 _ZN10QtMobility23QNmeaPositionInfoSource11qt_metacastEPKc@Base 1.1.0
 _ZN10QtMobility23QNmeaPositionInfoSource11stopUpdatesEv@Base 1.1.0
 _ZN10QtMobility23QNmeaPositionInfoSource12startUpdatesEv@Base 1.1.0
 _ZN10QtMobility23QNmeaPositionInfoSource13requestUpdateEi@Base 1.1.0
 _ZN10QtMobility23QNmeaPositionInfoSource16staticMetaObjectE@Base 1.1.0
 _ZN10QtMobility23QNmeaPositionInfoSource17setUpdateIntervalEi@Base 1.1.0
 _ZN10QtMobility23QNmeaPositionInfoSource24parsePosInfoFromNmeaDataEPKciPNS_16QGeoPositionInfoEPb@Base 1.1.0
 _ZN10QtMobility23QNmeaPositionInfoSource9setDeviceEP9QIODevice@Base 1.1.0
 _ZN10QtMobility23QNmeaPositionInfoSourceC1ENS0_10UpdateModeEP7QObject@Base 1.1.0
 _ZN10QtMobility23QNmeaPositionInfoSourceC2ENS0_10UpdateModeEP7QObject@Base 1.1.0
 _ZN10QtMobility23QNmeaPositionInfoSourceD0Ev@Base 1.1.0
 _ZN10QtMobility23QNmeaPositionInfoSourceD1Ev@Base 1.1.0
 _ZN10QtMobility23QNmeaPositionInfoSourceD2Ev@Base 1.1.0
 _ZN10QtMobility24QGeoMappingManagerEngine11qt_metacallEN11QMetaObject4CallEiPPv@Base 1.1.0
 _ZN10QtMobility24QGeoMappingManagerEngine11qt_metacastEPKc@Base 1.1.0
 _ZN10QtMobility24QGeoMappingManagerEngine14setManagerNameERK7QString@Base 1.1.0
 (subst)_ZN10QtMobility24QGeoMappingManagerEngine14setMaximumTiltE{qreal}@Base 1.2.0
 (subst)_ZN10QtMobility24QGeoMappingManagerEngine14setMinimumTiltE{qreal}@Base 1.2.0
 _ZN10QtMobility24QGeoMappingManagerEngine16staticMetaObjectE@Base 1.1.0
 _ZN10QtMobility24QGeoMappingManagerEngine17setManagerVersionEi@Base 1.1.0
 _ZN10QtMobility24QGeoMappingManagerEngine18setSupportsBearingEb@Base 1.2.0
 _ZN10QtMobility24QGeoMappingManagerEngine18setSupportsTiltingEb@Base 1.2.0
 (subst)_ZN10QtMobility24QGeoMappingManagerEngine19setMaximumZoomLevelE{qreal}@Base 1.1.0
 (subst)_ZN10QtMobility24QGeoMappingManagerEngine19setMinimumZoomLevelE{qreal}@Base 1.1.0
 _ZN10QtMobility24QGeoMappingManagerEngine20setSupportedMapTypesERK5QListINS_15QGraphicsGeoMap7MapTypeEE@Base 1.1.0
 _ZN10QtMobility24QGeoMappingManagerEngine27setSupportsCustomMapObjectsEb@Base 1.2.0
 _ZN10QtMobility24QGeoMappingManagerEngine29setSupportedConnectivityModesERK5QListINS_15QGraphicsGeoMap16ConnectivityModeEE@Base 1.1.0
 _ZN10QtMobility24QGeoMappingManagerEngine9setLocaleERK7QLocale@Base 1.1.0
 _ZN10QtMobility24QGeoMappingManagerEngineC1EPNS_31QGeoMappingManagerEnginePrivateEP7QObject@Base 1.1.0
 _ZN10QtMobility24QGeoMappingManagerEngineC1ERK4QMapI7QString8QVariantEP7QObject@Base 1.1.0
 _ZN10QtMobility24QGeoMappingManagerEngineC2EPNS_31QGeoMappingManagerEnginePrivateEP7QObject@Base 1.1.0
 _ZN10QtMobility24QGeoMappingManagerEngineC2ERK4QMapI7QString8QVariantEP7QObject@Base 1.1.0
 _ZN10QtMobility24QGeoMappingManagerEngineD0Ev@Base 1.1.0
 _ZN10QtMobility24QGeoMappingManagerEngineD1Ev@Base 1.1.0
 _ZN10QtMobility24QGeoMappingManagerEngineD2Ev@Base 1.1.0
 _ZN10QtMobility24QGeoRoutingManagerEngine11qt_metacallEN11QMetaObject4CallEiPPv@Base 1.1.0
 _ZN10QtMobility24QGeoRoutingManagerEngine11qt_metacastEPKc@Base 1.1.0
 _ZN10QtMobility24QGeoRoutingManagerEngine11updateRouteERKNS_9QGeoRouteERKNS_14QGeoCoordinateE@Base 1.1.0
 _ZN10QtMobility24QGeoRoutingManagerEngine14setManagerNameERK7QString@Base 1.1.0
 _ZN10QtMobility24QGeoRoutingManagerEngine16staticMetaObjectE@Base 1.1.0
 _ZN10QtMobility24QGeoRoutingManagerEngine17setManagerVersionEi@Base 1.1.0
 _ZN10QtMobility24QGeoRoutingManagerEngine23setSupportedTravelModesE6QFlagsINS_16QGeoRouteRequest10TravelModeEE@Base 1.1.0
 _ZN10QtMobility24QGeoRoutingManagerEngine23setSupportsExcludeAreasEb@Base 1.1.0
 _ZN10QtMobility24QGeoRoutingManagerEngine23setSupportsRouteUpdatesEb@Base 1.1.0
 _ZN10QtMobility24QGeoRoutingManagerEngine24setSupportedFeatureTypesE6QFlagsINS_16QGeoRouteRequest11FeatureTypeEE@Base 1.1.0
 _ZN10QtMobility24QGeoRoutingManagerEngine26setSupportedFeatureWeightsE6QFlagsINS_16QGeoRouteRequest13FeatureWeightEE@Base 1.1.0
 _ZN10QtMobility24QGeoRoutingManagerEngine26setSupportedSegmentDetailsE6QFlagsINS_16QGeoRouteRequest13SegmentDetailEE@Base 1.1.0
 _ZN10QtMobility24QGeoRoutingManagerEngine27setSupportedManeuverDetailsE6QFlagsINS_16QGeoRouteRequest14ManeuverDetailEE@Base 1.1.0
 _ZN10QtMobility24QGeoRoutingManagerEngine28setSupportsAlternativeRoutesEb@Base 1.1.0
 _ZN10QtMobility24QGeoRoutingManagerEngine30setSupportedRouteOptimizationsE6QFlagsINS_16QGeoRouteRequest17RouteOptimizationEE@Base 1.1.0
 _ZN10QtMobility24QGeoRoutingManagerEngine5errorEPNS_14QGeoRouteReplyENS1_5ErrorE7QString@Base 1.1.0
 _ZN10QtMobility24QGeoRoutingManagerEngine8finishedEPNS_14QGeoRouteReplyE@Base 1.1.0
 _ZN10QtMobility24QGeoRoutingManagerEngine9setLocaleERK7QLocale@Base 1.1.0
 _ZN10QtMobility24QGeoRoutingManagerEngineC1ERK4QMapI7QString8QVariantEP7QObject@Base 1.1.0
 _ZN10QtMobility24QGeoRoutingManagerEngineC2ERK4QMapI7QString8QVariantEP7QObject@Base 1.1.0
 _ZN10QtMobility24QGeoRoutingManagerEngineD0Ev@Base 1.1.0
 _ZN10QtMobility24QGeoRoutingManagerEngineD1Ev@Base 1.1.0
 _ZN10QtMobility24QGeoRoutingManagerEngineD2Ev@Base 1.1.0
 _ZN10QtMobility24QLandmarkAbstractRequest10setManagerEPNS_16QLandmarkManagerE@Base 1.1.0
 _ZN10QtMobility24QLandmarkAbstractRequest11qt_metacallEN11QMetaObject4CallEiPPv@Base 1.1.0
 _ZN10QtMobility24QLandmarkAbstractRequest11qt_metacastEPKc@Base 1.1.0
 _ZN10QtMobility24QLandmarkAbstractRequest12stateChangedENS0_5StateE@Base 1.1.0
 _ZN10QtMobility24QLandmarkAbstractRequest15waitForFinishedEi@Base 1.1.0
 _ZN10QtMobility24QLandmarkAbstractRequest16resultsAvailableEv@Base 1.1.0
 _ZN10QtMobility24QLandmarkAbstractRequest16staticMetaObjectE@Base 1.1.0
 _ZN10QtMobility24QLandmarkAbstractRequest5startEv@Base 1.1.0
 _ZN10QtMobility24QLandmarkAbstractRequest5stateEv@Base 1.1.0
 _ZN10QtMobility24QLandmarkAbstractRequest6cancelEv@Base 1.1.0
 _ZN10QtMobility24QLandmarkAbstractRequestC1EPNS_16QLandmarkManagerEP7QObject@Base 1.1.0
 _ZN10QtMobility24QLandmarkAbstractRequestC1EPNS_31QLandmarkAbstractRequestPrivateEP7QObject@Base 1.1.0
 _ZN10QtMobility24QLandmarkAbstractRequestC2EPNS_16QLandmarkManagerEP7QObject@Base 1.1.0
 _ZN10QtMobility24QLandmarkAbstractRequestC2EPNS_31QLandmarkAbstractRequestPrivateEP7QObject@Base 1.1.0
 _ZN10QtMobility24QLandmarkAbstractRequestD0Ev@Base 1.1.0
 _ZN10QtMobility24QLandmarkAbstractRequestD1Ev@Base 1.1.0
 _ZN10QtMobility24QLandmarkAbstractRequestD2Ev@Base 1.1.0
 _ZN10QtMobility24QLandmarkAttributeFilter12setAttributeERK7QStringRK8QVariant6QFlagsINS_15QLandmarkFilter9MatchFlagEE@Base 1.1.0
 _ZN10QtMobility24QLandmarkAttributeFilter13setAttributesERK11QStringListRK8QVariant6QFlagsINS_15QLandmarkFilter9MatchFlagEE@Base 1.1.0
 _ZN10QtMobility24QLandmarkAttributeFilter15clearAttributesEv@Base 1.1.0
 _ZN10QtMobility24QLandmarkAttributeFilter15removeAttributeERK7QString@Base 1.1.0
 _ZN10QtMobility24QLandmarkAttributeFilter16setOperationTypeENS0_13OperationTypeE@Base 1.1.0
 _ZN10QtMobility24QLandmarkAttributeFilterC1ERKNS_15QLandmarkFilterE@Base 1.1.0
 _ZN10QtMobility24QLandmarkAttributeFilterC1Ev@Base 1.1.0
 _ZN10QtMobility24QLandmarkAttributeFilterC2ERKNS_15QLandmarkFilterE@Base 1.1.0
 _ZN10QtMobility24QLandmarkAttributeFilterC2Ev@Base 1.1.0
 _ZN10QtMobility24QLandmarkAttributeFilterD0Ev@Base 1.1.0
 _ZN10QtMobility24QLandmarkAttributeFilterD1Ev@Base 1.1.0
 _ZN10QtMobility24QLandmarkAttributeFilterD2Ev@Base 1.1.0
 _ZN10QtMobility24QLandmarkProximityFilter14boundingCircleEv@Base 1.1.0
 _ZN10QtMobility24QLandmarkProximityFilter17setBoundingCircleERKNS_18QGeoBoundingCircleE@Base 1.1.0
 _ZN10QtMobility24QLandmarkProximityFilter9setCenterERKNS_14QGeoCoordinateE@Base 1.1.0
 (subst)_ZN10QtMobility24QLandmarkProximityFilter9setRadiusE{qreal}@Base 1.1.0
 (subst)_ZN10QtMobility24QLandmarkProximityFilterC1ERKNS_14QGeoCoordinateE{qreal}@Base 1.1.0
 _ZN10QtMobility24QLandmarkProximityFilterC1ERKNS_15QLandmarkFilterE@Base 1.1.0
 _ZN10QtMobility24QLandmarkProximityFilterC1ERKNS_18QGeoBoundingCircleE@Base 1.1.0
 (subst)_ZN10QtMobility24QLandmarkProximityFilterC2ERKNS_14QGeoCoordinateE{qreal}@Base 1.1.0
 _ZN10QtMobility24QLandmarkProximityFilterC2ERKNS_15QLandmarkFilterE@Base 1.1.0
 _ZN10QtMobility24QLandmarkProximityFilterC2ERKNS_18QGeoBoundingCircleE@Base 1.1.0
 _ZN10QtMobility24QLandmarkProximityFilterD0Ev@Base 1.1.0
 _ZN10QtMobility24QLandmarkProximityFilterD1Ev@Base 1.1.0
 _ZN10QtMobility24QLandmarkProximityFilterD2Ev@Base 1.1.0
 _ZN10QtMobility25QLandmarkFetchByIdRequest11qt_metacallEN11QMetaObject4CallEiPPv@Base 1.1.0
 _ZN10QtMobility25QLandmarkFetchByIdRequest11qt_metacastEPKc@Base 1.1.0
 _ZN10QtMobility25QLandmarkFetchByIdRequest13setLandmarkIdERKNS_11QLandmarkIdE@Base 1.1.0
 _ZN10QtMobility25QLandmarkFetchByIdRequest14setLandmarkIdsERK5QListINS_11QLandmarkIdEE@Base 1.1.0
 _ZN10QtMobility25QLandmarkFetchByIdRequest16staticMetaObjectE@Base 1.1.0
 _ZN10QtMobility25QLandmarkFetchByIdRequestC1EPNS_16QLandmarkManagerEP7QObject@Base 1.1.0
 _ZN10QtMobility25QLandmarkFetchByIdRequestC2EPNS_16QLandmarkManagerEP7QObject@Base 1.1.0
 _ZN10QtMobility25QLandmarkFetchByIdRequestD0Ev@Base 1.1.0
 _ZN10QtMobility25QLandmarkFetchByIdRequestD1Ev@Base 1.1.0
 _ZN10QtMobility25QLandmarkFetchByIdRequestD2Ev@Base 1.1.0
 _ZN10QtMobility27QLandmarkIntersectionFilter10setFiltersERK5QListINS_15QLandmarkFilterEE@Base 1.1.0
 _ZN10QtMobility27QLandmarkIntersectionFilter5clearEv@Base 1.1.0
 _ZN10QtMobility27QLandmarkIntersectionFilter6appendERKNS_15QLandmarkFilterE@Base 1.1.0
 _ZN10QtMobility27QLandmarkIntersectionFilter6removeERKNS_15QLandmarkFilterE@Base 1.1.0
 _ZN10QtMobility27QLandmarkIntersectionFilter7prependERKNS_15QLandmarkFilterE@Base 1.1.0
 _ZN10QtMobility27QLandmarkIntersectionFilterC1ERKNS_15QLandmarkFilterE@Base 1.1.0
 _ZN10QtMobility27QLandmarkIntersectionFilterC1Ev@Base 1.1.0
 _ZN10QtMobility27QLandmarkIntersectionFilterC2ERKNS_15QLandmarkFilterE@Base 1.1.0
 _ZN10QtMobility27QLandmarkIntersectionFilterC2Ev@Base 1.1.0
 _ZN10QtMobility27QLandmarkIntersectionFilterD0Ev@Base 1.1.0
 _ZN10QtMobility27QLandmarkIntersectionFilterD1Ev@Base 1.1.0
 _ZN10QtMobility27QLandmarkIntersectionFilterD2Ev@Base 1.1.0
 _ZN10QtMobility27QLandmarkIntersectionFilterlsERKNS_15QLandmarkFilterE@Base 1.1.0
 _ZN10QtMobility28QLandmarkCategorySaveRequest11qt_metacallEN11QMetaObject4CallEiPPv@Base 1.1.0
 _ZN10QtMobility28QLandmarkCategorySaveRequest11qt_metacastEPKc@Base 1.1.0
 _ZN10QtMobility28QLandmarkCategorySaveRequest11setCategoryERKNS_17QLandmarkCategoryE@Base 1.1.0
 _ZN10QtMobility28QLandmarkCategorySaveRequest13setCategoriesERK5QListINS_17QLandmarkCategoryEE@Base 1.1.0
 _ZN10QtMobility28QLandmarkCategorySaveRequest16staticMetaObjectE@Base 1.1.0
 _ZN10QtMobility28QLandmarkCategorySaveRequestC1EPNS_16QLandmarkManagerEP7QObject@Base 1.1.0
 _ZN10QtMobility28QLandmarkCategorySaveRequestC2EPNS_16QLandmarkManagerEP7QObject@Base 1.1.0
 _ZN10QtMobility28QLandmarkCategorySaveRequestD0Ev@Base 1.1.0
 _ZN10QtMobility28QLandmarkCategorySaveRequestD1Ev@Base 1.1.0
 _ZN10QtMobility28QLandmarkCategorySaveRequestD2Ev@Base 1.1.0
 _ZN10QtMobility29QGeoPositionInfoSourceFactoryD0Ev@Base 1.2.0
 _ZN10QtMobility29QGeoPositionInfoSourceFactoryD1Ev@Base 1.2.0
 _ZN10QtMobility29QGeoPositionInfoSourceFactoryD2Ev@Base 1.2.0
 _ZN10QtMobility29QGeoTiledMappingManagerEngine11qt_metacallEN11QMetaObject4CallEiPPv@Base 1.1.0
 _ZN10QtMobility29QGeoTiledMappingManagerEngine11qt_metacastEPKc@Base 1.1.0
 _ZN10QtMobility29QGeoTiledMappingManagerEngine11setTileSizeERK5QSize@Base 1.1.0
 _ZN10QtMobility29QGeoTiledMappingManagerEngine13createMapDataEv@Base 1.1.0
 _ZN10QtMobility29QGeoTiledMappingManagerEngine16staticMetaObjectE@Base 1.1.0
 _ZN10QtMobility29QGeoTiledMappingManagerEngineC1ERK4QMapI7QString8QVariantEP7QObject@Base 1.1.0
 _ZN10QtMobility29QGeoTiledMappingManagerEngineC2ERK4QMapI7QString8QVariantEP7QObject@Base 1.1.0
 _ZN10QtMobility29QGeoTiledMappingManagerEngineD0Ev@Base 1.1.0
 _ZN10QtMobility29QGeoTiledMappingManagerEngineD1Ev@Base 1.1.0
 _ZN10QtMobility29QGeoTiledMappingManagerEngineD2Ev@Base 1.1.0
 _ZN10QtMobility29QLandmarkCategoryFetchRequest10setSortingERKNS_17QLandmarkNameSortE@Base 1.1.0
 _ZN10QtMobility29QLandmarkCategoryFetchRequest11qt_metacallEN11QMetaObject4CallEiPPv@Base 1.1.0
 _ZN10QtMobility29QLandmarkCategoryFetchRequest11qt_metacastEPKc@Base 1.1.0
 _ZN10QtMobility29QLandmarkCategoryFetchRequest16staticMetaObjectE@Base 1.1.0
 _ZN10QtMobility29QLandmarkCategoryFetchRequest8setLimitEi@Base 1.1.0
 _ZN10QtMobility29QLandmarkCategoryFetchRequest9setOffsetEi@Base 1.1.0
 _ZN10QtMobility29QLandmarkCategoryFetchRequestC1EPNS_16QLandmarkManagerEP7QObject@Base 1.1.0
 _ZN10QtMobility29QLandmarkCategoryFetchRequestC2EPNS_16QLandmarkManagerEP7QObject@Base 1.1.0
 _ZN10QtMobility29QLandmarkCategoryFetchRequestD0Ev@Base 1.1.0
 _ZN10QtMobility29QLandmarkCategoryFetchRequestD1Ev@Base 1.1.0
 _ZN10QtMobility29QLandmarkCategoryFetchRequestD2Ev@Base 1.1.0
 _ZN10QtMobility29QLandmarkManagerEngineFactoryD0Ev@Base 1.1.0
 _ZN10QtMobility29QLandmarkManagerEngineFactoryD1Ev@Base 1.1.0
 _ZN10QtMobility29QLandmarkManagerEngineFactoryD2Ev@Base 1.1.0
 _ZN10QtMobility30QLandmarkCategoryRemoveRequest11qt_metacallEN11QMetaObject4CallEiPPv@Base 1.1.0
 _ZN10QtMobility30QLandmarkCategoryRemoveRequest11qt_metacastEPKc@Base 1.1.0
 _ZN10QtMobility30QLandmarkCategoryRemoveRequest11setCategoryERKNS_17QLandmarkCategoryE@Base 1.1.0
 _ZN10QtMobility30QLandmarkCategoryRemoveRequest13setCategoriesERK5QListINS_17QLandmarkCategoryEE@Base 1.1.0
 _ZN10QtMobility30QLandmarkCategoryRemoveRequest13setCategoryIdERKNS_19QLandmarkCategoryIdE@Base 1.1.0
 _ZN10QtMobility30QLandmarkCategoryRemoveRequest14setCategoryIdsERK5QListINS_19QLandmarkCategoryIdEE@Base 1.1.0
 _ZN10QtMobility30QLandmarkCategoryRemoveRequest16staticMetaObjectE@Base 1.1.0
 _ZN10QtMobility30QLandmarkCategoryRemoveRequestC1EPNS_16QLandmarkManagerEP7QObject@Base 1.1.0
 _ZN10QtMobility30QLandmarkCategoryRemoveRequestC2EPNS_16QLandmarkManagerEP7QObject@Base 1.1.0
 _ZN10QtMobility30QLandmarkCategoryRemoveRequestD0Ev@Base 1.1.0
 _ZN10QtMobility30QLandmarkCategoryRemoveRequestD1Ev@Base 1.1.0
 _ZN10QtMobility30QLandmarkCategoryRemoveRequestD2Ev@Base 1.1.0
 _ZN10QtMobility31QLandmarkCategoryIdFetchRequest10setSortingERKNS_17QLandmarkNameSortE@Base 1.1.0
 _ZN10QtMobility31QLandmarkCategoryIdFetchRequest11qt_metacallEN11QMetaObject4CallEiPPv@Base 1.1.0
 _ZN10QtMobility31QLandmarkCategoryIdFetchRequest11qt_metacastEPKc@Base 1.1.0
 _ZN10QtMobility31QLandmarkCategoryIdFetchRequest16staticMetaObjectE@Base 1.1.0
 _ZN10QtMobility31QLandmarkCategoryIdFetchRequest8setLimitEi@Base 1.1.0
 _ZN10QtMobility31QLandmarkCategoryIdFetchRequest9setOffsetEi@Base 1.1.0
 _ZN10QtMobility31QLandmarkCategoryIdFetchRequestC1EPNS_16QLandmarkManagerEP7QObject@Base 1.1.0
 _ZN10QtMobility31QLandmarkCategoryIdFetchRequestC2EPNS_16QLandmarkManagerEP7QObject@Base 1.1.0
 _ZN10QtMobility31QLandmarkCategoryIdFetchRequestD0Ev@Base 1.1.0
 _ZN10QtMobility31QLandmarkCategoryIdFetchRequestD1Ev@Base 1.1.0
 _ZN10QtMobility31QLandmarkCategoryIdFetchRequestD2Ev@Base 1.1.0
 _ZN10QtMobility33QLandmarkCategoryFetchByIdRequest11qt_metacallEN11QMetaObject4CallEiPPv@Base 1.1.0
 _ZN10QtMobility33QLandmarkCategoryFetchByIdRequest11qt_metacastEPKc@Base 1.1.0
 _ZN10QtMobility33QLandmarkCategoryFetchByIdRequest13setCategoryIdERKNS_19QLandmarkCategoryIdE@Base 1.1.0
 _ZN10QtMobility33QLandmarkCategoryFetchByIdRequest14setCategoryIdsERK5QListINS_19QLandmarkCategoryIdEE@Base 1.1.0
 _ZN10QtMobility33QLandmarkCategoryFetchByIdRequest16staticMetaObjectE@Base 1.1.0
 _ZN10QtMobility33QLandmarkCategoryFetchByIdRequestC1EPNS_16QLandmarkManagerEP7QObject@Base 1.1.0
 _ZN10QtMobility33QLandmarkCategoryFetchByIdRequestC2EPNS_16QLandmarkManagerEP7QObject@Base 1.1.0
 _ZN10QtMobility33QLandmarkCategoryFetchByIdRequestD0Ev@Base 1.1.0
 _ZN10QtMobility33QLandmarkCategoryFetchByIdRequestD1Ev@Base 1.1.0
 _ZN10QtMobility33QLandmarkCategoryFetchByIdRequestD2Ev@Base 1.1.0
 _ZN10QtMobility5qHashERKNS_19QGeoTiledMapRequestE@Base 1.1.0
 _ZN10QtMobility9QGeoPlace10setAddressERKNS_11QGeoAddressE@Base 1.1.0
 _ZN10QtMobility9QGeoPlace11setViewportERKNS_15QGeoBoundingBoxE@Base 1.1.0
 _ZN10QtMobility9QGeoPlace13setCoordinateERKNS_14QGeoCoordinateE@Base 1.1.0
 _ZN10QtMobility9QGeoPlace6d_funcEv@Base 1.1.0
 _ZN10QtMobility9QGeoPlaceC1EPNS_16QGeoPlacePrivateE@Base 1.1.0
 _ZN10QtMobility9QGeoPlaceC1ERKS0_@Base 1.1.0
 _ZN10QtMobility9QGeoPlaceC1Ev@Base 1.1.0
 _ZN10QtMobility9QGeoPlaceC2EPNS_16QGeoPlacePrivateE@Base 1.1.0
 _ZN10QtMobility9QGeoPlaceC2ERKS0_@Base 1.1.0
 _ZN10QtMobility9QGeoPlaceC2Ev@Base 1.1.0
 _ZN10QtMobility9QGeoPlaceD0Ev@Base 1.1.0
 _ZN10QtMobility9QGeoPlaceD1Ev@Base 1.1.0
 _ZN10QtMobility9QGeoPlaceD2Ev@Base 1.1.0
 _ZN10QtMobility9QGeoPlaceaSERKS0_@Base 1.1.0
 _ZN10QtMobility9QGeoRoute10setRequestERKNS_16QGeoRouteRequestE@Base 1.1.0
 _ZN10QtMobility9QGeoRoute10setRouteIdERK7QString@Base 1.1.0
 (subst)_ZN10QtMobility9QGeoRoute11setDistanceE{qreal}@Base 1.1.0
 _ZN10QtMobility9QGeoRoute13setTravelModeENS_16QGeoRouteRequest10TravelModeE@Base 1.1.0
 _ZN10QtMobility9QGeoRoute13setTravelTimeEi@Base 1.1.0
 _ZN10QtMobility9QGeoRoute20setFirstRouteSegmentERKNS_16QGeoRouteSegmentE@Base 1.1.0
 _ZN10QtMobility9QGeoRoute7setPathERK5QListINS_14QGeoCoordinateEE@Base 1.1.0
 _ZN10QtMobility9QGeoRoute9setBoundsERKNS_15QGeoBoundingBoxE@Base 1.1.0
 _ZN10QtMobility9QGeoRouteC1ERKS0_@Base 1.1.0
 _ZN10QtMobility9QGeoRouteC1Ev@Base 1.1.0
 _ZN10QtMobility9QGeoRouteC2ERKS0_@Base 1.1.0
 _ZN10QtMobility9QGeoRouteC2Ev@Base 1.1.0
 _ZN10QtMobility9QGeoRouteD1Ev@Base 1.1.0
 _ZN10QtMobility9QGeoRouteD2Ev@Base 1.1.0
 _ZN10QtMobility9QGeoRouteaSERKS0_@Base 1.1.0
 _ZN10QtMobility9QLandmark10setIconUrlERK4QUrl@Base 1.1.0
 _ZN10QtMobility9QLandmark13addCategoryIdERKNS_19QLandmarkCategoryIdE@Base 1.1.0
 _ZN10QtMobility9QLandmark13setLandmarkIdERKNS_11QLandmarkIdE@Base 1.1.0
 _ZN10QtMobility9QLandmark14setCategoryIdsERK5QListINS_19QLandmarkCategoryIdEE@Base 1.1.0
 _ZN10QtMobility9QLandmark14setDescriptionERK7QString@Base 1.1.0
 _ZN10QtMobility9QLandmark14setPhoneNumberERK7QString@Base 1.1.0
 _ZN10QtMobility9QLandmark16removeCategoryIdERKNS_19QLandmarkCategoryIdE@Base 1.1.0
 _ZN10QtMobility9QLandmark5clearEv@Base 1.1.0
 _ZN10QtMobility9QLandmark6d_funcEv@Base 1.1.0
 _ZN10QtMobility9QLandmark6setUrlERK4QUrl@Base 1.1.0
 _ZN10QtMobility9QLandmark7setNameERK7QString@Base 1.1.0
 (subst)_ZN10QtMobility9QLandmark9setRadiusE{qreal}@Base 1.1.0
 _ZN10QtMobility9QLandmarkC1ERKNS_9QGeoPlaceE@Base 1.1.0
 _ZN10QtMobility9QLandmarkC1ERKS0_@Base 1.1.0
 _ZN10QtMobility9QLandmarkC1Ev@Base 1.1.0
 _ZN10QtMobility9QLandmarkC2ERKNS_9QGeoPlaceE@Base 1.1.0
 _ZN10QtMobility9QLandmarkC2ERKS0_@Base 1.1.0
 _ZN10QtMobility9QLandmarkC2Ev@Base 1.1.0
 _ZN10QtMobility9QLandmarkD0Ev@Base 1.1.0
 _ZN10QtMobility9QLandmarkD1Ev@Base 1.1.0
 _ZN10QtMobility9QLandmarkD2Ev@Base 1.1.0
 _ZN10QtMobility9QLandmarkaSERKS0_@Base 1.1.0
 _ZN10QtMobilityanERKNS_15QLandmarkFilterES2_@Base 1.1.0
 _ZN10QtMobilitylsE6QDebugRKNS_14QGeoCoordinateE@Base 1.1.0
 _ZN10QtMobilitylsE6QDebugRKNS_16QGeoPositionInfoE@Base 1.1.0
 _ZN10QtMobilitylsE6QDebugRKNS_17QGeoSatelliteInfoE@Base 1.1.0
 _ZN10QtMobilitylsER11QDataStreamRKNS_14QGeoCoordinateE@Base 1.1.0
 _ZN10QtMobilitylsER11QDataStreamRKNS_16QGeoPositionInfoE@Base 1.1.0
 _ZN10QtMobilitylsER11QDataStreamRKNS_17QGeoSatelliteInfoE@Base 1.1.0
 _ZN10QtMobilityorERKNS_15QLandmarkFilterES2_@Base 1.1.0
 _ZN10QtMobilityrsER11QDataStreamRNS_14QGeoCoordinateE@Base 1.1.0
 _ZN10QtMobilityrsER11QDataStreamRNS_16QGeoPositionInfoE@Base 1.1.0
 _ZN10QtMobilityrsER11QDataStreamRNS_17QGeoSatelliteInfoE@Base 1.1.0
 _ZN11QDataStreamlsEj@Base 1.1.0
 _ZN11QDataStreamrsERj@Base 1.1.0
 _ZN15QBasicAtomicInt3refEv@Base 1.1.0
 _ZN15QBasicAtomicInt5derefEv@Base 1.1.0
#MISSING: 1.2.0# _ZN15QBasicAtomicIntC1Ev@Base 1.2.0
#MISSING: 1.2.0# _ZN15QBasicAtomicIntC2Ev@Base 1.2.0
#MISSING: 1.2.0# _ZN24QStyleOptionGraphicsItemD1Ev@Base 1.2.0
#MISSING: 1.2.0# _ZN24QStyleOptionGraphicsItemD2Ev@Base 1.2.0
 _ZN5QCharC1E11QLatin1Char@Base 1.1.0
 _ZN5QCharC1Ei@Base 1.1.0
 _ZN5QCharC2E11QLatin1Char@Base 1.1.0
 _ZN5QCharC2Ei@Base 1.1.0
 _ZN5QRect11moveTopLeftERK6QPoint@Base 1.1.0
 _ZN5QRect7moveTopEi@Base 1.1.0
 _ZN5QRect8moveLeftEi@Base 1.1.0
 _ZN5QRectC1ERK6QPointRK5QSize@Base 1.1.0
 _ZN5QRectC1ERK6QPointS2_@Base 1.1.0
 _ZN5QRectC1Eiiii@Base 1.1.0
 _ZN5QRectC2ERK6QPointRK5QSize@Base 1.1.0
 _ZN5QRectC2ERK6QPointS2_@Base 1.1.0
 _ZN5QRectC2Eiiii@Base 1.1.0
 _ZN5QSizeC1Eii@Base 1.1.0
 _ZN5QSizeC1Ev@Base 1.1.0
 _ZN5QSizeC2Eii@Base 1.1.0
 _ZN5QSizeC2Ev@Base 1.1.0
#MISSING: 1.2.0# _ZN6QDebug6StreamD1Ev@Base 1.2.0
#MISSING: 1.2.0# _ZN6QDebug6StreamD2Ev@Base 1.2.0
 _ZN6QPoint2rxEv@Base 1.1.0
 _ZN6QPoint2ryEv@Base 1.1.0
 _ZN6QPoint4setXEi@Base 1.1.0
 _ZN6QPoint4setYEi@Base 1.1.0
 _ZN6QPointC1Eii@Base 1.1.0
 _ZN6QPointC1Ev@Base 1.1.0
 _ZN6QPointC2Eii@Base 1.1.0
 _ZN6QPointC2Ev@Base 1.1.0
 (subst)_ZN6QRectF8setWidthE{qreal}@Base 1.1.0
 _ZN6QRectFC1ERK5QRect@Base 1.1.0
 _ZN6QRectFC1ERK7QPointFRK6QSizeF@Base 1.1.0
 _ZN6QRectFC1ERK7QPointFS2_@Base 1.1.0
 (subst)_ZN6QRectFC1E{qreal}{qreal}{qreal}{qreal}@Base 1.1.0
 _ZN6QRectFC2ERK5QRect@Base 1.1.0
 _ZN6QRectFC2ERK7QPointFRK6QSizeF@Base 1.1.0
 _ZN6QRectFC2ERK7QPointFS2_@Base 1.1.0
 (subst)_ZN6QRectFC2E{qreal}{qreal}{qreal}{qreal}@Base 1.1.0
 (subst)_ZN6QSizeFC1E{qreal}{qreal}@Base 1.1.0
 (subst)_ZN6QSizeFC2E{qreal}{qreal}@Base 1.1.0
 (subst)_ZN7QPointF4setXE{qreal}@Base 1.1.0
 _ZN7QPointFC1ERK6QPoint@Base 1.1.0
 _ZN7QPointFC1Ev@Base 1.1.0
 (subst)_ZN7QPointFC1E{qreal}{qreal}@Base 1.1.0
 _ZN7QPointFC2ERK6QPoint@Base 1.1.0
 _ZN7QPointFC2Ev@Base 1.1.0
 (subst)_ZN7QPointFC2E{qreal}{qreal}@Base 1.1.0
 _ZN7QString5clearEv@Base 1.1.0
 _ZN9QHashData8willGrowEv@Base 1.1.0
 _ZN9QHashData9firstNodeEv@Base 1.1.0
 _ZN9QHashData9hasShrunkEv@Base 1.1.0
#MISSING: 1.2.0# _ZN9QPolygonFaSERKS_@Base 1.2.0
 _ZNK10QByteArraycvPKcEv@Base 1.1.0
 _ZNK10QtMobility11QGeoAddress11countryCodeEv@Base 1.1.0
 _ZNK10QtMobility11QGeoAddress4cityEv@Base 1.1.0
 _ZNK10QtMobility11QGeoAddress5stateEv@Base 1.1.0
 _ZNK10QtMobility11QGeoAddress6countyEv@Base 1.1.0
 _ZNK10QtMobility11QGeoAddress6streetEv@Base 1.1.0
 _ZNK10QtMobility11QGeoAddress7countryEv@Base 1.1.0
 _ZNK10QtMobility11QGeoAddress7isEmptyEv@Base 1.1.0
 _ZNK10QtMobility11QGeoAddress8districtEv@Base 1.1.0
 _ZNK10QtMobility11QGeoAddress8postcodeEv@Base 1.1.0
 _ZNK10QtMobility11QGeoAddresseqERKS0_@Base 1.1.0
 _ZNK10QtMobility11QGeoMapData10mapObjectsEv@Base 1.1.0
 _ZNK10QtMobility11QGeoMapData10metaObjectEv@Base 1.1.0
 _ZNK10QtMobility11QGeoMapData10windowSizeEv@Base 1.1.0
 _ZNK10QtMobility11QGeoMapData11mapOverlaysEv@Base 1.1.0
 _ZNK10QtMobility11QGeoMapData11maximumTiltEv@Base 1.2.0
 _ZNK10QtMobility11QGeoMapData11minimumTiltEv@Base 1.2.0
 _ZNK10QtMobility11QGeoMapData15supportsBearingEv@Base 1.2.0
 _ZNK10QtMobility11QGeoMapData15supportsTiltingEv@Base 1.2.0
 _ZNK10QtMobility11QGeoMapData16connectivityModeEv@Base 1.1.0
 _ZNK10QtMobility11QGeoMapData20mapObjectsInViewportEv@Base 1.1.0
 _ZNK10QtMobility11QGeoMapData22mapObjectsInScreenRectERK6QRectF@Base 1.1.0
 _ZNK10QtMobility11QGeoMapData26mapObjectsAtScreenPositionERK7QPointF@Base 1.1.0
 _ZNK10QtMobility11QGeoMapData4tiltEv@Base 1.2.0
 _ZNK10QtMobility11QGeoMapData6centerEv@Base 1.1.0
 _ZNK10QtMobility11QGeoMapData6engineEv@Base 1.1.0
 _ZNK10QtMobility11QGeoMapData7bearingEv@Base 1.2.0
 _ZNK10QtMobility11QGeoMapData7mapTypeEv@Base 1.1.0
 _ZNK10QtMobility11QGeoMapData9zoomLevelEv@Base 1.1.0
 _ZNK10QtMobility11QLandmarkId10managerUriEv@Base 1.1.0
 _ZNK10QtMobility11QLandmarkId7isValidEv@Base 1.1.0
 _ZNK10QtMobility11QLandmarkId7localIdEv@Base 1.1.0
 _ZNK10QtMobility11QLandmarkIdeqERKS0_@Base 1.1.0
 _ZNK10QtMobility11QLandmarkIdneERKS0_@Base 1.1.0
 _ZNK10QtMobility12QGeoManeuver15instructionTextEv@Base 1.1.0
 _ZNK10QtMobility12QGeoManeuver21timeToNextInstructionEv@Base 1.1.0
 _ZNK10QtMobility12QGeoManeuver25distanceToNextInstructionEv@Base 1.1.0
 _ZNK10QtMobility12QGeoManeuver7isValidEv@Base 1.1.0
 _ZNK10QtMobility12QGeoManeuver8positionEv@Base 1.1.0
 _ZNK10QtMobility12QGeoManeuver8waypointEv@Base 1.1.0
 _ZNK10QtMobility12QGeoManeuver9directionEv@Base 1.1.0
 _ZNK10QtMobility12QGeoManeuvereqERKS0_@Base 1.1.0
 _ZNK10QtMobility12QGeoManeuverneERKS0_@Base 1.1.0
 _ZNK10QtMobility13QGeoMapObject10isSelectedEv@Base 1.1.0
 _ZNK10QtMobility13QGeoMapObject10metaObjectEv@Base 1.1.0
 _ZNK10QtMobility13QGeoMapObject11boundingBoxEv@Base 1.1.0
 _ZNK10QtMobility13QGeoMapObject13transformTypeEv@Base 1.2.0
 (optional=templinst)_ZNK10QtMobility13QGeoMapObject26qt_check_for_QOBJECT_macroIS0_EEvRKT_@Base 1.2.0
 _ZNK10QtMobility13QGeoMapObject4infoEv@Base 1.1.0
 _ZNK10QtMobility13QGeoMapObject4typeEv@Base 1.1.0
 _ZNK10QtMobility13QGeoMapObject5unitsEv@Base 1.2.0
 _ZNK10QtMobility13QGeoMapObject6originEv@Base 1.2.0
 _ZNK10QtMobility13QGeoMapObject6zValueEv@Base 1.1.0
 _ZNK10QtMobility13QGeoMapObject7mapDataEv@Base 1.1.0
 _ZNK10QtMobility13QGeoMapObject8containsERKNS_14QGeoCoordinateE@Base 1.1.0
 _ZNK10QtMobility13QGeoMapObject9isVisibleEv@Base 1.1.0
 _ZNK10QtMobility13QGeoMapObjectgtERKS0_@Base 1.1.0
 _ZNK10QtMobility13QGeoMapObjectltERKS0_@Base 1.1.0
 _ZNK10QtMobility14QGeoCoordinate10distanceToERKS0_@Base 1.1.0
 (subst)_ZNK10QtMobility14QGeoCoordinate20atDistanceAndAzimuthE{qreal}{qreal}{qreal}@Base 1.2.0
 _ZNK10QtMobility14QGeoCoordinate4typeEv@Base 1.1.0
 _ZNK10QtMobility14QGeoCoordinate7isValidEv@Base 1.1.0
 _ZNK10QtMobility14QGeoCoordinate8altitudeEv@Base 1.1.0
 _ZNK10QtMobility14QGeoCoordinate8latitudeEv@Base 1.1.0
 _ZNK10QtMobility14QGeoCoordinate8toStringENS0_16CoordinateFormatE@Base 1.1.0
 _ZNK10QtMobility14QGeoCoordinate9azimuthToERKS0_@Base 1.1.0
 _ZNK10QtMobility14QGeoCoordinate9longitudeEv@Base 1.1.0
 _ZNK10QtMobility14QGeoCoordinateeqERKS0_@Base 1.1.0
 _ZNK10QtMobility14QGeoMapOverlay7mapDataEv@Base 1.1.0
 _ZNK10QtMobility14QGeoRouteReply10isFinishedEv@Base 1.1.0
 _ZNK10QtMobility14QGeoRouteReply10metaObjectEv@Base 1.1.0
 _ZNK10QtMobility14QGeoRouteReply11errorStringEv@Base 1.1.0
 _ZNK10QtMobility14QGeoRouteReply5errorEv@Base 1.1.0
 _ZNK10QtMobility14QGeoRouteReply6routesEv@Base 1.1.0
 _ZNK10QtMobility14QGeoRouteReply7requestEv@Base 1.1.0
 _ZNK10QtMobility15QGeoAreaMonitor10metaObjectEv@Base 1.1.0
 _ZNK10QtMobility15QGeoAreaMonitor6centerEv@Base 1.1.0
 _ZNK10QtMobility15QGeoAreaMonitor6radiusEv@Base 1.1.0
 _ZNK10QtMobility15QGeoBoundingBox10bottomLeftEv@Base 1.1.0
 _ZNK10QtMobility15QGeoBoundingBox10intersectsERKS0_@Base 1.1.0
 _ZNK10QtMobility15QGeoBoundingBox10translatedEdd@Base 1.1.0
 _ZNK10QtMobility15QGeoBoundingBox11bottomRightEv@Base 1.1.0
 _ZNK10QtMobility15QGeoBoundingBox4typeEv@Base 1.1.0
 _ZNK10QtMobility15QGeoBoundingBox5widthEv@Base 1.1.0
 _ZNK10QtMobility15QGeoBoundingBox6centerEv@Base 1.1.0
 _ZNK10QtMobility15QGeoBoundingBox6heightEv@Base 1.1.0
 _ZNK10QtMobility15QGeoBoundingBox6unitedERKS0_@Base 1.1.0
 _ZNK10QtMobility15QGeoBoundingBox7isEmptyEv@Base 1.1.0
 _ZNK10QtMobility15QGeoBoundingBox7isValidEv@Base 1.1.0
 _ZNK10QtMobility15QGeoBoundingBox7topLeftEv@Base 1.1.0
 _ZNK10QtMobility15QGeoBoundingBox8containsERKNS_14QGeoCoordinateE@Base 1.1.0
 _ZNK10QtMobility15QGeoBoundingBox8containsERKS0_@Base 1.1.0
 _ZNK10QtMobility15QGeoBoundingBox8topRightEv@Base 1.1.0
 _ZNK10QtMobility15QGeoBoundingBoxeqERKS0_@Base 1.1.0
 _ZNK10QtMobility15QGeoBoundingBoxneERKS0_@Base 1.1.0
 _ZNK10QtMobility15QGeoSearchReply10isFinishedEv@Base 1.1.0
 _ZNK10QtMobility15QGeoSearchReply10metaObjectEv@Base 1.1.0
 _ZNK10QtMobility15QGeoSearchReply11errorStringEv@Base 1.1.0
 _ZNK10QtMobility15QGeoSearchReply5errorEv@Base 1.1.0
 _ZNK10QtMobility15QGeoSearchReply5limitEv@Base 1.1.0
 _ZNK10QtMobility15QGeoSearchReply6offsetEv@Base 1.1.0
 _ZNK10QtMobility15QGeoSearchReply6placesEv@Base 1.1.0
 _ZNK10QtMobility15QGeoSearchReply8viewportEv@Base 1.1.0
 _ZNK10QtMobility15QGraphicsGeoMap10mapObjectsEv@Base 1.1.0
 _ZNK10QtMobility15QGraphicsGeoMap10metaObjectEv@Base 1.1.0
 _ZNK10QtMobility15QGraphicsGeoMap11mapOverlaysEv@Base 1.1.0
 _ZNK10QtMobility15QGraphicsGeoMap11maximumTiltEv@Base 1.2.0
 _ZNK10QtMobility15QGraphicsGeoMap11minimumTiltEv@Base 1.2.0
 _ZNK10QtMobility15QGraphicsGeoMap15supportsBearingEv@Base 1.2.0
 _ZNK10QtMobility15QGraphicsGeoMap15supportsTiltingEv@Base 1.2.0
 _ZNK10QtMobility15QGraphicsGeoMap16connectivityModeEv@Base 1.1.0
 _ZNK10QtMobility15QGraphicsGeoMap16maximumZoomLevelEv@Base 1.1.0
 _ZNK10QtMobility15QGraphicsGeoMap16minimumZoomLevelEv@Base 1.1.0
 _ZNK10QtMobility15QGraphicsGeoMap17supportedMapTypesEv@Base 1.1.0
 _ZNK10QtMobility15QGraphicsGeoMap20mapObjectsInViewportEv@Base 1.1.0
 _ZNK10QtMobility15QGraphicsGeoMap22mapObjectsInScreenRectERK6QRectF@Base 1.1.0
 _ZNK10QtMobility15QGraphicsGeoMap24supportsCustomMapObjectsEv@Base 1.2.0
 _ZNK10QtMobility15QGraphicsGeoMap26coordinateToScreenPositionERKNS_14QGeoCoordinateE@Base 1.1.0
 _ZNK10QtMobility15QGraphicsGeoMap26mapObjectsAtScreenPositionERK7QPointF@Base 1.1.0
 _ZNK10QtMobility15QGraphicsGeoMap26screenPositionToCoordinateE7QPointF@Base 1.1.0
 _ZNK10QtMobility15QGraphicsGeoMap26supportedConnectivityModesEv@Base 1.1.0
 _ZNK10QtMobility15QGraphicsGeoMap4tiltEv@Base 1.2.0
 _ZNK10QtMobility15QGraphicsGeoMap5shapeEv@Base 1.1.0
 _ZNK10QtMobility15QGraphicsGeoMap6centerEv@Base 1.1.0
 _ZNK10QtMobility15QGraphicsGeoMap7bearingEv@Base 1.2.0
 _ZNK10QtMobility15QGraphicsGeoMap7mapTypeEv@Base 1.1.0
 _ZNK10QtMobility15QGraphicsGeoMap8viewportEv@Base 1.1.0
 _ZNK10QtMobility15QGraphicsGeoMap9zoomLevelEv@Base 1.1.0
 _ZNK10QtMobility15QLandmarkFilter4typeEv@Base 1.1.0
 _ZNK10QtMobility15QLandmarkFiltereqERKS0_@Base 1.1.0
 _ZNK10QtMobility16QGeoPositionInfo10coordinateEv@Base 1.1.0
 _ZNK10QtMobility16QGeoPositionInfo12hasAttributeENS0_9AttributeE@Base 1.1.0
 _ZNK10QtMobility16QGeoPositionInfo7isValidEv@Base 1.1.0
 _ZNK10QtMobility16QGeoPositionInfo9attributeENS0_9AttributeE@Base 1.1.0
 _ZNK10QtMobility16QGeoPositionInfo9timestampEv@Base 1.1.0
 _ZNK10QtMobility16QGeoPositionInfoeqERKS0_@Base 1.1.0
 _ZNK10QtMobility16QGeoRouteRequest11travelModesEv@Base 1.1.0
 _ZNK10QtMobility16QGeoRouteRequest12excludeAreasEv@Base 1.1.0
 _ZNK10QtMobility16QGeoRouteRequest12featureTypesEv@Base 1.1.0
 _ZNK10QtMobility16QGeoRouteRequest13featureWeightENS0_11FeatureTypeE@Base 1.1.0
 _ZNK10QtMobility16QGeoRouteRequest13segmentDetailEv@Base 1.1.0
 _ZNK10QtMobility16QGeoRouteRequest14maneuverDetailEv@Base 1.1.0
 _ZNK10QtMobility16QGeoRouteRequest17routeOptimizationEv@Base 1.1.0
 _ZNK10QtMobility16QGeoRouteRequest23numberAlternativeRoutesEv@Base 1.1.0
 _ZNK10QtMobility16QGeoRouteRequest9waypointsEv@Base 1.1.0
 _ZNK10QtMobility16QGeoRouteRequesteqERKS0_@Base 1.1.0
 _ZNK10QtMobility16QGeoRouteRequestneERKS0_@Base 1.1.0
 _ZNK10QtMobility16QGeoRouteSegment10travelTimeEv@Base 1.1.0
 _ZNK10QtMobility16QGeoRouteSegment16nextRouteSegmentEv@Base 1.1.0
 _ZNK10QtMobility16QGeoRouteSegment4pathEv@Base 1.1.0
 _ZNK10QtMobility16QGeoRouteSegment7isValidEv@Base 1.1.0
 _ZNK10QtMobility16QGeoRouteSegment8distanceEv@Base 1.1.0
 _ZNK10QtMobility16QGeoRouteSegment8maneuverEv@Base 1.1.0
 _ZNK10QtMobility16QGeoRouteSegmenteqERKS0_@Base 1.1.0
 _ZNK10QtMobility16QGeoRouteSegmentneERKS0_@Base 1.1.0
 _ZNK10QtMobility16QGeoTiledMapData10metaObjectEv@Base 1.1.0
 _ZNK10QtMobility16QGeoTiledMapData10zoomFactorEv@Base 1.1.0
 _ZNK10QtMobility16QGeoTiledMapData18worldReferenceSizeEv@Base 1.1.0
 _ZNK10QtMobility16QGeoTiledMapData22mapObjectsInScreenRectERK6QRectF@Base 1.1.0
 _ZNK10QtMobility16QGeoTiledMapData26coordinateToScreenPositionERKNS_14QGeoCoordinateE@Base 1.1.0
 _ZNK10QtMobility16QGeoTiledMapData26mapObjectsAtScreenPositionERK7QPointF@Base 1.1.0
 _ZNK10QtMobility16QGeoTiledMapData26screenPositionToCoordinateERK7QPointF@Base 1.1.0
 _ZNK10QtMobility16QGeoTiledMapData26worldReferenceViewportRectEv@Base 1.1.0
 _ZNK10QtMobility16QGeoTiledMapData28worldReferenceViewportCenterEv@Base 1.1.0
 _ZNK10QtMobility16QGeoTiledMapData34coordinateToWorldReferencePositionERKNS_14QGeoCoordinateE@Base 1.1.0
 _ZNK10QtMobility16QGeoTiledMapData34worldReferencePositionToCoordinateERK6QPoint@Base 1.1.0
 _ZNK10QtMobility16QGeoTiledMapData6centerEv@Base 1.1.0
 _ZNK10QtMobility16QGeoTiledMapData8viewportEv@Base 1.1.0
 _ZNK10QtMobility16QLandmarkManager10categoriesERK5QListINS_19QLandmarkCategoryIdEE@Base 1.1.0
 _ZNK10QtMobility16QLandmarkManager10categoriesEiiRKNS_17QLandmarkNameSortE@Base 1.1.0
 _ZNK10QtMobility16QLandmarkManager10isReadOnlyERKNS_11QLandmarkIdE@Base 1.1.0
 _ZNK10QtMobility16QLandmarkManager10isReadOnlyERKNS_19QLandmarkCategoryIdE@Base 1.1.0
 _ZNK10QtMobility16QLandmarkManager10isReadOnlyEv@Base 1.1.0
 _ZNK10QtMobility16QLandmarkManager10managerUriEv@Base 1.1.0
 _ZNK10QtMobility16QLandmarkManager10metaObjectEv@Base 1.1.0
 _ZNK10QtMobility16QLandmarkManager11categoryIdsEiiRKNS_17QLandmarkNameSortE@Base 1.1.0
 _ZNK10QtMobility16QLandmarkManager11errorStringEv@Base 1.1.0
 _ZNK10QtMobility16QLandmarkManager11landmarkIdsERKNS_15QLandmarkFilterEiiRK5QListINS_18QLandmarkSortOrderEE@Base 1.1.0
 _ZNK10QtMobility16QLandmarkManager11landmarkIdsERKNS_15QLandmarkFilterEiiRKNS_18QLandmarkSortOrderE@Base 1.1.0
 _ZNK10QtMobility16QLandmarkManager11managerNameEv@Base 1.1.0
 _ZNK10QtMobility16QLandmarkManager14managerVersionEv@Base 1.1.0
 _ZNK10QtMobility16QLandmarkManager15exportLandmarksEP9QIODeviceRK7QStringRK5QListINS_11QLandmarkIdEENS0_14TransferOptionE@Base 1.1.0
 _ZNK10QtMobility16QLandmarkManager15exportLandmarksERK7QStringS3_RK5QListINS_11QLandmarkIdEENS0_14TransferOptionE@Base 1.1.0
 _ZNK10QtMobility16QLandmarkManager16supportedFormatsENS0_17TransferOperationE@Base 1.1.0
 _ZNK10QtMobility16QLandmarkManager17managerParametersEv@Base 1.1.0
 _ZNK10QtMobility16QLandmarkManager18filterSupportLevelERKNS_15QLandmarkFilterE@Base 1.1.0
 _ZNK10QtMobility16QLandmarkManager18isFeatureSupportedENS0_14ManagerFeatureE@Base 1.1.0
 _ZNK10QtMobility16QLandmarkManager21sortOrderSupportLevelERKNS_18QLandmarkSortOrderE@Base 1.1.0
 _ZNK10QtMobility16QLandmarkManager31searchableLandmarkAttributeKeysEv@Base 1.1.0
 _ZNK10QtMobility16QLandmarkManager5errorEv@Base 1.1.0
 _ZNK10QtMobility16QLandmarkManager8categoryERKNS_19QLandmarkCategoryIdE@Base 1.1.0
 _ZNK10QtMobility16QLandmarkManager8errorMapEv@Base 1.1.0
 _ZNK10QtMobility16QLandmarkManager8landmarkERKNS_11QLandmarkIdE@Base 1.1.0
 _ZNK10QtMobility16QLandmarkManager9landmarksERK5QListINS_11QLandmarkIdEE@Base 1.1.0
 _ZNK10QtMobility16QLandmarkManager9landmarksERKNS_15QLandmarkFilterEiiRK5QListINS_18QLandmarkSortOrderEE@Base 1.1.0
 _ZNK10QtMobility16QLandmarkManager9landmarksERKNS_15QLandmarkFilterEiiRKNS_18QLandmarkSortOrderE@Base 1.1.0
 _ZNK10QtMobility17QGeoMapObjectInfo10metaObjectEv@Base 1.1.0
 _ZNK10QtMobility17QGeoMapObjectInfo11boundingBoxEv@Base 1.1.0
 _ZNK10QtMobility17QGeoMapObjectInfo8containsERKNS_14QGeoCoordinateE@Base 1.1.0
 _ZNK10QtMobility17QGeoMapObjectInfo9mapObjectEv@Base 1.2.0
 _ZNK10QtMobility17QGeoMapTextObject10coordinateEv@Base 1.1.0
 _ZNK10QtMobility17QGeoMapTextObject10metaObjectEv@Base 1.1.0
 (optional=templinst)_ZNK10QtMobility17QGeoMapTextObject26qt_check_for_QOBJECT_macroIS0_EEvRKT_@Base 1.2.0
 _ZNK10QtMobility17QGeoMapTextObject3penEv@Base 1.1.0
 _ZNK10QtMobility17QGeoMapTextObject4fontEv@Base 1.1.0
 _ZNK10QtMobility17QGeoMapTextObject4textEv@Base 1.1.0
 _ZNK10QtMobility17QGeoMapTextObject4typeEv@Base 1.1.0
 _ZNK10QtMobility17QGeoMapTextObject5brushEv@Base 1.1.0
 _ZNK10QtMobility17QGeoMapTextObject6offsetEv@Base 1.1.0
 _ZNK10QtMobility17QGeoMapTextObject9alignmentEv@Base 1.1.0
 _ZNK10QtMobility17QGeoSatelliteInfo12hasAttributeENS0_9AttributeE@Base 1.1.0
 _ZNK10QtMobility17QGeoSatelliteInfo14signalStrengthEv@Base 1.1.0
 _ZNK10QtMobility17QGeoSatelliteInfo9attributeENS0_9AttributeE@Base 1.1.0
 _ZNK10QtMobility17QGeoSatelliteInfo9prnNumberEv@Base 1.1.0
 _ZNK10QtMobility17QGeoSatelliteInfoeqERKS0_@Base 1.1.0
 _ZNK10QtMobility17QGeoSearchManager10metaObjectEv@Base 1.1.0
 _ZNK10QtMobility17QGeoSearchManager11managerNameEv@Base 1.1.0
 _ZNK10QtMobility17QGeoSearchManager14managerVersionEv@Base 1.1.0
 _ZNK10QtMobility17QGeoSearchManager17supportsGeocodingEv@Base 1.1.0
 _ZNK10QtMobility17QGeoSearchManager20supportedSearchTypesEv@Base 1.1.0
 _ZNK10QtMobility17QGeoSearchManager22defaultLandmarkManagerEv@Base 1.1.0
 _ZNK10QtMobility17QGeoSearchManager24supportsReverseGeocodingEv@Base 1.1.0
 _ZNK10QtMobility17QGeoSearchManager26additionalLandmarkManagersEv@Base 1.1.0
 _ZNK10QtMobility17QGeoSearchManager6localeEv@Base 1.1.0
 _ZNK10QtMobility17QGeoTiledMapReply10isFinishedEv@Base 1.1.0
 _ZNK10QtMobility17QGeoTiledMapReply10metaObjectEv@Base 1.1.0
 _ZNK10QtMobility17QGeoTiledMapReply11errorStringEv@Base 1.1.0
 _ZNK10QtMobility17QGeoTiledMapReply12mapImageDataEv@Base 1.1.0
 _ZNK10QtMobility17QGeoTiledMapReply14mapImageFormatEv@Base 1.1.0
 (optional=templinst)_ZNK10QtMobility17QGeoTiledMapReply26qt_check_for_QOBJECT_macroIS0_EEvRKT_@Base 1.1.0
 _ZNK10QtMobility17QGeoTiledMapReply5errorEv@Base 1.1.0
 _ZNK10QtMobility17QGeoTiledMapReply7requestEv@Base 1.1.0
 _ZNK10QtMobility17QGeoTiledMapReply8isCachedEv@Base 1.1.0
 _ZNK10QtMobility17QLandmarkCategory10categoryIdEv@Base 1.1.0
 _ZNK10QtMobility17QLandmarkCategory4nameEv@Base 1.1.0
 _ZNK10QtMobility17QLandmarkCategory7iconUrlEv@Base 1.1.0
 _ZNK10QtMobility17QLandmarkCategoryeqERKS0_@Base 1.1.0
 _ZNK10QtMobility17QLandmarkCategoryneERKS0_@Base 1.1.0
 _ZNK10QtMobility17QLandmarkIdFilter11landmarkIdsEv@Base 1.1.0
 _ZNK10QtMobility17QLandmarkNameSort15caseSensitivityEv@Base 1.1.0
 _ZNK10QtMobility18QGeoBoundingCircle10translatedEdd@Base 1.1.0
 _ZNK10QtMobility18QGeoBoundingCircle4typeEv@Base 1.1.0
 _ZNK10QtMobility18QGeoBoundingCircle6centerEv@Base 1.1.0
 _ZNK10QtMobility18QGeoBoundingCircle6radiusEv@Base 1.1.0
 _ZNK10QtMobility18QGeoBoundingCircle7isEmptyEv@Base 1.1.0
 _ZNK10QtMobility18QGeoBoundingCircle7isValidEv@Base 1.1.0
 _ZNK10QtMobility18QGeoBoundingCircle8containsERKNS_14QGeoCoordinateE@Base 1.1.0
 _ZNK10QtMobility18QGeoBoundingCircleeqERKS0_@Base 1.1.0
 _ZNK10QtMobility18QGeoBoundingCircleneERKS0_@Base 1.1.0
 _ZNK10QtMobility18QGeoMapGroupObject10metaObjectEv@Base 1.1.0
 _ZNK10QtMobility18QGeoMapGroupObject11boundingBoxEv@Base 1.1.0
 _ZNK10QtMobility18QGeoMapGroupObject12childObjectsEv@Base 1.1.0
 (optional=templinst)_ZNK10QtMobility18QGeoMapGroupObject26qt_check_for_QOBJECT_macroIS0_EEvRKT_@Base 1.2.0
 _ZNK10QtMobility18QGeoMapGroupObject4typeEv@Base 1.1.0
 _ZNK10QtMobility18QGeoMapGroupObject8containsERKNS_14QGeoCoordinateE@Base 1.1.0
 _ZNK10QtMobility18QGeoMapRouteObject10metaObjectEv@Base 1.1.0
 _ZNK10QtMobility18QGeoMapRouteObject11detailLevelEv@Base 1.1.0
 (optional=templinst)_ZNK10QtMobility18QGeoMapRouteObject26qt_check_for_QOBJECT_macroIS0_EEvRKT_@Base 1.2.0
 _ZNK10QtMobility18QGeoMapRouteObject3penEv@Base 1.1.0
 _ZNK10QtMobility18QGeoMapRouteObject4typeEv@Base 1.1.0
 _ZNK10QtMobility18QGeoMapRouteObject5routeEv@Base 1.1.0
 _ZNK10QtMobility18QGeoMappingManager10metaObjectEv@Base 1.1.0
 _ZNK10QtMobility18QGeoMappingManager11managerNameEv@Base 1.1.0
 _ZNK10QtMobility18QGeoMappingManager11maximumTiltEv@Base 1.2.0
 _ZNK10QtMobility18QGeoMappingManager11minimumTiltEv@Base 1.2.0
 _ZNK10QtMobility18QGeoMappingManager14managerVersionEv@Base 1.1.0
 _ZNK10QtMobility18QGeoMappingManager15supportsBearingEv@Base 1.2.0
 _ZNK10QtMobility18QGeoMappingManager15supportsTiltingEv@Base 1.2.0
 _ZNK10QtMobility18QGeoMappingManager16maximumZoomLevelEv@Base 1.1.0
 _ZNK10QtMobility18QGeoMappingManager16minimumZoomLevelEv@Base 1.1.0
 _ZNK10QtMobility18QGeoMappingManager17supportedMapTypesEv@Base 1.1.0
 _ZNK10QtMobility18QGeoMappingManager24supportsCustomMapObjectsEv@Base 1.2.0
 _ZNK10QtMobility18QGeoMappingManager26supportedConnectivityModesEv@Base 1.1.0
 _ZNK10QtMobility18QGeoMappingManager6localeEv@Base 1.1.0
 _ZNK10QtMobility18QGeoRoutingManager10metaObjectEv@Base 1.1.0
 _ZNK10QtMobility18QGeoRoutingManager11managerNameEv@Base 1.1.0
 _ZNK10QtMobility18QGeoRoutingManager14managerVersionEv@Base 1.1.0
 _ZNK10QtMobility18QGeoRoutingManager20supportedTravelModesEv@Base 1.1.0
 _ZNK10QtMobility18QGeoRoutingManager20supportsExcludeAreasEv@Base 1.1.0
 _ZNK10QtMobility18QGeoRoutingManager20supportsRouteUpdatesEv@Base 1.1.0
 _ZNK10QtMobility18QGeoRoutingManager21supportedFeatureTypesEv@Base 1.1.0
 _ZNK10QtMobility18QGeoRoutingManager23supportedFeatureWeightsEv@Base 1.1.0
 _ZNK10QtMobility18QGeoRoutingManager23supportedSegmentDetailsEv@Base 1.1.0
 _ZNK10QtMobility18QGeoRoutingManager24supportedManeuverDetailsEv@Base 1.1.0
 _ZNK10QtMobility18QGeoRoutingManager25supportsAlternativeRoutesEv@Base 1.1.0
 _ZNK10QtMobility18QGeoRoutingManager27supportedRouteOptimizationsEv@Base 1.1.0
 _ZNK10QtMobility18QGeoRoutingManager6localeEv@Base 1.1.0
 _ZNK10QtMobility18QLandmarkBoxFilter11boundingBoxEv@Base 1.1.0
 _ZNK10QtMobility18QLandmarkSortOrder4typeEv@Base 1.1.0
 _ZNK10QtMobility18QLandmarkSortOrder9directionEv@Base 1.1.0
 _ZNK10QtMobility18QLandmarkSortOrdereqERKS0_@Base 1.1.0
 _ZNK10QtMobility19QGeoMapCircleObject10metaObjectEv@Base 1.1.0
 _ZNK10QtMobility19QGeoMapCircleObject10pointCountEv@Base 1.2.0
 _ZNK10QtMobility19QGeoMapCircleObject3penEv@Base 1.1.0
 _ZNK10QtMobility19QGeoMapCircleObject4typeEv@Base 1.1.0
 _ZNK10QtMobility19QGeoMapCircleObject5brushEv@Base 1.1.0
 _ZNK10QtMobility19QGeoMapCircleObject6centerEv@Base 1.1.0
 _ZNK10QtMobility19QGeoMapCircleObject6circleEv@Base 1.1.0
 _ZNK10QtMobility19QGeoMapCircleObject6radiusEv@Base 1.1.0
 _ZNK10QtMobility19QGeoMapCircleObject8containsERKNS_14QGeoCoordinateE@Base 1.2.0
 _ZNK10QtMobility19QGeoMapCustomObject10metaObjectEv@Base 1.2.0
 _ZNK10QtMobility19QGeoMapCustomObject12graphicsItemEv@Base 1.2.0
 _ZNK10QtMobility19QGeoMapCustomObject4typeEv@Base 1.2.0
 _ZNK10QtMobility19QGeoMapCustomObject6offsetEv@Base 1.2.0
 _ZNK10QtMobility19QGeoMapPixmapObject10coordinateEv@Base 1.1.0
 _ZNK10QtMobility19QGeoMapPixmapObject10metaObjectEv@Base 1.1.0
 _ZNK10QtMobility19QGeoMapPixmapObject4typeEv@Base 1.1.0
 _ZNK10QtMobility19QGeoMapPixmapObject6offsetEv@Base 1.1.0
 _ZNK10QtMobility19QGeoMapPixmapObject6pixmapEv@Base 1.1.0
 _ZNK10QtMobility19QGeoServiceProvider11errorStringEv@Base 1.1.0
 _ZNK10QtMobility19QGeoServiceProvider13searchManagerEv@Base 1.1.0
 _ZNK10QtMobility19QGeoServiceProvider14mappingManagerEv@Base 1.1.0
 _ZNK10QtMobility19QGeoServiceProvider14routingManagerEv@Base 1.1.0
 _ZNK10QtMobility19QGeoServiceProvider5errorEv@Base 1.1.0
 _ZNK10QtMobility19QGeoTiledMapRequest16connectivityModeEv@Base 1.1.0
 _ZNK10QtMobility19QGeoTiledMapRequest3rowEv@Base 1.1.0
 _ZNK10QtMobility19QGeoTiledMapRequest6columnEv@Base 1.1.0
 _ZNK10QtMobility19QGeoTiledMapRequest7mapTypeEv@Base 1.1.0
 _ZNK10QtMobility19QGeoTiledMapRequest8tileRectEv@Base 1.1.0
 _ZNK10QtMobility19QGeoTiledMapRequest9zoomLevelEv@Base 1.1.0
 _ZNK10QtMobility19QGeoTiledMapRequesteqERKS0_@Base 1.1.0
 _ZNK10QtMobility19QLandmarkCategoryId10managerUriEv@Base 1.1.0
 _ZNK10QtMobility19QLandmarkCategoryId7isValidEv@Base 1.1.0
 _ZNK10QtMobility19QLandmarkCategoryId7localIdEv@Base 1.1.0
 _ZNK10QtMobility19QLandmarkCategoryIdeqERKS0_@Base 1.1.0
 _ZNK10QtMobility19QLandmarkCategoryIdneERKS0_@Base 1.1.0
 _ZNK10QtMobility19QLandmarkNameFilter10matchFlagsEv@Base 1.1.0
 _ZNK10QtMobility19QLandmarkNameFilter4nameEv@Base 1.1.0
 _ZNK10QtMobility20QGeoMapPolygonObject10metaObjectEv@Base 1.1.0
 _ZNK10QtMobility20QGeoMapPolygonObject3penEv@Base 1.1.0
 _ZNK10QtMobility20QGeoMapPolygonObject4pathEv@Base 1.1.0
 _ZNK10QtMobility20QGeoMapPolygonObject4typeEv@Base 1.1.0
 _ZNK10QtMobility20QGeoMapPolygonObject5brushEv@Base 1.1.0
 _ZNK10QtMobility20QLandmarkSaveRequest10metaObjectEv@Base 1.1.0
 _ZNK10QtMobility20QLandmarkSaveRequest8errorMapEv@Base 1.1.0
 _ZNK10QtMobility20QLandmarkSaveRequest9landmarksEv@Base 1.1.0
 _ZNK10QtMobility20QLandmarkUnionFilter7filtersEv@Base 1.1.0
 _ZNK10QtMobility21QGeoMapPolylineObject10metaObjectEv@Base 1.1.0
 _ZNK10QtMobility21QGeoMapPolylineObject3penEv@Base 1.1.0
 _ZNK10QtMobility21QGeoMapPolylineObject4pathEv@Base 1.1.0
 _ZNK10QtMobility21QGeoMapPolylineObject4typeEv@Base 1.1.0
 _ZNK10QtMobility21QLandmarkFetchRequest10metaObjectEv@Base 1.1.0
 (optional=templinst)_ZNK10QtMobility21QLandmarkFetchRequest26qt_check_for_QOBJECT_macroIS0_EEvRKT_@Base 1.1.0
 _ZNK10QtMobility21QLandmarkFetchRequest5limitEv@Base 1.1.0
 _ZNK10QtMobility21QLandmarkFetchRequest6filterEv@Base 1.1.0
 _ZNK10QtMobility21QLandmarkFetchRequest6offsetEv@Base 1.1.0
 _ZNK10QtMobility21QLandmarkFetchRequest7sortingEv@Base 1.1.0
 _ZNK10QtMobility21QLandmarkFetchRequest9landmarksEv@Base 1.1.0
 _ZNK10QtMobility22QGeoMapRectangleObject10metaObjectEv@Base 1.1.0
 _ZNK10QtMobility22QGeoMapRectangleObject11bottomRightEv@Base 1.1.0
 _ZNK10QtMobility22QGeoMapRectangleObject3penEv@Base 1.1.0
 _ZNK10QtMobility22QGeoMapRectangleObject4typeEv@Base 1.1.0
 _ZNK10QtMobility22QGeoMapRectangleObject5brushEv@Base 1.1.0
 _ZNK10QtMobility22QGeoMapRectangleObject6boundsEv@Base 1.1.0
 _ZNK10QtMobility22QGeoMapRectangleObject7topLeftEv@Base 1.1.0
 _ZNK10QtMobility22QGeoPositionInfoSource10metaObjectEv@Base 1.1.0
 _ZNK10QtMobility22QGeoPositionInfoSource14updateIntervalEv@Base 1.1.0
 _ZNK10QtMobility22QGeoPositionInfoSource27preferredPositioningMethodsEv@Base 1.1.0
 _ZNK10QtMobility22QLandmarkExportRequest10metaObjectEv@Base 1.1.0
 _ZNK10QtMobility22QLandmarkExportRequest11landmarkIdsEv@Base 1.1.0
 _ZNK10QtMobility22QLandmarkExportRequest14transferOptionEv@Base 1.1.0
 _ZNK10QtMobility22QLandmarkExportRequest6deviceEv@Base 1.1.0
 _ZNK10QtMobility22QLandmarkExportRequest6formatEv@Base 1.1.0
 _ZNK10QtMobility22QLandmarkExportRequest8fileNameEv@Base 1.1.0
 _ZNK10QtMobility22QLandmarkImportRequest10categoryIdEv@Base 1.1.0
 _ZNK10QtMobility22QLandmarkImportRequest10metaObjectEv@Base 1.1.0
 _ZNK10QtMobility22QLandmarkImportRequest11landmarkIdsEv@Base 1.1.0
 _ZNK10QtMobility22QLandmarkImportRequest14transferOptionEv@Base 1.1.0
 _ZNK10QtMobility22QLandmarkImportRequest6deviceEv@Base 1.1.0
 _ZNK10QtMobility22QLandmarkImportRequest6formatEv@Base 1.1.0
 _ZNK10QtMobility22QLandmarkImportRequest8fileNameEv@Base 1.1.0
 _ZNK10QtMobility22QLandmarkManagerEngine10categoriesERK5QListINS_19QLandmarkCategoryIdEEP4QMapIiNS_16QLandmarkManager5ErrorEEPS8_P7QString@Base 1.1.0
 _ZNK10QtMobility22QLandmarkManagerEngine10categoriesEiiRKNS_17QLandmarkNameSortEPNS_16QLandmarkManager5ErrorEP7QString@Base 1.1.0
 _ZNK10QtMobility22QLandmarkManagerEngine10managerUriEv@Base 1.1.0
 _ZNK10QtMobility22QLandmarkManagerEngine10metaObjectEv@Base 1.1.0
 _ZNK10QtMobility22QLandmarkManagerEngine11categoryIdsEiiRKNS_17QLandmarkNameSortEPNS_16QLandmarkManager5ErrorEP7QString@Base 1.1.0
 _ZNK10QtMobility22QLandmarkManagerEngine11landmarkIdsERKNS_15QLandmarkFilterEiiRK5QListINS_18QLandmarkSortOrderEEPNS_16QLandmarkManager5ErrorEP7QString@Base 1.1.0
 _ZNK10QtMobility22QLandmarkManagerEngine11managerNameEv@Base 1.1.0
 _ZNK10QtMobility22QLandmarkManagerEngine14managerVersionEv@Base 1.1.0
 _ZNK10QtMobility22QLandmarkManagerEngine15exportLandmarksEP9QIODeviceRK7QStringRK5QListINS_11QLandmarkIdEENS_16QLandmarkManager14TransferOptionEPNSB_5ErrorEPS3_@Base 1.1.0
 _ZNK10QtMobility22QLandmarkManagerEngine16supportedFormatsENS_16QLandmarkManager17TransferOperationEPNS1_5ErrorEP7QString@Base 1.1.0
 _ZNK10QtMobility22QLandmarkManagerEngine17managerParametersEv@Base 1.1.0
 _ZNK10QtMobility22QLandmarkManagerEngine8categoryERKNS_19QLandmarkCategoryIdEPNS_16QLandmarkManager5ErrorEP7QString@Base 1.1.0
 _ZNK10QtMobility22QLandmarkManagerEngine8landmarkERKNS_11QLandmarkIdEPNS_16QLandmarkManager5ErrorEP7QString@Base 1.1.0
 _ZNK10QtMobility22QLandmarkManagerEngine9landmarksERK5QListINS_11QLandmarkIdEEP4QMapIiNS_16QLandmarkManager5ErrorEEPS8_P7QString@Base 1.1.0
 _ZNK10QtMobility22QLandmarkManagerEngine9landmarksERKNS_15QLandmarkFilterEiiRK5QListINS_18QLandmarkSortOrderEEPNS_16QLandmarkManager5ErrorEP7QString@Base 1.1.0
 _ZNK10QtMobility22QLandmarkRemoveRequest10metaObjectEv@Base 1.1.0
 _ZNK10QtMobility22QLandmarkRemoveRequest11landmarkIdsEv@Base 1.1.0
 _ZNK10QtMobility22QLandmarkRemoveRequest8errorMapEv@Base 1.1.0
 _ZNK10QtMobility23QGeoSatelliteInfoSource10metaObjectEv@Base 1.1.0
 _ZNK10QtMobility23QGeoSearchManagerEngine10metaObjectEv@Base 1.1.0
 _ZNK10QtMobility23QGeoSearchManagerEngine11managerNameEv@Base 1.1.0
 _ZNK10QtMobility23QGeoSearchManagerEngine14managerVersionEv@Base 1.1.0
 _ZNK10QtMobility23QGeoSearchManagerEngine17supportsGeocodingEv@Base 1.1.0
 _ZNK10QtMobility23QGeoSearchManagerEngine20supportedSearchTypesEv@Base 1.1.0
 _ZNK10QtMobility23QGeoSearchManagerEngine22defaultLandmarkManagerEv@Base 1.1.0
 _ZNK10QtMobility23QGeoSearchManagerEngine24supportsReverseGeocodingEv@Base 1.1.0
 _ZNK10QtMobility23QGeoSearchManagerEngine26additionalLandmarkManagersEv@Base 1.1.0
 _ZNK10QtMobility23QGeoSearchManagerEngine6localeEv@Base 1.1.0
 _ZNK10QtMobility23QLandmarkCategoryFilter10categoryIdEv@Base 1.1.0
 _ZNK10QtMobility23QLandmarkIdFetchRequest10metaObjectEv@Base 1.1.0
 _ZNK10QtMobility23QLandmarkIdFetchRequest11landmarkIdsEv@Base 1.1.0
 _ZNK10QtMobility23QLandmarkIdFetchRequest5limitEv@Base 1.1.0
 _ZNK10QtMobility23QLandmarkIdFetchRequest6filterEv@Base 1.1.0
 _ZNK10QtMobility23QLandmarkIdFetchRequest6offsetEv@Base 1.1.0
 _ZNK10QtMobility23QLandmarkIdFetchRequest7sortingEv@Base 1.1.0
 _ZNK10QtMobility23QNmeaPositionInfoSource10metaObjectEv@Base 1.1.0
 _ZNK10QtMobility23QNmeaPositionInfoSource10updateModeEv@Base 1.1.0
 _ZNK10QtMobility23QNmeaPositionInfoSource17lastKnownPositionEb@Base 1.1.0
 _ZNK10QtMobility23QNmeaPositionInfoSource21minimumUpdateIntervalEv@Base 1.1.0
 _ZNK10QtMobility23QNmeaPositionInfoSource27supportedPositioningMethodsEv@Base 1.1.0
 _ZNK10QtMobility23QNmeaPositionInfoSource6deviceEv@Base 1.1.0
 _ZNK10QtMobility24QGeoMappingManagerEngine10metaObjectEv@Base 1.1.0
 _ZNK10QtMobility24QGeoMappingManagerEngine11managerNameEv@Base 1.1.0
 _ZNK10QtMobility24QGeoMappingManagerEngine11maximumTiltEv@Base 1.2.0
 _ZNK10QtMobility24QGeoMappingManagerEngine11minimumTiltEv@Base 1.2.0
 _ZNK10QtMobility24QGeoMappingManagerEngine14managerVersionEv@Base 1.1.0
 _ZNK10QtMobility24QGeoMappingManagerEngine15supportsBearingEv@Base 1.2.0
 _ZNK10QtMobility24QGeoMappingManagerEngine15supportsTiltingEv@Base 1.2.0
 _ZNK10QtMobility24QGeoMappingManagerEngine16maximumZoomLevelEv@Base 1.1.0
 _ZNK10QtMobility24QGeoMappingManagerEngine16minimumZoomLevelEv@Base 1.1.0
 _ZNK10QtMobility24QGeoMappingManagerEngine17supportedMapTypesEv@Base 1.1.0
 _ZNK10QtMobility24QGeoMappingManagerEngine24supportsCustomMapObjectsEv@Base 1.2.0
 _ZNK10QtMobility24QGeoMappingManagerEngine26supportedConnectivityModesEv@Base 1.1.0
 _ZNK10QtMobility24QGeoMappingManagerEngine6localeEv@Base 1.1.0
 _ZNK10QtMobility24QGeoRoutingManagerEngine10metaObjectEv@Base 1.1.0
 _ZNK10QtMobility24QGeoRoutingManagerEngine11managerNameEv@Base 1.1.0
 _ZNK10QtMobility24QGeoRoutingManagerEngine14managerVersionEv@Base 1.1.0
 _ZNK10QtMobility24QGeoRoutingManagerEngine20supportedTravelModesEv@Base 1.1.0
 _ZNK10QtMobility24QGeoRoutingManagerEngine20supportsExcludeAreasEv@Base 1.1.0
 _ZNK10QtMobility24QGeoRoutingManagerEngine20supportsRouteUpdatesEv@Base 1.1.0
 _ZNK10QtMobility24QGeoRoutingManagerEngine21supportedFeatureTypesEv@Base 1.1.0
 _ZNK10QtMobility24QGeoRoutingManagerEngine23supportedFeatureWeightsEv@Base 1.1.0
 _ZNK10QtMobility24QGeoRoutingManagerEngine23supportedSegmentDetailsEv@Base 1.1.0
 _ZNK10QtMobility24QGeoRoutingManagerEngine24supportedManeuverDetailsEv@Base 1.1.0
 _ZNK10QtMobility24QGeoRoutingManagerEngine25supportsAlternativeRoutesEv@Base 1.1.0
 _ZNK10QtMobility24QGeoRoutingManagerEngine27supportedRouteOptimizationsEv@Base 1.1.0
 _ZNK10QtMobility24QGeoRoutingManagerEngine6localeEv@Base 1.1.0
 _ZNK10QtMobility24QLandmarkAbstractRequest10isFinishedEv@Base 1.1.0
 _ZNK10QtMobility24QLandmarkAbstractRequest10isInactiveEv@Base 1.1.0
 _ZNK10QtMobility24QLandmarkAbstractRequest10metaObjectEv@Base 1.1.0
 _ZNK10QtMobility24QLandmarkAbstractRequest11errorStringEv@Base 1.1.0
 _ZNK10QtMobility24QLandmarkAbstractRequest4typeEv@Base 1.1.0
 _ZNK10QtMobility24QLandmarkAbstractRequest5errorEv@Base 1.1.0
 _ZNK10QtMobility24QLandmarkAbstractRequest7managerEv@Base 1.1.0
 _ZNK10QtMobility24QLandmarkAbstractRequest8isActiveEv@Base 1.1.0
 _ZNK10QtMobility24QLandmarkAttributeFilter10matchFlagsERK7QString@Base 1.1.0
 _ZNK10QtMobility24QLandmarkAttributeFilter13attributeKeysEv@Base 1.1.0
 _ZNK10QtMobility24QLandmarkAttributeFilter13operationTypeEv@Base 1.1.0
 _ZNK10QtMobility24QLandmarkAttributeFilter9attributeERK7QString@Base 1.1.0
 _ZNK10QtMobility24QLandmarkProximityFilter6centerEv@Base 1.1.0
 _ZNK10QtMobility24QLandmarkProximityFilter6radiusEv@Base 1.1.0
 _ZNK10QtMobility25QLandmarkFetchByIdRequest10metaObjectEv@Base 1.1.0
 _ZNK10QtMobility25QLandmarkFetchByIdRequest11landmarkIdsEv@Base 1.1.0
 _ZNK10QtMobility25QLandmarkFetchByIdRequest8errorMapEv@Base 1.1.0
 _ZNK10QtMobility25QLandmarkFetchByIdRequest9landmarksEv@Base 1.1.0
 _ZNK10QtMobility26QGeoServiceProviderFactory25createSearchManagerEngineERK4QMapI7QString8QVariantEPNS_19QGeoServiceProvider5ErrorEPS2_@Base 1.1.0
 _ZNK10QtMobility26QGeoServiceProviderFactory26createMappingManagerEngineERK4QMapI7QString8QVariantEPNS_19QGeoServiceProvider5ErrorEPS2_@Base 1.1.0
 _ZNK10QtMobility26QGeoServiceProviderFactory26createRoutingManagerEngineERK4QMapI7QString8QVariantEPNS_19QGeoServiceProvider5ErrorEPS2_@Base 1.1.0
 _ZNK10QtMobility27QLandmarkIntersectionFilter7filtersEv@Base 1.1.0
 _ZNK10QtMobility28QLandmarkCategorySaveRequest10categoriesEv@Base 1.1.0
 _ZNK10QtMobility28QLandmarkCategorySaveRequest10metaObjectEv@Base 1.1.0
 _ZNK10QtMobility28QLandmarkCategorySaveRequest8errorMapEv@Base 1.1.0
 _ZNK10QtMobility29QGeoPositionInfoSourceFactory14sourcePriorityEv@Base 1.2.0
 _ZNK10QtMobility29QGeoTiledMappingManagerEngine10metaObjectEv@Base 1.1.0
 _ZNK10QtMobility29QGeoTiledMappingManagerEngine8tileSizeEv@Base 1.1.0
 _ZNK10QtMobility29QLandmarkCategoryFetchRequest10categoriesEv@Base 1.1.0
 _ZNK10QtMobility29QLandmarkCategoryFetchRequest10metaObjectEv@Base 1.1.0
 _ZNK10QtMobility29QLandmarkCategoryFetchRequest5limitEv@Base 1.1.0
 _ZNK10QtMobility29QLandmarkCategoryFetchRequest6offsetEv@Base 1.1.0
 _ZNK10QtMobility29QLandmarkCategoryFetchRequest7sortingEv@Base 1.1.0
 _ZNK10QtMobility29QLandmarkManagerEngineFactory31supportedImplementationVersionsEv@Base 1.1.0
 _ZNK10QtMobility30QLandmarkCategoryRemoveRequest10metaObjectEv@Base 1.1.0
 _ZNK10QtMobility30QLandmarkCategoryRemoveRequest11categoryIdsEv@Base 1.1.0
 _ZNK10QtMobility30QLandmarkCategoryRemoveRequest8errorMapEv@Base 1.1.0
 _ZNK10QtMobility31QLandmarkCategoryIdFetchRequest10metaObjectEv@Base 1.1.0
 _ZNK10QtMobility31QLandmarkCategoryIdFetchRequest11categoryIdsEv@Base 1.1.0
 _ZNK10QtMobility31QLandmarkCategoryIdFetchRequest5limitEv@Base 1.1.0
 _ZNK10QtMobility31QLandmarkCategoryIdFetchRequest6offsetEv@Base 1.1.0
 _ZNK10QtMobility31QLandmarkCategoryIdFetchRequest7sortingEv@Base 1.1.0
 _ZNK10QtMobility33QLandmarkCategoryFetchByIdRequest10categoriesEv@Base 1.1.0
 _ZNK10QtMobility33QLandmarkCategoryFetchByIdRequest10metaObjectEv@Base 1.1.0
 _ZNK10QtMobility33QLandmarkCategoryFetchByIdRequest11categoryIdsEv@Base 1.1.0
 _ZNK10QtMobility33QLandmarkCategoryFetchByIdRequest8errorMapEv@Base 1.1.0
 _ZNK10QtMobility9QGeoPlace10coordinateEv@Base 1.1.0
 _ZNK10QtMobility9QGeoPlace10isLandmarkEv@Base 1.1.0
 _ZNK10QtMobility9QGeoPlace6d_funcEv@Base 1.1.0
 _ZNK10QtMobility9QGeoPlace7addressEv@Base 1.1.0
 _ZNK10QtMobility9QGeoPlace8viewportEv@Base 1.1.0
 _ZNK10QtMobility9QGeoPlaceeqERKS0_@Base 1.1.0
 _ZNK10QtMobility9QGeoPlaceneERKS0_@Base 1.1.0
 _ZNK10QtMobility9QGeoRoute10travelModeEv@Base 1.1.0
 _ZNK10QtMobility9QGeoRoute10travelTimeEv@Base 1.1.0
 _ZNK10QtMobility9QGeoRoute17firstRouteSegmentEv@Base 1.1.0
 _ZNK10QtMobility9QGeoRoute4pathEv@Base 1.1.0
 _ZNK10QtMobility9QGeoRoute6boundsEv@Base 1.1.0
 _ZNK10QtMobility9QGeoRoute7requestEv@Base 1.1.0
 _ZNK10QtMobility9QGeoRoute7routeIdEv@Base 1.1.0
 _ZNK10QtMobility9QGeoRoute8distanceEv@Base 1.1.0
 _ZNK10QtMobility9QGeoRouteeqERKS0_@Base 1.1.0
 _ZNK10QtMobility9QGeoRouteneERKS0_@Base 1.1.0
 _ZNK10QtMobility9QLandmark10landmarkIdEv@Base 1.1.0
 _ZNK10QtMobility9QLandmark11categoryIdsEv@Base 1.1.0
 _ZNK10QtMobility9QLandmark11descriptionEv@Base 1.1.0
 _ZNK10QtMobility9QLandmark11phoneNumberEv@Base 1.1.0
 _ZNK10QtMobility9QLandmark3urlEv@Base 1.1.0
 _ZNK10QtMobility9QLandmark4nameEv@Base 1.1.0
 _ZNK10QtMobility9QLandmark6d_funcEv@Base 1.1.0
 _ZNK10QtMobility9QLandmark6radiusEv@Base 1.1.0
 _ZNK10QtMobility9QLandmark7iconUrlEv@Base 1.1.0
 _ZNK10QtMobility9QLandmarkeqERKS0_@Base 1.1.0
 (optional=templinst)_ZNK5QFile26qt_check_for_QOBJECT_macroIS_EEvRKT_@Base 1.1.0
 _ZNK5QRect11bottomRightEv@Base 1.1.0
 _ZNK5QRect11intersectedERKS_@Base 1.1.0
 _ZNK5QRect1xEv@Base 1.1.0
 _ZNK5QRect1yEv@Base 1.1.0
 _ZNK5QRect3topEv@Base 1.1.0
 _ZNK5QRect4leftEv@Base 1.1.0
 _ZNK5QRect4sizeEv@Base 1.1.0
 _ZNK5QRect5rightEv@Base 1.1.0
 _ZNK5QRect5widthEv@Base 1.1.0
 _ZNK5QRect6bottomEv@Base 1.1.0
 _ZNK5QRect6heightEv@Base 1.1.0
 _ZNK5QRect7isEmptyEv@Base 1.1.0
 _ZNK5QRect7isValidEv@Base 1.1.0
 _ZNK5QRect7topLeftEv@Base 1.1.0
 _ZNK5QRect9intersectERKS_@Base 1.1.0
 _ZNK5QSize5widthEv@Base 1.1.0
 _ZNK5QSize6heightEv@Base 1.1.0
 _ZNK5QSize7isEmptyEv@Base 1.1.0
 _ZNK6QPoint1xEv@Base 1.1.0
 _ZNK6QPoint1yEv@Base 1.1.0
 _ZNK6QPoint6isNullEv@Base 1.2.0
 _ZNK6QRectF5widthEv@Base 1.2.0
 _ZNK6QRectF6heightEv@Base 1.1.0
 _ZNK6QRectF6isNullEv@Base 1.1.0
 _ZNK6QRectF7isEmptyEv@Base 1.2.0
 _ZNK6QRectF7isValidEv@Base 1.1.0
 (subst)_ZNK6QRectF8containsE{qreal}{qreal}@Base 1.2.0
 _ZNK6QSizeF5widthEv@Base 1.1.0
 _ZNK6QSizeF6heightEv@Base 1.1.0
 _ZNK6QSizeF7isValidEv@Base 1.1.0
 _ZNK7QPointF1xEv@Base 1.1.0
 _ZNK7QPointF1yEv@Base 1.1.0
 _ZNK7QPointF6isNullEv@Base 1.2.0
 _ZNK7QString3argERKS_S1_@Base 1.1.0
 _ZNK7QString3argERKS_S1_S1_@Base 1.1.0
 _ZSt4swapIPN10QtMobility29QGeoPositionInfoSourceFactoryEEvRT_S4_@Base 1.2.0
 _ZTI11QSharedData@Base 1.1.0
 _ZTIN10QtMobility11QGeoMapDataE@Base 1.1.0
 _ZTIN10QtMobility13QGeoMapObjectE@Base 1.1.0
 _ZTIN10QtMobility14QGeoMapOverlayE@Base 1.1.0
 _ZTIN10QtMobility14QGeoRouteReplyE@Base 1.1.0
 _ZTIN10QtMobility15QGeoAreaMonitorE@Base 1.1.0
 _ZTIN10QtMobility15QGeoBoundingBoxE@Base 1.1.0
 _ZTIN10QtMobility15QGeoSearchReplyE@Base 1.1.0
 _ZTIN10QtMobility15QGraphicsGeoMapE@Base 1.1.0
 _ZTIN10QtMobility15QLandmarkFilterE@Base 1.1.0
 _ZTIN10QtMobility16QGeoBoundingAreaE@Base 1.1.0
 _ZTIN10QtMobility16QGeoTiledMapDataE@Base 1.1.0
 _ZTIN10QtMobility16QLandmarkManagerE@Base 1.1.0
 _ZTIN10QtMobility17QGeoMapObjectInfoE@Base 1.1.0
 _ZTIN10QtMobility17QGeoMapTextObjectE@Base 1.1.0
 _ZTIN10QtMobility17QGeoSearchManagerE@Base 1.1.0
 _ZTIN10QtMobility17QGeoTiledMapReplyE@Base 1.1.0
 _ZTIN10QtMobility17QLandmarkIdFilterE@Base 1.1.0
 _ZTIN10QtMobility17QLandmarkNameSortE@Base 1.1.0
 _ZTIN10QtMobility18QGeoBoundingCircleE@Base 1.1.0
 _ZTIN10QtMobility18QGeoMapGroupObjectE@Base 1.1.0
 _ZTIN10QtMobility18QGeoMapRouteObjectE@Base 1.1.0
 _ZTIN10QtMobility18QGeoMappingManagerE@Base 1.1.0
 _ZTIN10QtMobility18QGeoRoutingManagerE@Base 1.1.0
 _ZTIN10QtMobility18QLandmarkBoxFilterE@Base 1.1.0
 _ZTIN10QtMobility18QLandmarkSortOrderE@Base 1.1.0
 _ZTIN10QtMobility19QGeoMapCircleObjectE@Base 1.1.0
 _ZTIN10QtMobility19QGeoMapCustomObjectE@Base 1.2.0
 _ZTIN10QtMobility19QGeoMapPixmapObjectE@Base 1.1.0
 _ZTIN10QtMobility19QLandmarkNameFilterE@Base 1.1.0
 _ZTIN10QtMobility20QGeoMapPolygonObjectE@Base 1.1.0
 _ZTIN10QtMobility20QLandmarkSaveRequestE@Base 1.1.0
 _ZTIN10QtMobility20QLandmarkUnionFilterE@Base 1.1.0
 _ZTIN10QtMobility21QGeoMapPolylineObjectE@Base 1.1.0
 _ZTIN10QtMobility21QLandmarkFetchRequestE@Base 1.1.0
 _ZTIN10QtMobility22QGeoMapRectangleObjectE@Base 1.1.0
 _ZTIN10QtMobility22QGeoPositionInfoSourceE@Base 1.1.0
 _ZTIN10QtMobility22QLandmarkExportRequestE@Base 1.1.0
 _ZTIN10QtMobility22QLandmarkImportRequestE@Base 1.1.0
 _ZTIN10QtMobility22QLandmarkManagerEngineE@Base 1.1.0
 _ZTIN10QtMobility22QLandmarkRemoveRequestE@Base 1.1.0
 _ZTIN10QtMobility23QGeoSatelliteInfoSourceE@Base 1.1.0
 _ZTIN10QtMobility23QGeoSearchManagerEngineE@Base 1.1.0
 _ZTIN10QtMobility23QLandmarkCategoryFilterE@Base 1.1.0
 _ZTIN10QtMobility23QLandmarkIdFetchRequestE@Base 1.1.0
 _ZTIN10QtMobility23QNmeaPositionInfoSourceE@Base 1.1.0
 _ZTIN10QtMobility24QGeoMappingManagerEngineE@Base 1.1.0
 _ZTIN10QtMobility24QGeoRoutingManagerEngineE@Base 1.1.0
 _ZTIN10QtMobility24QLandmarkAbstractRequestE@Base 1.1.0
 _ZTIN10QtMobility24QLandmarkAttributeFilterE@Base 1.1.0
 _ZTIN10QtMobility24QLandmarkProximityFilterE@Base 1.1.0
 _ZTIN10QtMobility25QLandmarkFetchByIdRequestE@Base 1.1.0
 _ZTIN10QtMobility26QGeoServiceProviderFactoryE@Base 1.1.0
 _ZTIN10QtMobility27QLandmarkIntersectionFilterE@Base 1.1.0
 _ZTIN10QtMobility28QLandmarkCategorySaveRequestE@Base 1.1.0
 _ZTIN10QtMobility29QGeoPositionInfoSourceFactoryE@Base 1.2.0
 _ZTIN10QtMobility29QGeoTiledMappingManagerEngineE@Base 1.1.0
 _ZTIN10QtMobility29QLandmarkCategoryFetchRequestE@Base 1.1.0
 _ZTIN10QtMobility29QLandmarkManagerEngineFactoryE@Base 1.1.0
 _ZTIN10QtMobility30QLandmarkCategoryRemoveRequestE@Base 1.1.0
 _ZTIN10QtMobility31QLandmarkCategoryIdFetchRequestE@Base 1.1.0
 _ZTIN10QtMobility33QLandmarkCategoryFetchByIdRequestE@Base 1.1.0
 _ZTIN10QtMobility9QGeoPlaceE@Base 1.1.0
 _ZTIN10QtMobility9QLandmarkE@Base 1.1.0
 _ZTS11QSharedData@Base 1.1.0
 _ZTSN10QtMobility11QGeoMapDataE@Base 1.1.0
 _ZTSN10QtMobility13QGeoMapObjectE@Base 1.1.0
 _ZTSN10QtMobility14QGeoMapOverlayE@Base 1.1.0
 _ZTSN10QtMobility14QGeoRouteReplyE@Base 1.1.0
 _ZTSN10QtMobility15QGeoAreaMonitorE@Base 1.1.0
 _ZTSN10QtMobility15QGeoBoundingBoxE@Base 1.1.0
 _ZTSN10QtMobility15QGeoSearchReplyE@Base 1.1.0
 _ZTSN10QtMobility15QGraphicsGeoMapE@Base 1.1.0
 _ZTSN10QtMobility15QLandmarkFilterE@Base 1.1.0
 _ZTSN10QtMobility16QGeoBoundingAreaE@Base 1.1.0
 _ZTSN10QtMobility16QGeoTiledMapDataE@Base 1.1.0
 _ZTSN10QtMobility16QLandmarkManagerE@Base 1.1.0
 _ZTSN10QtMobility17QGeoMapObjectInfoE@Base 1.1.0
 _ZTSN10QtMobility17QGeoMapTextObjectE@Base 1.1.0
 _ZTSN10QtMobility17QGeoSearchManagerE@Base 1.1.0
 _ZTSN10QtMobility17QGeoTiledMapReplyE@Base 1.1.0
 _ZTSN10QtMobility17QLandmarkIdFilterE@Base 1.1.0
 _ZTSN10QtMobility17QLandmarkNameSortE@Base 1.1.0
 _ZTSN10QtMobility18QGeoBoundingCircleE@Base 1.1.0
 _ZTSN10QtMobility18QGeoMapGroupObjectE@Base 1.1.0
 _ZTSN10QtMobility18QGeoMapRouteObjectE@Base 1.1.0
 _ZTSN10QtMobility18QGeoMappingManagerE@Base 1.1.0
 _ZTSN10QtMobility18QGeoRoutingManagerE@Base 1.1.0
 _ZTSN10QtMobility18QLandmarkBoxFilterE@Base 1.1.0
 _ZTSN10QtMobility18QLandmarkSortOrderE@Base 1.1.0
 _ZTSN10QtMobility19QGeoMapCircleObjectE@Base 1.1.0
 _ZTSN10QtMobility19QGeoMapCustomObjectE@Base 1.2.0
 _ZTSN10QtMobility19QGeoMapPixmapObjectE@Base 1.1.0
 _ZTSN10QtMobility19QLandmarkNameFilterE@Base 1.1.0
 _ZTSN10QtMobility20QGeoMapPolygonObjectE@Base 1.1.0
 _ZTSN10QtMobility20QLandmarkSaveRequestE@Base 1.1.0
 _ZTSN10QtMobility20QLandmarkUnionFilterE@Base 1.1.0
 _ZTSN10QtMobility21QGeoMapPolylineObjectE@Base 1.1.0
 _ZTSN10QtMobility21QLandmarkFetchRequestE@Base 1.1.0
 _ZTSN10QtMobility22QGeoMapRectangleObjectE@Base 1.1.0
 _ZTSN10QtMobility22QGeoPositionInfoSourceE@Base 1.1.0
 _ZTSN10QtMobility22QLandmarkExportRequestE@Base 1.1.0
 _ZTSN10QtMobility22QLandmarkImportRequestE@Base 1.1.0
 _ZTSN10QtMobility22QLandmarkManagerEngineE@Base 1.1.0
 _ZTSN10QtMobility22QLandmarkRemoveRequestE@Base 1.1.0
 _ZTSN10QtMobility23QGeoSatelliteInfoSourceE@Base 1.1.0
 _ZTSN10QtMobility23QGeoSearchManagerEngineE@Base 1.1.0
 _ZTSN10QtMobility23QLandmarkCategoryFilterE@Base 1.1.0
 _ZTSN10QtMobility23QLandmarkIdFetchRequestE@Base 1.1.0
 _ZTSN10QtMobility23QNmeaPositionInfoSourceE@Base 1.1.0
 _ZTSN10QtMobility24QGeoMappingManagerEngineE@Base 1.1.0
 _ZTSN10QtMobility24QGeoRoutingManagerEngineE@Base 1.1.0
 _ZTSN10QtMobility24QLandmarkAbstractRequestE@Base 1.1.0
 _ZTSN10QtMobility24QLandmarkAttributeFilterE@Base 1.1.0
 _ZTSN10QtMobility24QLandmarkProximityFilterE@Base 1.1.0
 _ZTSN10QtMobility25QLandmarkFetchByIdRequestE@Base 1.1.0
 _ZTSN10QtMobility26QGeoServiceProviderFactoryE@Base 1.1.0
 _ZTSN10QtMobility27QLandmarkIntersectionFilterE@Base 1.1.0
 _ZTSN10QtMobility28QLandmarkCategorySaveRequestE@Base 1.1.0
 _ZTSN10QtMobility29QGeoPositionInfoSourceFactoryE@Base 1.2.0
 _ZTSN10QtMobility29QGeoTiledMappingManagerEngineE@Base 1.1.0
 _ZTSN10QtMobility29QLandmarkCategoryFetchRequestE@Base 1.1.0
 _ZTSN10QtMobility29QLandmarkManagerEngineFactoryE@Base 1.1.0
 _ZTSN10QtMobility30QLandmarkCategoryRemoveRequestE@Base 1.1.0
 _ZTSN10QtMobility31QLandmarkCategoryIdFetchRequestE@Base 1.1.0
 _ZTSN10QtMobility33QLandmarkCategoryFetchByIdRequestE@Base 1.1.0
 _ZTSN10QtMobility9QGeoPlaceE@Base 1.1.0
 _ZTSN10QtMobility9QLandmarkE@Base 1.1.0
 _ZTVN10QtMobility11QGeoMapDataE@Base 1.1.0
 _ZTVN10QtMobility13QGeoMapObjectE@Base 1.1.0
 _ZTVN10QtMobility14QGeoMapOverlayE@Base 1.1.0
 _ZTVN10QtMobility14QGeoRouteReplyE@Base 1.1.0
 _ZTVN10QtMobility15QGeoAreaMonitorE@Base 1.1.0
 _ZTVN10QtMobility15QGeoBoundingBoxE@Base 1.1.0
 _ZTVN10QtMobility15QGeoSearchReplyE@Base 1.1.0
 _ZTVN10QtMobility15QGraphicsGeoMapE@Base 1.1.0
 _ZTVN10QtMobility15QLandmarkFilterE@Base 1.1.0
 _ZTVN10QtMobility16QGeoBoundingAreaE@Base 1.1.0
 _ZTVN10QtMobility16QGeoTiledMapDataE@Base 1.1.0
 _ZTVN10QtMobility16QLandmarkManagerE@Base 1.1.0
 _ZTVN10QtMobility17QGeoMapObjectInfoE@Base 1.1.0
 _ZTVN10QtMobility17QGeoMapTextObjectE@Base 1.1.0
 _ZTVN10QtMobility17QGeoSearchManagerE@Base 1.1.0
 _ZTVN10QtMobility17QGeoTiledMapReplyE@Base 1.1.0
 _ZTVN10QtMobility17QLandmarkIdFilterE@Base 1.1.0
 _ZTVN10QtMobility17QLandmarkNameSortE@Base 1.1.0
 _ZTVN10QtMobility18QGeoBoundingCircleE@Base 1.1.0
 _ZTVN10QtMobility18QGeoMapGroupObjectE@Base 1.1.0
 _ZTVN10QtMobility18QGeoMapRouteObjectE@Base 1.1.0
 _ZTVN10QtMobility18QGeoMappingManagerE@Base 1.1.0
 _ZTVN10QtMobility18QGeoRoutingManagerE@Base 1.1.0
 _ZTVN10QtMobility18QLandmarkBoxFilterE@Base 1.1.0
 _ZTVN10QtMobility18QLandmarkSortOrderE@Base 1.1.0
 _ZTVN10QtMobility19QGeoMapCircleObjectE@Base 1.1.0
 _ZTVN10QtMobility19QGeoMapCustomObjectE@Base 1.2.0
 _ZTVN10QtMobility19QGeoMapPixmapObjectE@Base 1.1.0
 _ZTVN10QtMobility19QLandmarkNameFilterE@Base 1.1.0
 _ZTVN10QtMobility20QGeoMapPolygonObjectE@Base 1.1.0
 _ZTVN10QtMobility20QLandmarkSaveRequestE@Base 1.1.0
 _ZTVN10QtMobility20QLandmarkUnionFilterE@Base 1.1.0
 _ZTVN10QtMobility21QGeoMapPolylineObjectE@Base 1.1.0
 _ZTVN10QtMobility21QLandmarkFetchRequestE@Base 1.1.0
 _ZTVN10QtMobility22QGeoMapRectangleObjectE@Base 1.1.0
 _ZTVN10QtMobility22QGeoPositionInfoSourceE@Base 1.1.0
 _ZTVN10QtMobility22QLandmarkExportRequestE@Base 1.1.0
 _ZTVN10QtMobility22QLandmarkImportRequestE@Base 1.1.0
 _ZTVN10QtMobility22QLandmarkManagerEngineE@Base 1.1.0
 _ZTVN10QtMobility22QLandmarkRemoveRequestE@Base 1.1.0
 _ZTVN10QtMobility23QGeoSatelliteInfoSourceE@Base 1.1.0
 _ZTVN10QtMobility23QGeoSearchManagerEngineE@Base 1.1.0
 _ZTVN10QtMobility23QLandmarkCategoryFilterE@Base 1.1.0
 _ZTVN10QtMobility23QLandmarkIdFetchRequestE@Base 1.1.0
 _ZTVN10QtMobility23QNmeaPositionInfoSourceE@Base 1.1.0
 _ZTVN10QtMobility24QGeoMappingManagerEngineE@Base 1.1.0
 _ZTVN10QtMobility24QGeoRoutingManagerEngineE@Base 1.1.0
 _ZTVN10QtMobility24QLandmarkAbstractRequestE@Base 1.1.0
 _ZTVN10QtMobility24QLandmarkAttributeFilterE@Base 1.1.0
 _ZTVN10QtMobility24QLandmarkProximityFilterE@Base 1.1.0
 _ZTVN10QtMobility25QLandmarkFetchByIdRequestE@Base 1.1.0
 _ZTVN10QtMobility26QGeoServiceProviderFactoryE@Base 1.1.0
 _ZTVN10QtMobility27QLandmarkIntersectionFilterE@Base 1.1.0
 _ZTVN10QtMobility28QLandmarkCategorySaveRequestE@Base 1.1.0
 _ZTVN10QtMobility29QGeoPositionInfoSourceFactoryE@Base 1.2.0
 _ZTVN10QtMobility29QGeoTiledMappingManagerEngineE@Base 1.1.0
 _ZTVN10QtMobility29QLandmarkCategoryFetchRequestE@Base 1.1.0
 _ZTVN10QtMobility29QLandmarkManagerEngineFactoryE@Base 1.1.0
 _ZTVN10QtMobility30QLandmarkCategoryRemoveRequestE@Base 1.1.0
 _ZTVN10QtMobility31QLandmarkCategoryIdFetchRequestE@Base 1.1.0
 _ZTVN10QtMobility33QLandmarkCategoryFetchByIdRequestE@Base 1.1.0
 _ZTVN10QtMobility9QGeoPlaceE@Base 1.1.0
 _ZTVN10QtMobility9QLandmarkE@Base 1.1.0
 _ZeqRK5QRectS1_@Base 1.1.0
 _ZmlRK12QPainterPathRK10QTransform@Base 1.2.0
 _ZmlRK7QPointFRK10QTransform@Base 1.2.0
 _ZmlRK9QPolygonFRK10QTransform@Base 1.2.0
 (c++)"non-virtual thunk to QtMobility::QGraphicsGeoMap::paint(QPainter*, QStyleOptionGraphicsItem const*, QWidget*)@Base" 1.1.0
 (c++)"non-virtual thunk to QtMobility::QGraphicsGeoMap::shape() const@Base" 1.1.0
 (c++)"non-virtual thunk to QtMobility::QGraphicsGeoMap::~QGraphicsGeoMap()@Base" 1.1.0
