# SymbolsHelper-Confirmed: 1.2.0 amd64 i386 powerpc
libQtVersit.so.1 libqtversit1 #MINVER#
 _Z6qDebugv@Base 1.1.0
 _ZN10QByteArray4dataEv@Base 1.1.0
 _ZN10QByteArrayixEi@Base 1.1.0
 (arch=powerpc)_ZN10QtMobility11QContactTagC1ERKS0_@Base 1.2.0
 (arch=powerpc)_ZN10QtMobility11QContactTagC2ERKS0_@Base 1.2.0
 (arch=powerpc)_ZN10QtMobility11QContactTagD1Ev@Base 1.2.0
 (arch=powerpc)_ZN10QtMobility11QContactTagD2Ev@Base 1.2.0
 (arch=powerpc)_ZN10QtMobility11QContactUrlD1Ev@Base 1.2.0
 (arch=powerpc)_ZN10QtMobility11QContactUrlD2Ev@Base 1.2.0
 (arch=powerpc)_ZN10QtMobility12QContactGuidD1Ev@Base 1.2.0
 (arch=powerpc)_ZN10QtMobility12QContactGuidD2Ev@Base 1.2.0
 (arch=powerpc)_ZN10QtMobility12QContactNameC1ERKS0_@Base 1.2.0
 (arch=powerpc)_ZN10QtMobility12QContactNameC2ERKS0_@Base 1.2.0
 (arch=powerpc)_ZN10QtMobility12QContactNameD1Ev@Base 1.2.0
 (arch=powerpc)_ZN10QtMobility12QContactNameD2Ev@Base 1.2.0
 (arch=powerpc)_ZN10QtMobility12QContactNameaSERKS0_@Base 1.2.0
 (arch=powerpc)_ZN10QtMobility12QContactNoteD1Ev@Base 1.2.0
 (arch=powerpc)_ZN10QtMobility12QContactNoteD2Ev@Base 1.2.0
 _ZN10QtMobility13QVersitReader11qt_metacallEN11QMetaObject4CallEiPPv@Base 1.1.0
 _ZN10QtMobility13QVersitReader11qt_metacastEPKc@Base 1.1.0
 _ZN10QtMobility13QVersitReader12startReadingEv@Base 1.1.0
 _ZN10QtMobility13QVersitReader12stateChangedENS0_5StateE@Base 1.1.0
 _ZN10QtMobility13QVersitReader15setDefaultCodecEP10QTextCodec@Base 1.1.0
 _ZN10QtMobility13QVersitReader15waitForFinishedEi@Base 1.1.0
 _ZN10QtMobility13QVersitReader16resultsAvailableEv@Base 1.1.0
 _ZN10QtMobility13QVersitReader16staticMetaObjectE@Base 1.1.0
 _ZN10QtMobility13QVersitReader6cancelEv@Base 1.1.0
 _ZN10QtMobility13QVersitReader7setDataERK10QByteArray@Base 1.1.0
 _ZN10QtMobility13QVersitReader9setDeviceEP9QIODevice@Base 1.1.0
 _ZN10QtMobility13QVersitReaderC1EP9QIODevice@Base 1.1.0
 _ZN10QtMobility13QVersitReaderC1ERK10QByteArray@Base 1.1.0
 _ZN10QtMobility13QVersitReaderC1Ev@Base 1.1.0
 _ZN10QtMobility13QVersitReaderC2EP9QIODevice@Base 1.1.0
 _ZN10QtMobility13QVersitReaderC2ERK10QByteArray@Base 1.1.0
 _ZN10QtMobility13QVersitReaderC2Ev@Base 1.1.0
 _ZN10QtMobility13QVersitReaderD0Ev@Base 1.1.0
 _ZN10QtMobility13QVersitReaderD1Ev@Base 1.1.0
 _ZN10QtMobility13QVersitReaderD2Ev@Base 1.1.0
 _ZN10QtMobility13QVersitWriter11qt_metacallEN11QMetaObject4CallEiPPv@Base 1.1.0
 _ZN10QtMobility13QVersitWriter11qt_metacastEPKc@Base 1.1.0
 _ZN10QtMobility13QVersitWriter12startWritingERK5QListINS_15QVersitDocumentEE@Base 1.1.0
 _ZN10QtMobility13QVersitWriter12startWritingERK5QListINS_15QVersitDocumentEENS2_10VersitTypeE@Base 1.1.0
 _ZN10QtMobility13QVersitWriter12startWritingERKNS_15QVersitDocumentE@Base 1.1.0
 _ZN10QtMobility13QVersitWriter12startWritingERKNS_15QVersitDocumentENS1_10VersitTypeE@Base 1.1.0
 _ZN10QtMobility13QVersitWriter12stateChangedENS0_5StateE@Base 1.1.0
 _ZN10QtMobility13QVersitWriter15setDefaultCodecEP10QTextCodec@Base 1.1.0
 _ZN10QtMobility13QVersitWriter15waitForFinishedEi@Base 1.1.0
 _ZN10QtMobility13QVersitWriter16staticMetaObjectE@Base 1.1.0
 _ZN10QtMobility13QVersitWriter6cancelEv@Base 1.1.0
 _ZN10QtMobility13QVersitWriter9setDeviceEP9QIODevice@Base 1.1.0
 _ZN10QtMobility13QVersitWriterC1EP10QByteArray@Base 1.1.0
 _ZN10QtMobility13QVersitWriterC1EP9QIODevice@Base 1.1.0
 _ZN10QtMobility13QVersitWriterC1Ev@Base 1.1.0
 _ZN10QtMobility13QVersitWriterC2EP10QByteArray@Base 1.1.0
 _ZN10QtMobility13QVersitWriterC2EP9QIODevice@Base 1.1.0
 _ZN10QtMobility13QVersitWriterC2Ev@Base 1.1.0
 _ZN10QtMobility13QVersitWriterD0Ev@Base 1.1.0
 _ZN10QtMobility13QVersitWriterD1Ev@Base 1.1.0
 _ZN10QtMobility13QVersitWriterD2Ev@Base 1.1.0
 (arch=powerpc)_ZN10QtMobility14QContactAvatarD1Ev@Base 1.2.0
 (arch=powerpc)_ZN10QtMobility14QContactAvatarD2Ev@Base 1.2.0
 (optional=templinst)_ZN10QtMobility14QContactDetail8setValueILi10EEEbRKNS_15QLatin1ConstantIXT_EEERK8QVariant@Base 1.1.0
 (optional=templinst)_ZN10QtMobility14QContactDetail8setValueILi11EEEbRKNS_15QLatin1ConstantIXT_EEERK8QVariant@Base 1.1.0
 (optional=templinst)_ZN10QtMobility14QContactDetail8setValueILi12EEEbRKNS_15QLatin1ConstantIXT_EEERK8QVariant@Base 1.1.0
 (optional=templinst)_ZN10QtMobility14QContactDetail8setValueILi13EEEbRKNS_15QLatin1ConstantIXT_EEERK8QVariant@Base 1.1.0
 (optional=templinst)_ZN10QtMobility14QContactDetail8setValueILi14EEEbRKNS_15QLatin1ConstantIXT_EEERK8QVariant@Base 1.1.0
 (optional=templinst)_ZN10QtMobility14QContactDetail8setValueILi17EEEbRKNS_15QLatin1ConstantIXT_EEERK8QVariant@Base 1.1.0
 (optional=templinst)_ZN10QtMobility14QContactDetail8setValueILi22EEEbRKNS_15QLatin1ConstantIXT_EEERK8QVariant@Base 1.1.0
 (optional=templinst)_ZN10QtMobility14QContactDetail8setValueILi4EEEbRKNS_15QLatin1ConstantIXT_EEERK8QVariant@Base 1.1.0
 (optional=templinst)_ZN10QtMobility14QContactDetail8setValueILi5EEEbRKNS_15QLatin1ConstantIXT_EEERK8QVariant@Base 1.1.0
 (optional=templinst)_ZN10QtMobility14QContactDetail8setValueILi6EEEbRKNS_15QLatin1ConstantIXT_EEERK8QVariant@Base 1.1.0
 (optional=templinst)_ZN10QtMobility14QContactDetail8setValueILi7EEEbRKNS_15QLatin1ConstantIXT_EEERK8QVariant@Base 1.1.0
 (optional=templinst)_ZN10QtMobility14QContactDetail8setValueILi8EEEbRKNS_15QLatin1ConstantIXT_EEERK8QVariant@Base 1.1.0
 (optional=templinst)_ZN10QtMobility14QContactDetail8setValueILi9EEEbRKNS_15QLatin1ConstantIXT_EEERK8QVariant@Base 1.1.0
 (arch=powerpc)_ZN10QtMobility14QContactFamilyD1Ev@Base 1.2.0
 (arch=powerpc)_ZN10QtMobility14QContactFamilyD2Ev@Base 1.2.0
 (arch=powerpc)_ZN10QtMobility14QContactGenderD1Ev@Base 1.2.0
 (arch=powerpc)_ZN10QtMobility14QContactGenderD2Ev@Base 1.2.0
 (arch=powerpc)_ZN10QtMobility15QContactAddressD1Ev@Base 1.2.0
 (arch=powerpc)_ZN10QtMobility15QContactAddressD2Ev@Base 1.2.0
 _ZN10QtMobility15QVersitDocument11addPropertyERKNS_15QVersitPropertyE@Base 1.1.0
 _ZN10QtMobility15QVersitDocument13setPropertiesERK5QListINS_15QVersitPropertyEE@Base 1.1.0
 _ZN10QtMobility15QVersitDocument14addSubDocumentERKS0_@Base 1.1.0
 _ZN10QtMobility15QVersitDocument14removePropertyERKNS_15QVersitPropertyE@Base 1.1.0
 _ZN10QtMobility15QVersitDocument15setSubDocumentsERK5QListIS0_E@Base 1.1.0
 _ZN10QtMobility15QVersitDocument16removePropertiesERK7QString@Base 1.1.0
 _ZN10QtMobility15QVersitDocument16setComponentTypeE7QString@Base 1.1.0
 _ZN10QtMobility15QVersitDocument17removeSubDocumentERKS0_@Base 1.1.0
 _ZN10QtMobility15QVersitDocument5clearEv@Base 1.1.0
 _ZN10QtMobility15QVersitDocument7setTypeENS0_10VersitTypeE@Base 1.1.0
 _ZN10QtMobility15QVersitDocumentC1ENS0_10VersitTypeE@Base 1.1.0
 _ZN10QtMobility15QVersitDocumentC1ERKS0_@Base 1.1.0
 _ZN10QtMobility15QVersitDocumentC1Ev@Base 1.1.0
 _ZN10QtMobility15QVersitDocumentC2ENS0_10VersitTypeE@Base 1.1.0
 _ZN10QtMobility15QVersitDocumentC2ERKS0_@Base 1.1.0
 _ZN10QtMobility15QVersitDocumentC2Ev@Base 1.1.0
 _ZN10QtMobility15QVersitDocumentD1Ev@Base 1.1.0
 _ZN10QtMobility15QVersitDocumentD2Ev@Base 1.1.0
 _ZN10QtMobility15QVersitDocumentaSERKS0_@Base 1.1.0
 _ZN10QtMobility15QVersitProperty12setValueTypeENS0_9ValueTypeE@Base 1.1.0
 _ZN10QtMobility15QVersitProperty13setParametersERK10QMultiHashI7QStringS2_E@Base 1.1.0
 _ZN10QtMobility15QVersitProperty15insertParameterERK7QStringS3_@Base 1.1.0
 _ZN10QtMobility15QVersitProperty15removeParameterERK7QStringS3_@Base 1.1.0
 _ZN10QtMobility15QVersitProperty16removeParametersERK7QString@Base 1.1.0
 _ZN10QtMobility15QVersitProperty5clearEv@Base 1.1.0
 _ZN10QtMobility15QVersitProperty7setNameERK7QString@Base 1.1.0
 _ZN10QtMobility15QVersitProperty8setValueERK8QVariant@Base 1.1.0
 _ZN10QtMobility15QVersitProperty9setGroupsERK11QStringList@Base 1.1.0
 _ZN10QtMobility15QVersitPropertyC1ERKS0_@Base 1.1.0
 _ZN10QtMobility15QVersitPropertyC1Ev@Base 1.1.0
 _ZN10QtMobility15QVersitPropertyC2ERKS0_@Base 1.1.0
 _ZN10QtMobility15QVersitPropertyC2Ev@Base 1.1.0
 _ZN10QtMobility15QVersitPropertyD1Ev@Base 1.1.0
 _ZN10QtMobility15QVersitPropertyD2Ev@Base 1.1.0
 _ZN10QtMobility15QVersitPropertyaSERKS0_@Base 1.1.0
 (arch=powerpc)_ZN10QtMobility16QContactBirthdayD1Ev@Base 1.2.0
 (arch=powerpc)_ZN10QtMobility16QContactBirthdayD2Ev@Base 1.2.0
 (arch=powerpc)_ZN10QtMobility16QContactNicknameC1ERKS0_@Base 1.2.0
 (arch=powerpc)_ZN10QtMobility16QContactNicknameC2ERKS0_@Base 1.2.0
 (arch=powerpc)_ZN10QtMobility16QContactNicknameD1Ev@Base 1.2.0
 (arch=powerpc)_ZN10QtMobility16QContactNicknameD2Ev@Base 1.2.0
 (arch=powerpc)_ZN10QtMobility16QContactRingtoneD1Ev@Base 1.2.0
 (arch=powerpc)_ZN10QtMobility16QContactRingtoneD2Ev@Base 1.2.0
 (arch=powerpc)_ZN10QtMobility17QContactThumbnailD1Ev@Base 1.2.0
 (arch=powerpc)_ZN10QtMobility17QContactThumbnailD2Ev@Base 1.2.0
 (arch=powerpc)_ZN10QtMobility17QContactTimestampD1Ev@Base 1.2.0
 (arch=powerpc)_ZN10QtMobility17QContactTimestampD2Ev@Base 1.2.0
 (arch=powerpc)_ZN10QtMobility19QContactAnniversaryD1Ev@Base 1.2.0
 (arch=powerpc)_ZN10QtMobility19QContactAnniversaryD2Ev@Base 1.2.0
 (arch=powerpc)_ZN10QtMobility19QContactGeoLocationD1Ev@Base 1.2.0
 (arch=powerpc)_ZN10QtMobility19QContactGeoLocationD2Ev@Base 1.2.0
 (arch=powerpc)_ZN10QtMobility19QContactPhoneNumberD1Ev@Base 1.2.0
 (arch=powerpc)_ZN10QtMobility19QContactPhoneNumberD2Ev@Base 1.2.0
 (arch=powerpc)_ZN10QtMobility20QContactEmailAddressD1Ev@Base 1.2.0
 (arch=powerpc)_ZN10QtMobility20QContactEmailAddressD2Ev@Base 1.2.0
 (arch=powerpc)_ZN10QtMobility20QContactOrganizationC1ERKS0_@Base 1.2.0
 (arch=powerpc)_ZN10QtMobility20QContactOrganizationC2ERKS0_@Base 1.2.0
 (arch=powerpc)_ZN10QtMobility20QContactOrganizationD1Ev@Base 1.2.0
 (arch=powerpc)_ZN10QtMobility20QContactOrganizationD2Ev@Base 1.2.0
 (arch=powerpc)_ZN10QtMobility20QContactOrganizationaSERKS0_@Base 1.2.0
 (arch=powerpc)_ZN10QtMobility21QContactOnlineAccountD1Ev@Base 1.2.0
 (arch=powerpc)_ZN10QtMobility21QContactOnlineAccountD2Ev@Base 1.2.0
 _ZN10QtMobility22QVersitContactExporter14exportContactsERK5QListINS_8QContactEENS_15QVersitDocument10VersitTypeE@Base 1.1.0
 _ZN10QtMobility22QVersitContactExporter16setDetailHandlerEPNS_35QVersitContactExporterDetailHandlerE@Base 1.1.0
 _ZN10QtMobility22QVersitContactExporter16setDetailHandlerEPNS_37QVersitContactExporterDetailHandlerV2E@Base 1.1.0
 _ZN10QtMobility22QVersitContactExporter18setResourceHandlerEPNS_22QVersitResourceHandlerE@Base 1.1.0
 _ZN10QtMobility22QVersitContactExporterC1ERK11QStringList@Base 1.1.0
 _ZN10QtMobility22QVersitContactExporterC1ERK7QString@Base 1.1.0
 _ZN10QtMobility22QVersitContactExporterC1Ev@Base 1.1.0
 _ZN10QtMobility22QVersitContactExporterC2ERK11QStringList@Base 1.1.0
 _ZN10QtMobility22QVersitContactExporterC2ERK7QString@Base 1.1.0
 _ZN10QtMobility22QVersitContactExporterC2Ev@Base 1.1.0
 _ZN10QtMobility22QVersitContactExporterD1Ev@Base 1.1.0
 _ZN10QtMobility22QVersitContactExporterD2Ev@Base 1.1.0
 _ZN10QtMobility22QVersitContactImporter15importDocumentsERK5QListINS_15QVersitDocumentEE@Base 1.1.0
 _ZN10QtMobility22QVersitContactImporter18setPropertyHandlerEPNS_37QVersitContactImporterPropertyHandlerE@Base 1.1.0
 _ZN10QtMobility22QVersitContactImporter18setPropertyHandlerEPNS_39QVersitContactImporterPropertyHandlerV2E@Base 1.1.0
 _ZN10QtMobility22QVersitContactImporter18setResourceHandlerEPNS_22QVersitResourceHandlerE@Base 1.1.0
 _ZN10QtMobility22QVersitContactImporterC1ERK11QStringList@Base 1.1.0
 _ZN10QtMobility22QVersitContactImporterC1ERK7QString@Base 1.1.0
 _ZN10QtMobility22QVersitContactImporterC1Ev@Base 1.1.0
 _ZN10QtMobility22QVersitContactImporterC2ERK11QStringList@Base 1.1.0
 _ZN10QtMobility22QVersitContactImporterC2ERK7QString@Base 1.1.0
 _ZN10QtMobility22QVersitContactImporterC2Ev@Base 1.1.0
 _ZN10QtMobility22QVersitContactImporterD1Ev@Base 1.1.0
 _ZN10QtMobility22QVersitContactImporterD2Ev@Base 1.1.0
 (arch=powerpc)_ZN10QtMobility22QVersitResourceHandlerC1Ev@Base 1.2.0
 (arch=powerpc)_ZN10QtMobility22QVersitResourceHandlerC2Ev@Base 1.2.0
 _ZN10QtMobility28QVersitContactHandlerFactory11ProfileSyncE@Base 1.1.0
 _ZN10QtMobility28QVersitContactHandlerFactory13ProfileBackupE@Base 1.1.0
 _ZN10QtMobility29QVersitDefaultResourceHandler12loadResourceERK7QStringP10QByteArrayPS1_@Base 1.1.0
 _ZN10QtMobility29QVersitDefaultResourceHandler12saveResourceERK10QByteArrayRKNS_15QVersitPropertyEP7QString@Base 1.1.0
 _ZN10QtMobility29QVersitDefaultResourceHandlerC1Ev@Base 1.1.0
 _ZN10QtMobility29QVersitDefaultResourceHandlerC2Ev@Base 1.1.0
 _ZN10QtMobility29QVersitDefaultResourceHandlerD0Ev@Base 1.1.0
 _ZN10QtMobility29QVersitDefaultResourceHandlerD1Ev@Base 1.1.0
 _ZN10QtMobility29QVersitDefaultResourceHandlerD2Ev@Base 1.1.0
 _ZN10QtMobility5qHashERKNS_15QVersitDocumentE@Base 1.1.0
 _ZN10QtMobility5qHashERKNS_15QVersitPropertyE@Base 1.1.0
 _ZN10QtMobilitylsE6QDebugRKNS_15QVersitDocumentE@Base 1.1.0
 _ZN10QtMobilitylsE6QDebugRKNS_15QVersitPropertyE@Base 1.1.0
 _ZN15QBasicAtomicInt3refEv@Base 1.1.0
 _ZN15QBasicAtomicInt5derefEv@Base 1.1.0
 (arch=powerpc)_ZN15QBasicAtomicIntC1Ev@Base 1.2.0
 (arch=powerpc)_ZN15QBasicAtomicIntC2Ev@Base 1.2.0
 _ZN5QCharC1E11QLatin1Char@Base 1.1.0
 _ZN5QCharC1Ev@Base 1.1.0
 _ZN5QCharC2E11QLatin1Char@Base 1.1.0
 _ZN5QCharC2Ev@Base 1.1.0
 (arch=powerpc)_ZN6QDebug6StreamD1Ev@Base 1.2.0
 (arch=powerpc)_ZN6QDebug6StreamD2Ev@Base 1.2.0
 _ZN7QString5clearEv@Base 1.1.0
 (optional=templinst)_ZN8QVariant8setValueI10QByteArrayEEvRKT_@Base 1.1.0
 (optional=templinst)_ZN8QVariant8setValueI7QStringEEvRKT_@Base 1.1.0
 (optional=templinst)_ZN8QVariant9fromValueIN10QtMobility15QVersitDocumentEEES_RKT_@Base 1.1.0
 _ZN9QHashData8willGrowEv@Base 1.1.0
 _ZN9QHashData9firstNodeEv@Base 1.1.0
 _ZN9QHashData9hasShrunkEv@Base 1.1.0
 _ZNK10QByteArray2atEi@Base 1.1.0
 _ZNK10QByteArray4dataEv@Base 1.1.0
 _ZNK10QByteArray7isEmptyEv@Base 1.1.0
 _ZNK10QByteArraycvPKcEv@Base 1.2.0
 _ZNK10QByteArrayixEi@Base 1.1.0
 _ZNK10QtMobility13QVersitReader10metaObjectEv@Base 1.1.0
 _ZNK10QtMobility13QVersitReader12defaultCodecEv@Base 1.1.0
 _ZNK10QtMobility13QVersitReader5errorEv@Base 1.1.0
 _ZNK10QtMobility13QVersitReader5stateEv@Base 1.1.0
 _ZNK10QtMobility13QVersitReader6deviceEv@Base 1.1.0
 _ZNK10QtMobility13QVersitReader7resultsEv@Base 1.1.0
 _ZNK10QtMobility13QVersitWriter10metaObjectEv@Base 1.1.0
 _ZNK10QtMobility13QVersitWriter12defaultCodecEv@Base 1.1.0
 _ZNK10QtMobility13QVersitWriter5errorEv@Base 1.1.0
 _ZNK10QtMobility13QVersitWriter5stateEv@Base 1.1.0
 _ZNK10QtMobility13QVersitWriter6deviceEv@Base 1.1.0
 (optional=templinst)_ZNK10QtMobility14QContactDetail12variantValueILi10EEE8QVariantRKNS_15QLatin1ConstantIXT_EEE@Base 1.1.0
 (optional=templinst)_ZNK10QtMobility14QContactDetail12variantValueILi9EEE8QVariantRKNS_15QLatin1ConstantIXT_EEE@Base 1.1.0
 (optional=templinst)_ZNK10QtMobility14QContactDetail5valueI4QUrlEET_PKc@Base 1.1.0
 (optional=templinst)_ZNK10QtMobility14QContactDetail5valueI4QUrlLi9EEET_RKNS_15QLatin1ConstantIXT0_EEE@Base 1.1.0
 (optional=templinst)_ZNK10QtMobility14QContactDetail5valueI5QDateEET_PKc@Base 1.1.0
 (optional=templinst)_ZNK10QtMobility14QContactDetail5valueI5QDateLi13EEET_RKNS_15QLatin1ConstantIXT0_EEE@Base 1.1.0
 (optional=templinst)_ZNK10QtMobility14QContactDetail5valueI6QImageEET_PKc@Base 1.1.0
 (optional=templinst)_ZNK10QtMobility14QContactDetail5valueI6QImageLi10EEET_RKNS_15QLatin1ConstantIXT0_EEE@Base 1.1.0
 (optional=templinst)_ZNK10QtMobility14QContactDetail5valueI9QDateTimeEET_PKc@Base 1.1.0
 (optional=templinst)_ZNK10QtMobility14QContactDetail5valueI9QDateTimeLi18EEET_RKNS_15QLatin1ConstantIXT0_EEE@Base 1.1.0
 (optional=templinst)_ZNK10QtMobility14QContactDetail5valueI9QDateTimeLi22EEET_RKNS_15QLatin1ConstantIXT0_EEE@Base 1.1.0
 (optional=templinst)_ZNK10QtMobility14QContactDetail5valueILi10EEE7QStringRKNS_15QLatin1ConstantIXT_EEE@Base 1.1.0
 (optional=templinst)_ZNK10QtMobility14QContactDetail5valueILi11EEE7QStringRKNS_15QLatin1ConstantIXT_EEE@Base 1.1.0
 (optional=templinst)_ZNK10QtMobility14QContactDetail5valueILi12EEE7QStringRKNS_15QLatin1ConstantIXT_EEE@Base 1.1.0
 (optional=templinst)_ZNK10QtMobility14QContactDetail5valueILi13EEE7QStringRKNS_15QLatin1ConstantIXT_EEE@Base 1.1.0
 (optional=templinst)_ZNK10QtMobility14QContactDetail5valueILi14EEE7QStringRKNS_15QLatin1ConstantIXT_EEE@Base 1.1.0
 (optional=templinst)_ZNK10QtMobility14QContactDetail5valueILi17EEE7QStringRKNS_15QLatin1ConstantIXT_EEE@Base 1.1.0
 (optional=templinst)_ZNK10QtMobility14QContactDetail5valueILi4EEE7QStringRKNS_15QLatin1ConstantIXT_EEE@Base 1.1.0
 (optional=templinst)_ZNK10QtMobility14QContactDetail5valueILi5EEE7QStringRKNS_15QLatin1ConstantIXT_EEE@Base 1.1.0
 (optional=templinst)_ZNK10QtMobility14QContactDetail5valueILi6EEE7QStringRKNS_15QLatin1ConstantIXT_EEE@Base 1.1.0
 (optional=templinst)_ZNK10QtMobility14QContactDetail5valueILi7EEE7QStringRKNS_15QLatin1ConstantIXT_EEE@Base 1.1.0
 (optional=templinst)_ZNK10QtMobility14QContactDetail5valueILi8EEE7QStringRKNS_15QLatin1ConstantIXT_EEE@Base 1.1.0
 (optional=templinst)_ZNK10QtMobility14QContactDetail5valueILi9EEE7QStringRKNS_15QLatin1ConstantIXT_EEE@Base 1.1.0
 _ZNK10QtMobility15QVersitDocument10propertiesEv@Base 1.1.0
 _ZNK10QtMobility15QVersitDocument12subDocumentsEv@Base 1.1.0
 _ZNK10QtMobility15QVersitDocument13componentTypeEv@Base 1.1.0
 _ZNK10QtMobility15QVersitDocument4typeEv@Base 1.1.0
 _ZNK10QtMobility15QVersitDocument7isEmptyEv@Base 1.1.0
 _ZNK10QtMobility15QVersitDocumenteqERKS0_@Base 1.1.0
 _ZNK10QtMobility15QVersitDocumentneERKS0_@Base 1.1.0
 _ZNK10QtMobility15QVersitProperty10parametersEv@Base 1.1.0
 _ZNK10QtMobility15QVersitProperty12variantValueEv@Base 1.1.0
 _ZNK10QtMobility15QVersitProperty4nameEv@Base 1.1.0
 _ZNK10QtMobility15QVersitProperty5valueEv@Base 1.1.0
 (optional=templinst)_ZNK10QtMobility15QVersitProperty5valueINS_15QVersitDocumentEEET_v@Base 1.1.0
 _ZNK10QtMobility15QVersitProperty6groupsEv@Base 1.1.0
 _ZNK10QtMobility15QVersitProperty7isEmptyEv@Base 1.1.0
 _ZNK10QtMobility15QVersitProperty9valueTypeEv@Base 1.1.0
 _ZNK10QtMobility15QVersitPropertyeqERKS0_@Base 1.1.0
 _ZNK10QtMobility15QVersitPropertyneERKS0_@Base 1.1.0
 _ZNK10QtMobility22QVersitContactExporter13detailHandlerEv@Base 1.1.0
 _ZNK10QtMobility22QVersitContactExporter15resourceHandlerEv@Base 1.1.0
 _ZNK10QtMobility22QVersitContactExporter6errorsEv@Base 1.1.0
 _ZNK10QtMobility22QVersitContactExporter8errorMapEv@Base 1.1.0
 _ZNK10QtMobility22QVersitContactExporter9documentsEv@Base 1.1.0
 _ZNK10QtMobility22QVersitContactImporter15propertyHandlerEv@Base 1.1.0
 _ZNK10QtMobility22QVersitContactImporter15resourceHandlerEv@Base 1.1.0
 _ZNK10QtMobility22QVersitContactImporter6errorsEv@Base 1.1.0
 _ZNK10QtMobility22QVersitContactImporter8contactsEv@Base 1.1.0
 _ZNK10QtMobility22QVersitContactImporter8errorMapEv@Base 1.1.0
 (optional=templinst)_ZNK10QtMobility8QContact6detailILi5EEENS_14QContactDetailERKNS_15QLatin1ConstantIXT_EEE@Base 1.1.0
 (optional=templinst)_ZNK10QtMobility8QContact6detailINS_12QContactNameEEET_v@Base 1.1.0
 (optional=templinst)_ZNK10QtMobility8QContact6detailINS_14QContactFamilyEEET_v@Base 1.1.0
 (optional=templinst)_ZNK10QtMobility8QContact6detailINS_17QContactThumbnailEEET_v@Base 1.1.0
 (optional=templinst)_ZNK10QtMobility8QContact7detailsINS_11QContactTagEEE5QListIT_Ev@Base 1.1.0
 (optional=templinst)_ZNK10QtMobility8QContact7detailsINS_12QContactNameEEE5QListIT_Ev@Base 1.1.0
 (optional=templinst)_ZNK10QtMobility8QContact7detailsINS_16QContactNicknameEEE5QListIT_Ev@Base 1.1.0
 (optional=templinst)_ZNK10QtMobility8QContact7detailsINS_20QContactOrganizationEEE5QListIT_Ev@Base 1.1.0
 _ZNK7QString3argEtiiRK5QChar@Base 1.1.0
 _ZNK7QStringixEi@Base 1.2.0
 (optional=templinst)_ZNK8QVariant10canConvertIN10QtMobility15QVersitDocumentEEEbv@Base 1.1.0
 (optional=templinst)_ZNK8QVariant5valueI4QUrlEET_v@Base 1.1.0
 (optional=templinst)_ZNK8QVariant5valueI5QDateEET_v@Base 1.1.0
 (optional=templinst)_ZNK8QVariant5valueI6QImageEET_v@Base 1.1.0
 (optional=templinst)_ZNK8QVariant5valueI9QDateTimeEET_v@Base 1.1.0
 (optional=templinst)_ZNK8QVariant5valueIN10QtMobility15QVersitDocumentEEET_v@Base 1.1.0
 (optional=templinst)_ZSt4swapIPN10QtMobility28QVersitContactHandlerFactoryEEvRT_S4_@Base 1.2.0
 (optional=templinst)_ZSt4swapIPN7QString4DataEEvRT_S4_@Base 1.2.0
 _ZTIN10QtMobility13QVersitReaderE@Base 1.1.0
 _ZTIN10QtMobility13QVersitWriterE@Base 1.1.0
 _ZTIN10QtMobility22QVersitResourceHandlerE@Base 1.1.0
 _ZTIN10QtMobility29QVersitDefaultResourceHandlerE@Base 1.1.0
 _ZTSN10QtMobility13QVersitReaderE@Base 1.1.0
 _ZTSN10QtMobility13QVersitWriterE@Base 1.1.0
 _ZTSN10QtMobility22QVersitResourceHandlerE@Base 1.1.0
 _ZTSN10QtMobility29QVersitDefaultResourceHandlerE@Base 1.1.0
 _ZTVN10QtMobility13QVersitReaderE@Base 1.1.0
 _ZTVN10QtMobility13QVersitWriterE@Base 1.1.0
 _ZTVN10QtMobility22QVersitResourceHandlerE@Base 1.1.0
 _ZTVN10QtMobility29QVersitDefaultResourceHandlerE@Base 1.1.0
