# SymbolsHelper-Confirmed: 1.2.0 amd64
libQtGallery.so.1 libqtgallery1 #MINVER#
 _ZN10QByteArray4dataEv@Base 1.1.0
 _ZN10QDBusErrorD1Ev@Base 1.2.0
 _ZN10QDBusErrorD2Ev@Base 1.2.0
 (optional=templinst)_ZN10QtMobility13qt_writeValueI7QRegExpEEbPNS_16QDocumentGallery5ErrorEP16QXmlStreamWriterRK8QVariant@Base 1.1.0
 (optional=templinst)_ZN10QtMobility13qt_writeValueI7QStringEEbPNS_16QDocumentGallery5ErrorEP16QXmlStreamWriterRK8QVariant@Base 1.1.0
 (optional=templinst)_ZN10QtMobility13qt_writeValueI8QVariantEEbPNS_16QDocumentGallery5ErrorEP16QXmlStreamWriterRKS1_@Base 1.1.0
 (optional=templinst)_ZN10QtMobility13qt_writeValueI9QDateTimeEEbPNS_16QDocumentGallery5ErrorEP16QXmlStreamWriterRK8QVariant@Base 1.1.0
 (optional=templinst)_ZN10QtMobility13qt_writeValueIiEEbPNS_16QDocumentGallery5ErrorEP16QXmlStreamWriterRK8QVariant@Base 1.1.0
 (optional=templinst|subst)_ZN10QtMobility13qt_writeValueI{qreal}EEbPNS_16QDocumentGallery5ErrorEP16QXmlStreamWriterRK8QVariant@Base 1.1.0
 _ZN10QtMobility14QGalleryFilterC1ERKNS_19QGalleryUnionFilterE@Base 1.1.0
 _ZN10QtMobility14QGalleryFilterC1ERKNS_22QGalleryMetaDataFilterE@Base 1.1.0
 _ZN10QtMobility14QGalleryFilterC1ERKNS_26QGalleryIntersectionFilterE@Base 1.1.0
 _ZN10QtMobility14QGalleryFilterC1ERKS0_@Base 1.1.0
 _ZN10QtMobility14QGalleryFilterC1Ev@Base 1.1.0
 _ZN10QtMobility14QGalleryFilterC2ERKNS_19QGalleryUnionFilterE@Base 1.1.0
 _ZN10QtMobility14QGalleryFilterC2ERKNS_22QGalleryMetaDataFilterE@Base 1.1.0
 _ZN10QtMobility14QGalleryFilterC2ERKNS_26QGalleryIntersectionFilterE@Base 1.1.0
 _ZN10QtMobility14QGalleryFilterC2ERKS0_@Base 1.1.0
 _ZN10QtMobility14QGalleryFilterC2Ev@Base 1.1.0
 _ZN10QtMobility14QGalleryFilterD1Ev@Base 1.1.0
 _ZN10QtMobility14QGalleryFilterD2Ev@Base 1.1.0
 _ZN10QtMobility14QGalleryFilteraSERKS0_@Base 1.1.0
 _ZN10QtMobility16QAbstractGallery11qt_metacallEN11QMetaObject4CallEiPPv@Base 1.1.0
 _ZN10QtMobility16QAbstractGallery11qt_metacastEPKc@Base 1.1.0
 _ZN10QtMobility16QAbstractGallery16staticMetaObjectE@Base 1.1.0
 _ZN10QtMobility16QAbstractGalleryC1EP7QObject@Base 1.1.0
 _ZN10QtMobility16QAbstractGalleryC1ERNS_23QAbstractGalleryPrivateEP7QObject@Base 1.1.0
 _ZN10QtMobility16QAbstractGalleryC2EP7QObject@Base 1.1.0
 _ZN10QtMobility16QAbstractGalleryC2ERNS_23QAbstractGalleryPrivateEP7QObject@Base 1.1.0
 _ZN10QtMobility16QAbstractGalleryD0Ev@Base 1.1.0
 _ZN10QtMobility16QAbstractGalleryD1Ev@Base 1.1.0
 _ZN10QtMobility16QAbstractGalleryD2Ev@Base 1.1.0
 _ZN10QtMobility16QDocumentGallery10AudioGenreE@Base 1.1.0
 _ZN10QtMobility16QDocumentGallery10PhotoAlbumE@Base 1.1.0
 _ZN10QtMobility16QDocumentGallery10albumTitleE@Base 1.1.0
 _ZN10QtMobility16QDocumentGallery10audioCodecE@Base 1.1.0
 _ZN10QtMobility16QDocumentGallery10discNumberE@Base 1.1.0
 _ZN10QtMobility16QDocumentGallery10lastPlayedE@Base 1.1.0
 _ZN10QtMobility16QDocumentGallery10sampleRateE@Base 1.1.0
 _ZN10QtMobility16QDocumentGallery10trackCountE@Base 1.1.0
 _ZN10QtMobility16QDocumentGallery10videoCodecE@Base 1.1.0
 _ZN10QtMobility16QDocumentGallery11AlbumArtistE@Base 1.1.0
 _ZN10QtMobility16QDocumentGallery11albumArtistE@Base 1.1.0
 _ZN10QtMobility16QDocumentGallery11cameraModelE@Base 1.1.0
 _ZN10QtMobility16QDocumentGallery11descriptionE@Base 1.1.0
 _ZN10QtMobility16QDocumentGallery11focalLengthE@Base 1.1.0
 _ZN10QtMobility16QDocumentGallery11orientationE@Base 1.1.0
 _ZN10QtMobility16QDocumentGallery11qt_metacallEN11QMetaObject4CallEiPPv@Base 1.1.0
 _ZN10QtMobility16QDocumentGallery11qt_metacastEPKc@Base 1.1.0
 _ZN10QtMobility16QDocumentGallery11trackNumberE@Base 1.1.0
 _ZN10QtMobility16QDocumentGallery12audioBitRateE@Base 1.1.0
 _ZN10QtMobility16QDocumentGallery12channelCountE@Base 1.1.0
 _ZN10QtMobility16QDocumentGallery12exposureTimeE@Base 1.1.0
 _ZN10QtMobility16QDocumentGallery12flashEnabledE@Base 1.1.0
 _ZN10QtMobility16QDocumentGallery12lastAccessedE@Base 1.1.0
 _ZN10QtMobility16QDocumentGallery12lastModifiedE@Base 1.1.0
 _ZN10QtMobility16QDocumentGallery12meteringModeE@Base 1.1.0
 _ZN10QtMobility16QDocumentGallery12videoBitRateE@Base 1.1.0
 _ZN10QtMobility16QDocumentGallery12whiteBalanceE@Base 1.1.0
 _ZN10QtMobility16QDocumentGallery13fileExtensionE@Base 1.1.0
 _ZN10QtMobility16QDocumentGallery14createResponseEPNS_23QGalleryAbstractRequestE@Base 1.1.0
 _ZN10QtMobility16QDocumentGallery14resumePositionE@Base 1.1.0
 _ZN10QtMobility16QDocumentGallery15exposureProgramE@Base 1.1.0
 _ZN10QtMobility16QDocumentGallery16staticMetaObjectE@Base 1.1.0
 _ZN10QtMobility16QDocumentGallery18cameraManufacturerE@Base 1.1.0
 _ZN10QtMobility16QDocumentGallery3urlE@Base 1.1.0
 _ZN10QtMobility16QDocumentGallery4FileE@Base 1.1.0
 _ZN10QtMobility16QDocumentGallery4TextE@Base 1.1.0
 _ZN10QtMobility16QDocumentGallery4pathE@Base 1.1.0
 _ZN10QtMobility16QDocumentGallery5AlbumE@Base 1.1.0
 _ZN10QtMobility16QDocumentGallery5AudioE@Base 1.1.0
 _ZN10QtMobility16QDocumentGallery5ImageE@Base 1.1.0
 _ZN10QtMobility16QDocumentGallery5VideoE@Base 1.1.0
 _ZN10QtMobility16QDocumentGallery5countE@Base 1.1.0
 _ZN10QtMobility16QDocumentGallery5genreE@Base 1.1.0
 _ZN10QtMobility16QDocumentGallery5titleE@Base 1.1.0
 _ZN10QtMobility16QDocumentGallery5widthE@Base 1.1.0
 _ZN10QtMobility16QDocumentGallery6ArtistE@Base 1.1.0
 _ZN10QtMobility16QDocumentGallery6FolderE@Base 1.1.0
 _ZN10QtMobility16QDocumentGallery6artistE@Base 1.1.0
 _ZN10QtMobility16QDocumentGallery6authorE@Base 1.1.0
 _ZN10QtMobility16QDocumentGallery6heightE@Base 1.1.0
 _ZN10QtMobility16QDocumentGallery6lyricsE@Base 1.1.0
 _ZN10QtMobility16QDocumentGallery6ratingE@Base 1.1.0
 _ZN10QtMobility16QDocumentGallery7createdE@Base 1.1.0
 _ZN10QtMobility16QDocumentGallery7fNumberE@Base 1.1.0
 _ZN10QtMobility16QDocumentGallery7subjectE@Base 1.1.0
 _ZN10QtMobility16QDocumentGallery8DocumentE@Base 1.1.0
 _ZN10QtMobility16QDocumentGallery8PlaylistE@Base 1.1.0
 _ZN10QtMobility16QDocumentGallery8commentsE@Base 1.1.0
 _ZN10QtMobility16QDocumentGallery8composerE@Base 1.1.0
 _ZN10QtMobility16QDocumentGallery8directorE@Base 1.1.0
 _ZN10QtMobility16QDocumentGallery8durationE@Base 1.1.0
 _ZN10QtMobility16QDocumentGallery8fileNameE@Base 1.1.0
 _ZN10QtMobility16QDocumentGallery8filePathE@Base 1.1.0
 _ZN10QtMobility16QDocumentGallery8fileSizeE@Base 1.1.0
 _ZN10QtMobility16QDocumentGallery8keywordsE@Base 1.1.0
 _ZN10QtMobility16QDocumentGallery8languageE@Base 1.1.0
 _ZN10QtMobility16QDocumentGallery8mimeTypeE@Base 1.1.0
 _ZN10QtMobility16QDocumentGallery8producerE@Base 1.1.0
 _ZN10QtMobility16QDocumentGallery9copyrightE@Base 1.1.0
 _ZN10QtMobility16QDocumentGallery9dateTakenE@Base 1.1.0
 _ZN10QtMobility16QDocumentGallery9frameRateE@Base 1.1.0
 _ZN10QtMobility16QDocumentGallery9pageCountE@Base 1.1.0
 _ZN10QtMobility16QDocumentGallery9performerE@Base 1.1.0
 _ZN10QtMobility16QDocumentGallery9playCountE@Base 1.1.0
 _ZN10QtMobility16QDocumentGallery9wordCountE@Base 1.1.0
 _ZN10QtMobility16QDocumentGalleryC1EP7QObject@Base 1.1.0
 _ZN10QtMobility16QDocumentGalleryC2EP7QObject@Base 1.1.0
 _ZN10QtMobility16QDocumentGalleryD0Ev@Base 1.1.0
 _ZN10QtMobility16QDocumentGalleryD1Ev@Base 1.1.0
 _ZN10QtMobility16QDocumentGalleryD2Ev@Base 1.1.0
 _ZN10QtMobility16QGalleryResourceC1ERK4QUrl4QMapIi8QVariantE@Base 1.1.0
 _ZN10QtMobility16QGalleryResourceC1ERK4QUrl@Base 1.1.0
 _ZN10QtMobility16QGalleryResourceC1ERKS0_@Base 1.1.0
 _ZN10QtMobility16QGalleryResourceC1Ev@Base 1.1.0
 _ZN10QtMobility16QGalleryResourceC2ERK4QUrl4QMapIi8QVariantE@Base 1.1.0
 _ZN10QtMobility16QGalleryResourceC2ERK4QUrl@Base 1.1.0
 _ZN10QtMobility16QGalleryResourceC2ERKS0_@Base 1.1.0
 _ZN10QtMobility16QGalleryResourceC2Ev@Base 1.1.0
 _ZN10QtMobility16QGalleryResourceD1Ev@Base 1.1.0
 _ZN10QtMobility16QGalleryResourceD2Ev@Base 1.1.0
 _ZN10QtMobility16QGalleryResourceaSERKS0_@Base 1.1.0
 _ZN10QtMobility17QGalleryResultSet10fetchFirstEv@Base 1.1.0
 _ZN10QtMobility17QGalleryResultSet10itemsMovedEiii@Base 1.1.0
 _ZN10QtMobility17QGalleryResultSet11qt_metacallEN11QMetaObject4CallEiPPv@Base 1.1.0
 _ZN10QtMobility17QGalleryResultSet11qt_metacastEPKc@Base 1.1.0
 _ZN10QtMobility17QGalleryResultSet12itemsRemovedEii@Base 1.1.0
 _ZN10QtMobility17QGalleryResultSet13fetchPreviousEv@Base 1.1.0
 _ZN10QtMobility17QGalleryResultSet13itemsInsertedEii@Base 1.1.0
 _ZN10QtMobility17QGalleryResultSet15metaDataChangedEiiRK5QListIiE@Base 1.1.0
 _ZN10QtMobility17QGalleryResultSet16staticMetaObjectE@Base 1.1.0
 _ZN10QtMobility17QGalleryResultSet18currentItemChangedEv@Base 1.1.0
 _ZN10QtMobility17QGalleryResultSet19currentIndexChangedEi@Base 1.1.0
 _ZN10QtMobility17QGalleryResultSet9fetchLastEv@Base 1.1.0
 _ZN10QtMobility17QGalleryResultSet9fetchNextEv@Base 1.1.0
 _ZN10QtMobility17QGalleryResultSetC1EP7QObject@Base 1.1.0
 _ZN10QtMobility17QGalleryResultSetC1ERNS_24QGalleryResultSetPrivateEP7QObject@Base 1.1.0
 _ZN10QtMobility17QGalleryResultSetC2EP7QObject@Base 1.1.0
 _ZN10QtMobility17QGalleryResultSetC2ERNS_24QGalleryResultSetPrivateEP7QObject@Base 1.1.0
 _ZN10QtMobility17QGalleryResultSetD0Ev@Base 1.1.0
 _ZN10QtMobility17QGalleryResultSetD1Ev@Base 1.1.0
 _ZN10QtMobility17QGalleryResultSetD2Ev@Base 1.1.0
 _ZN10QtMobility18QGalleryQueryModel10setGalleryEPNS_16QAbstractGalleryE@Base 1.1.0
 _ZN10QtMobility18QGalleryQueryModel11qt_metacallEN11QMetaObject4CallEiPPv@Base 1.1.0
 _ZN10QtMobility18QGalleryQueryModel11qt_metacastEPKc@Base 1.1.0
 _ZN10QtMobility18QGalleryQueryModel11setRootItemERK8QVariant@Base 1.1.0
 _ZN10QtMobility18QGalleryQueryModel11setRootTypeERK7QString@Base 1.1.0
 _ZN10QtMobility18QGalleryQueryModel12errorChangedEv@Base 1.1.0
 _ZN10QtMobility18QGalleryQueryModel12insertColumnEiRK5QHashIi7QStringE@Base 1.1.0
 _ZN10QtMobility18QGalleryQueryModel12insertColumnEiRK7QStringi@Base 1.1.0
 _ZN10QtMobility18QGalleryQueryModel12limitChangedEv@Base 1.1.0
 _ZN10QtMobility18QGalleryQueryModel12removeColumnEi@Base 1.1.0
 _ZN10QtMobility18QGalleryQueryModel12scopeChangedEv@Base 1.1.0
 _ZN10QtMobility18QGalleryQueryModel12stateChangedENS_23QGalleryAbstractRequest5StateE@Base 1.1.0
 _ZN10QtMobility18QGalleryQueryModel13filterChangedEv@Base 1.1.0
 _ZN10QtMobility18QGalleryQueryModel13offsetChangedEv@Base 1.1.0
 _ZN10QtMobility18QGalleryQueryModel13setAutoUpdateEb@Base 1.1.0
 _ZN10QtMobility18QGalleryQueryModel13setHeaderDataEiN2Qt11OrientationERK8QVarianti@Base 1.1.0
 _ZN10QtMobility18QGalleryQueryModel14galleryChangedEv@Base 1.1.0
 _ZN10QtMobility18QGalleryQueryModel15rootItemChangedEv@Base 1.1.0
 _ZN10QtMobility18QGalleryQueryModel15rootTypeChangedEv@Base 1.1.0
 _ZN10QtMobility18QGalleryQueryModel16staticMetaObjectE@Base 1.1.0
 _ZN10QtMobility18QGalleryQueryModel17autoUpdateChangedEv@Base 1.1.0
 _ZN10QtMobility18QGalleryQueryModel17setRolePropertiesEiRK5QHashIi7QStringE@Base 1.1.0
 _ZN10QtMobility18QGalleryQueryModel20setSortPropertyNamesERK11QStringList@Base 1.1.0
 _ZN10QtMobility18QGalleryQueryModel24sortPropertyNamesChangedEv@Base 1.1.0
 _ZN10QtMobility18QGalleryQueryModel5clearEv@Base 1.1.0
 _ZN10QtMobility18QGalleryQueryModel5errorEiRK7QString@Base 1.1.0
 _ZN10QtMobility18QGalleryQueryModel6cancelEv@Base 1.1.0
 _ZN10QtMobility18QGalleryQueryModel7executeEv@Base 1.1.0
 _ZN10QtMobility18QGalleryQueryModel7setDataERK11QModelIndexRK8QVarianti@Base 1.1.0
 _ZN10QtMobility18QGalleryQueryModel8canceledEv@Base 1.1.0
 _ZN10QtMobility18QGalleryQueryModel8finishedEv@Base 1.1.0
 _ZN10QtMobility18QGalleryQueryModel8setLimitEi@Base 1.1.0
 _ZN10QtMobility18QGalleryQueryModel8setScopeENS_20QGalleryQueryRequest5ScopeE@Base 1.1.0
 _ZN10QtMobility18QGalleryQueryModel9addColumnERK5QHashIi7QStringE@Base 1.1.0
 _ZN10QtMobility18QGalleryQueryModel9addColumnERK7QStringi@Base 1.1.0
 _ZN10QtMobility18QGalleryQueryModel9setFilterERKNS_14QGalleryFilterE@Base 1.1.0
 _ZN10QtMobility18QGalleryQueryModel9setOffsetEi@Base 1.1.0
 _ZN10QtMobility18QGalleryQueryModelC1EP7QObject@Base 1.1.0
 _ZN10QtMobility18QGalleryQueryModelC1EPNS_16QAbstractGalleryEP7QObject@Base 1.1.0
 _ZN10QtMobility18QGalleryQueryModelC2EP7QObject@Base 1.1.0
 _ZN10QtMobility18QGalleryQueryModelC2EPNS_16QAbstractGalleryEP7QObject@Base 1.1.0
 _ZN10QtMobility18QGalleryQueryModelD0Ev@Base 1.1.0
 _ZN10QtMobility18QGalleryQueryModelD1Ev@Base 1.1.0
 _ZN10QtMobility18QGalleryQueryModelD2Ev@Base 1.1.0
 _ZN10QtMobility19QGalleryItemRequest11itemChangedEv@Base 1.1.0
 _ZN10QtMobility19QGalleryItemRequest11qt_metacallEN11QMetaObject4CallEiPPv@Base 1.1.0
 _ZN10QtMobility19QGalleryItemRequest11qt_metacastEPKc@Base 1.1.0
 _ZN10QtMobility19QGalleryItemRequest11setMetaDataERK7QStringRK8QVariant@Base 1.1.0
 _ZN10QtMobility19QGalleryItemRequest11setMetaDataEiRK8QVariant@Base 1.1.0
 _ZN10QtMobility19QGalleryItemRequest11setResponseEPNS_24QGalleryAbstractResponseE@Base 1.1.0
 _ZN10QtMobility19QGalleryItemRequest13itemIdChangedEv@Base 1.1.0
 _ZN10QtMobility19QGalleryItemRequest13setAutoUpdateEb@Base 1.1.0
 _ZN10QtMobility19QGalleryItemRequest15metaDataChangedERK5QListIiE@Base 1.1.0
 _ZN10QtMobility19QGalleryItemRequest16resultSetChangedEPNS_17QGalleryResultSetE@Base 1.1.0
 _ZN10QtMobility19QGalleryItemRequest16setPropertyNamesERK11QStringList@Base 1.1.0
 _ZN10QtMobility19QGalleryItemRequest16staticMetaObjectE@Base 1.1.0
 _ZN10QtMobility19QGalleryItemRequest17autoUpdateChangedEv@Base 1.1.0
 _ZN10QtMobility19QGalleryItemRequest20propertyNamesChangedEv@Base 1.1.0
 _ZN10QtMobility19QGalleryItemRequest9setItemIdERK8QVariant@Base 1.1.0
 _ZN10QtMobility19QGalleryItemRequestC1EP7QObject@Base 1.1.0
 _ZN10QtMobility19QGalleryItemRequestC1EPNS_16QAbstractGalleryEP7QObject@Base 1.1.0
 _ZN10QtMobility19QGalleryItemRequestC2EP7QObject@Base 1.1.0
 _ZN10QtMobility19QGalleryItemRequestC2EPNS_16QAbstractGalleryEP7QObject@Base 1.1.0
 _ZN10QtMobility19QGalleryItemRequestD0Ev@Base 1.1.0
 _ZN10QtMobility19QGalleryItemRequestD1Ev@Base 1.1.0
 _ZN10QtMobility19QGalleryItemRequestD2Ev@Base 1.1.0
 _ZN10QtMobility19QGalleryTypeRequest11qt_metacallEN11QMetaObject4CallEiPPv@Base 1.1.0
 _ZN10QtMobility19QGalleryTypeRequest11qt_metacastEPKc@Base 1.1.0
 _ZN10QtMobility19QGalleryTypeRequest11setItemTypeERK7QString@Base 1.1.0
 _ZN10QtMobility19QGalleryTypeRequest11setResponseEPNS_24QGalleryAbstractResponseE@Base 1.1.0
 _ZN10QtMobility19QGalleryTypeRequest11typeChangedEv@Base 1.1.0
 _ZN10QtMobility19QGalleryTypeRequest13setAutoUpdateEb@Base 1.1.0
 _ZN10QtMobility19QGalleryTypeRequest15itemTypeChangedEv@Base 1.1.0
 _ZN10QtMobility19QGalleryTypeRequest15metaDataChangedERK5QListIiE@Base 1.1.0
 _ZN10QtMobility19QGalleryTypeRequest16resultSetChangedEPNS_17QGalleryResultSetE@Base 1.1.0
 _ZN10QtMobility19QGalleryTypeRequest16setPropertyNamesERK11QStringList@Base 1.1.0
 _ZN10QtMobility19QGalleryTypeRequest16staticMetaObjectE@Base 1.1.0
 _ZN10QtMobility19QGalleryTypeRequest17autoUpdateChangedEv@Base 1.1.0
 _ZN10QtMobility19QGalleryTypeRequest20propertyNamesChangedEv@Base 1.1.0
 _ZN10QtMobility19QGalleryTypeRequestC1EP7QObject@Base 1.1.0
 _ZN10QtMobility19QGalleryTypeRequestC1EPNS_16QAbstractGalleryEP7QObject@Base 1.1.0
 _ZN10QtMobility19QGalleryTypeRequestC2EP7QObject@Base 1.1.0
 _ZN10QtMobility19QGalleryTypeRequestC2EPNS_16QAbstractGalleryEP7QObject@Base 1.1.0
 _ZN10QtMobility19QGalleryTypeRequestD0Ev@Base 1.1.0
 _ZN10QtMobility19QGalleryTypeRequestD1Ev@Base 1.1.0
 _ZN10QtMobility19QGalleryTypeRequestD2Ev@Base 1.1.0
 _ZN10QtMobility19QGalleryUnionFilter5clearEv@Base 1.1.0
 _ZN10QtMobility19QGalleryUnionFilter6appendERKNS_22QGalleryMetaDataFilterE@Base 1.1.0
 _ZN10QtMobility19QGalleryUnionFilter6appendERKNS_26QGalleryIntersectionFilterE@Base 1.1.0
 _ZN10QtMobility19QGalleryUnionFilter6appendERKS0_@Base 1.1.0
 _ZN10QtMobility19QGalleryUnionFilter6insertEiRKNS_22QGalleryMetaDataFilterE@Base 1.1.0
 _ZN10QtMobility19QGalleryUnionFilter6insertEiRKNS_26QGalleryIntersectionFilterE@Base 1.1.0
 _ZN10QtMobility19QGalleryUnionFilter6insertEiRKS0_@Base 1.1.0
 _ZN10QtMobility19QGalleryUnionFilter6removeEi@Base 1.1.0
 _ZN10QtMobility19QGalleryUnionFilter7prependERKNS_22QGalleryMetaDataFilterE@Base 1.1.0
 _ZN10QtMobility19QGalleryUnionFilter7prependERKNS_26QGalleryIntersectionFilterE@Base 1.1.0
 _ZN10QtMobility19QGalleryUnionFilter7prependERKS0_@Base 1.1.0
 _ZN10QtMobility19QGalleryUnionFilter7replaceEiRKNS_22QGalleryMetaDataFilterE@Base 1.1.0
 _ZN10QtMobility19QGalleryUnionFilter7replaceEiRKNS_26QGalleryIntersectionFilterE@Base 1.1.0
 _ZN10QtMobility19QGalleryUnionFilterC1ERKNS_22QGalleryMetaDataFilterE@Base 1.1.0
 _ZN10QtMobility19QGalleryUnionFilterC1ERKNS_26QGalleryIntersectionFilterE@Base 1.1.0
 _ZN10QtMobility19QGalleryUnionFilterC1ERKS0_@Base 1.1.0
 _ZN10QtMobility19QGalleryUnionFilterC1Ev@Base 1.1.0
 _ZN10QtMobility19QGalleryUnionFilterC2ERKNS_22QGalleryMetaDataFilterE@Base 1.1.0
 _ZN10QtMobility19QGalleryUnionFilterC2ERKNS_26QGalleryIntersectionFilterE@Base 1.1.0
 _ZN10QtMobility19QGalleryUnionFilterC2ERKS0_@Base 1.1.0
 _ZN10QtMobility19QGalleryUnionFilterC2Ev@Base 1.1.0
 _ZN10QtMobility19QGalleryUnionFilterD1Ev@Base 1.1.0
 _ZN10QtMobility19QGalleryUnionFilterD2Ev@Base 1.1.0
 _ZN10QtMobility19QGalleryUnionFilteraSERKS0_@Base 1.1.0
 _ZN10QtMobility19QGalleryUnionFilterlsERKS0_@Base 1.1.0
 _ZN10QtMobility20QGalleryQueryRequest11qt_metacallEN11QMetaObject4CallEiPPv@Base 1.1.0
 _ZN10QtMobility20QGalleryQueryRequest11qt_metacastEPKc@Base 1.1.0
 _ZN10QtMobility20QGalleryQueryRequest11setMetaDataERK7QStringRK8QVariant@Base 1.1.0
 _ZN10QtMobility20QGalleryQueryRequest11setMetaDataEiRK8QVariant@Base 1.1.0
 _ZN10QtMobility20QGalleryQueryRequest11setResponseEPNS_24QGalleryAbstractResponseE@Base 1.1.0
 _ZN10QtMobility20QGalleryQueryRequest11setRootItemERK8QVariant@Base 1.1.0
 _ZN10QtMobility20QGalleryQueryRequest11setRootTypeERK7QString@Base 1.1.0
 _ZN10QtMobility20QGalleryQueryRequest12limitChangedEv@Base 1.1.0
 _ZN10QtMobility20QGalleryQueryRequest12scopeChangedEv@Base 1.1.0
 _ZN10QtMobility20QGalleryQueryRequest13filterChangedEv@Base 1.1.0
 _ZN10QtMobility20QGalleryQueryRequest13offsetChangedEv@Base 1.1.0
 _ZN10QtMobility20QGalleryQueryRequest13setAutoUpdateEb@Base 1.1.0
 _ZN10QtMobility20QGalleryQueryRequest15rootItemChangedEv@Base 1.1.0
 _ZN10QtMobility20QGalleryQueryRequest15rootTypeChangedEv@Base 1.1.0
 _ZN10QtMobility20QGalleryQueryRequest16resultSetChangedEPNS_17QGalleryResultSetE@Base 1.1.0
 _ZN10QtMobility20QGalleryQueryRequest16setPropertyNamesERK11QStringList@Base 1.1.0
 _ZN10QtMobility20QGalleryQueryRequest16staticMetaObjectE@Base 1.1.0
 _ZN10QtMobility20QGalleryQueryRequest17autoUpdateChangedEv@Base 1.1.0
 _ZN10QtMobility20QGalleryQueryRequest18currentItemChangedEv@Base 1.1.0
 _ZN10QtMobility20QGalleryQueryRequest20propertyNamesChangedEv@Base 1.1.0
 _ZN10QtMobility20QGalleryQueryRequest20setSortPropertyNamesERK11QStringList@Base 1.1.0
 _ZN10QtMobility20QGalleryQueryRequest24sortPropertyNamesChangedEv@Base 1.1.0
 _ZN10QtMobility20QGalleryQueryRequest4lastEv@Base 1.1.0
 _ZN10QtMobility20QGalleryQueryRequest4nextEv@Base 1.1.0
 _ZN10QtMobility20QGalleryQueryRequest4seekEib@Base 1.1.0
 _ZN10QtMobility20QGalleryQueryRequest5firstEv@Base 1.1.0
 _ZN10QtMobility20QGalleryQueryRequest8previousEv@Base 1.1.0
 _ZN10QtMobility20QGalleryQueryRequest8setLimitEi@Base 1.1.0
 _ZN10QtMobility20QGalleryQueryRequest8setScopeENS0_5ScopeE@Base 1.1.0
 _ZN10QtMobility20QGalleryQueryRequest9setFilterERKNS_14QGalleryFilterE@Base 1.1.0
 _ZN10QtMobility20QGalleryQueryRequest9setOffsetEi@Base 1.1.0
 _ZN10QtMobility20QGalleryQueryRequestC1EP7QObject@Base 1.1.0
 _ZN10QtMobility20QGalleryQueryRequestC1EPNS_16QAbstractGalleryEP7QObject@Base 1.1.0
 _ZN10QtMobility20QGalleryQueryRequestC2EP7QObject@Base 1.1.0
 _ZN10QtMobility20QGalleryQueryRequestC2EPNS_16QAbstractGalleryEP7QObject@Base 1.1.0
 _ZN10QtMobility20QGalleryQueryRequestD0Ev@Base 1.1.0
 _ZN10QtMobility20QGalleryQueryRequestD1Ev@Base 1.1.0
 _ZN10QtMobility20QGalleryQueryRequestD2Ev@Base 1.1.0
 _ZN10QtMobility22QGalleryMetaDataFilter10setNegatedEb@Base 1.1.0
 _ZN10QtMobility22QGalleryMetaDataFilter13setComparatorENS_14QGalleryFilter10ComparatorE@Base 1.1.0
 _ZN10QtMobility22QGalleryMetaDataFilter15setPropertyNameERK7QString@Base 1.1.0
 _ZN10QtMobility22QGalleryMetaDataFilter8setValueERK8QVariant@Base 1.1.0
 _ZN10QtMobility22QGalleryMetaDataFilterC1ERK7QStringRK8QVariantNS_14QGalleryFilter10ComparatorE@Base 1.1.0
 _ZN10QtMobility22QGalleryMetaDataFilterC1ERKS0_@Base 1.1.0
 _ZN10QtMobility22QGalleryMetaDataFilterC1Ev@Base 1.1.0
 _ZN10QtMobility22QGalleryMetaDataFilterC2ERK7QStringRK8QVariantNS_14QGalleryFilter10ComparatorE@Base 1.1.0
 _ZN10QtMobility22QGalleryMetaDataFilterC2ERKS0_@Base 1.1.0
 _ZN10QtMobility22QGalleryMetaDataFilterC2Ev@Base 1.1.0
 _ZN10QtMobility22QGalleryMetaDataFilterD1Ev@Base 1.1.0
 _ZN10QtMobility22QGalleryMetaDataFilterD2Ev@Base 1.1.0
 _ZN10QtMobility22QGalleryMetaDataFilteraSERKS0_@Base 1.1.0
 _ZN10QtMobility23QGalleryAbstractRequest10setGalleryEPNS_16QAbstractGalleryE@Base 1.1.0
 _ZN10QtMobility23QGalleryAbstractRequest11qt_metacallEN11QMetaObject4CallEiPPv@Base 1.1.0
 _ZN10QtMobility23QGalleryAbstractRequest11qt_metacastEPKc@Base 1.1.0
 _ZN10QtMobility23QGalleryAbstractRequest12errorChangedEv@Base 1.1.0
 _ZN10QtMobility23QGalleryAbstractRequest12stateChangedENS0_5StateE@Base 1.1.0
 _ZN10QtMobility23QGalleryAbstractRequest14galleryChangedEv@Base 1.1.0
 _ZN10QtMobility23QGalleryAbstractRequest15progressChangedEii@Base 1.1.0
 _ZN10QtMobility23QGalleryAbstractRequest15waitForFinishedEi@Base 1.1.0
 _ZN10QtMobility23QGalleryAbstractRequest16staticMetaObjectE@Base 1.1.0
 _ZN10QtMobility23QGalleryAbstractRequest16supportedChangedEv@Base 1.1.0
 _ZN10QtMobility23QGalleryAbstractRequest5clearEv@Base 1.1.0
 _ZN10QtMobility23QGalleryAbstractRequest5errorEiRK7QString@Base 1.1.0
 _ZN10QtMobility23QGalleryAbstractRequest6cancelEv@Base 1.1.0
 _ZN10QtMobility23QGalleryAbstractRequest7executeEv@Base 1.1.0
 _ZN10QtMobility23QGalleryAbstractRequest8canceledEv@Base 1.1.0
 _ZN10QtMobility23QGalleryAbstractRequest8finishedEv@Base 1.1.0
 _ZN10QtMobility23QGalleryAbstractRequestC1ENS0_11RequestTypeEP7QObject@Base 1.1.0
 _ZN10QtMobility23QGalleryAbstractRequestC1EPNS_16QAbstractGalleryENS0_11RequestTypeEP7QObject@Base 1.1.0
 _ZN10QtMobility23QGalleryAbstractRequestC1ERNS_30QGalleryAbstractRequestPrivateEP7QObject@Base 1.1.0
 _ZN10QtMobility23QGalleryAbstractRequestC2ENS0_11RequestTypeEP7QObject@Base 1.1.0
 _ZN10QtMobility23QGalleryAbstractRequestC2EPNS_16QAbstractGalleryENS0_11RequestTypeEP7QObject@Base 1.1.0
 _ZN10QtMobility23QGalleryAbstractRequestC2ERNS_30QGalleryAbstractRequestPrivateEP7QObject@Base 1.1.0
 _ZN10QtMobility23QGalleryAbstractRequestD0Ev@Base 1.1.0
 _ZN10QtMobility23QGalleryAbstractRequestD1Ev@Base 1.1.0
 _ZN10QtMobility23QGalleryAbstractRequestD2Ev@Base 1.1.0
 _ZN10QtMobility24QGalleryAbstractResponse11qt_metacallEN11QMetaObject4CallEiPPv@Base 1.1.0
 _ZN10QtMobility24QGalleryAbstractResponse11qt_metacastEPKc@Base 1.1.0
 _ZN10QtMobility24QGalleryAbstractResponse15progressChangedEii@Base 1.1.0
 _ZN10QtMobility24QGalleryAbstractResponse15waitForFinishedEi@Base 1.1.0
 _ZN10QtMobility24QGalleryAbstractResponse16staticMetaObjectE@Base 1.1.0
 _ZN10QtMobility24QGalleryAbstractResponse5errorEiRK7QString@Base 1.1.0
 _ZN10QtMobility24QGalleryAbstractResponse6cancelEv@Base 1.1.0
 _ZN10QtMobility24QGalleryAbstractResponse6finishEb@Base 1.1.0
 _ZN10QtMobility24QGalleryAbstractResponse6resumeEv@Base 1.1.0
 _ZN10QtMobility24QGalleryAbstractResponse7resumedEv@Base 1.1.0
 _ZN10QtMobility24QGalleryAbstractResponse8canceledEv@Base 1.1.0
 _ZN10QtMobility24QGalleryAbstractResponse8finishedEv@Base 1.1.0
 _ZN10QtMobility24QGalleryAbstractResponseC1EP7QObject@Base 1.1.0
 _ZN10QtMobility24QGalleryAbstractResponseC1ERNS_31QGalleryAbstractResponsePrivateEP7QObject@Base 1.1.0
 _ZN10QtMobility24QGalleryAbstractResponseC1EiRK7QStringP7QObject@Base 1.1.0
 _ZN10QtMobility24QGalleryAbstractResponseC2EP7QObject@Base 1.1.0
 _ZN10QtMobility24QGalleryAbstractResponseC2ERNS_31QGalleryAbstractResponsePrivateEP7QObject@Base 1.1.0
 _ZN10QtMobility24QGalleryAbstractResponseC2EiRK7QStringP7QObject@Base 1.1.0
 _ZN10QtMobility24QGalleryAbstractResponseD0Ev@Base 1.1.0
 _ZN10QtMobility24QGalleryAbstractResponseD1Ev@Base 1.1.0
 _ZN10QtMobility24QGalleryAbstractResponseD2Ev@Base 1.1.0
 _ZN10QtMobility26QGalleryIntersectionFilter5clearEv@Base 1.1.0
 _ZN10QtMobility26QGalleryIntersectionFilter6appendERKNS_19QGalleryUnionFilterE@Base 1.1.0
 _ZN10QtMobility26QGalleryIntersectionFilter6appendERKNS_22QGalleryMetaDataFilterE@Base 1.1.0
 _ZN10QtMobility26QGalleryIntersectionFilter6appendERKS0_@Base 1.1.0
 _ZN10QtMobility26QGalleryIntersectionFilter6insertEiRKNS_19QGalleryUnionFilterE@Base 1.1.0
 _ZN10QtMobility26QGalleryIntersectionFilter6insertEiRKNS_22QGalleryMetaDataFilterE@Base 1.1.0
 _ZN10QtMobility26QGalleryIntersectionFilter6insertEiRKS0_@Base 1.1.0
 _ZN10QtMobility26QGalleryIntersectionFilter6removeEi@Base 1.1.0
 _ZN10QtMobility26QGalleryIntersectionFilter7prependERKNS_19QGalleryUnionFilterE@Base 1.1.0
 _ZN10QtMobility26QGalleryIntersectionFilter7prependERKNS_22QGalleryMetaDataFilterE@Base 1.1.0
 _ZN10QtMobility26QGalleryIntersectionFilter7prependERKS0_@Base 1.1.0
 _ZN10QtMobility26QGalleryIntersectionFilter7replaceEiRKNS_19QGalleryUnionFilterE@Base 1.1.0
 _ZN10QtMobility26QGalleryIntersectionFilter7replaceEiRKNS_22QGalleryMetaDataFilterE@Base 1.1.0
 _ZN10QtMobility26QGalleryIntersectionFilterC1ERKNS_19QGalleryUnionFilterE@Base 1.1.0
 _ZN10QtMobility26QGalleryIntersectionFilterC1ERKNS_22QGalleryMetaDataFilterE@Base 1.1.0
 _ZN10QtMobility26QGalleryIntersectionFilterC1ERKS0_@Base 1.1.0
 _ZN10QtMobility26QGalleryIntersectionFilterC1Ev@Base 1.1.0
 _ZN10QtMobility26QGalleryIntersectionFilterC2ERKNS_19QGalleryUnionFilterE@Base 1.1.0
 _ZN10QtMobility26QGalleryIntersectionFilterC2ERKNS_22QGalleryMetaDataFilterE@Base 1.1.0
 _ZN10QtMobility26QGalleryIntersectionFilterC2ERKS0_@Base 1.1.0
 _ZN10QtMobility26QGalleryIntersectionFilterC2Ev@Base 1.1.0
 _ZN10QtMobility26QGalleryIntersectionFilterD1Ev@Base 1.1.0
 _ZN10QtMobility26QGalleryIntersectionFilterD2Ev@Base 1.1.0
 _ZN10QtMobility26QGalleryIntersectionFilteraSERKS0_@Base 1.1.0
 _ZN10QtMobility26QGalleryIntersectionFilterlsERKS0_@Base 1.1.0
 _ZN10QtMobilityaaERKNS_26QGalleryIntersectionFilterES2_@Base 1.1.0
 _ZN10QtMobilityeqERKNS_14QGalleryFilterES2_@Base 1.1.0
 _ZN10QtMobilitylsE6QDebugRKNS_14QGalleryFilterE@Base 1.1.0
 _ZN10QtMobilityneERKNS_14QGalleryFilterES2_@Base 1.1.0
 _ZN10QtMobilityooERKNS_19QGalleryUnionFilterES2_@Base 1.1.0
 _ZN15QBasicAtomicInt3refEv@Base 1.1.0
 _ZN15QBasicAtomicInt5derefEv@Base 1.1.0
 _ZN15QBasicAtomicIntC1Ev@Base 1.2.0
 _ZN15QBasicAtomicIntC2Ev@Base 1.2.0
 _ZN5QCharC1E11QLatin1Char@Base 1.1.0
 _ZN5QCharC2E11QLatin1Char@Base 1.1.0
 _ZN6QDebug6StreamD1Ev@Base 1.2.0
 _ZN6QDebug6StreamD2Ev@Base 1.2.0
 _ZN9QHashData8willGrowEv@Base 1.1.0
 _ZN9QHashData9firstNodeEv@Base 1.1.0
 _ZNK10QtMobility14QGalleryFilter13toUnionFilterEv@Base 1.1.0
 _ZNK10QtMobility14QGalleryFilter16toMetaDataFilterEv@Base 1.1.0
 _ZNK10QtMobility14QGalleryFilter20toIntersectionFilterEv@Base 1.1.0
 _ZNK10QtMobility14QGalleryFilter4typeEv@Base 1.1.0
 _ZNK10QtMobility14QGalleryFilter7isValidEv@Base 1.1.0
 _ZNK10QtMobility16QAbstractGallery10metaObjectEv@Base 1.1.0
 _ZNK10QtMobility16QDocumentGallery10metaObjectEv@Base 1.1.0
 _ZNK10QtMobility16QDocumentGallery18isRequestSupportedENS_23QGalleryAbstractRequest11RequestTypeE@Base 1.1.0
 _ZNK10QtMobility16QDocumentGallery18propertyAttributesERK7QStringS3_@Base 1.1.0
 _ZNK10QtMobility16QDocumentGallery21itemTypePropertyNamesERK7QString@Base 1.1.0
 _ZNK10QtMobility16QGalleryResource10attributesEv@Base 1.1.0
 _ZNK10QtMobility16QGalleryResource3urlEv@Base 1.1.0
 _ZNK10QtMobility16QGalleryResource9attributeEi@Base 1.1.0
 _ZNK10QtMobility16QGalleryResourceeqERKS0_@Base 1.1.0
 _ZNK10QtMobility16QGalleryResourceneERKS0_@Base 1.1.0
 _ZNK10QtMobility17QGalleryResultSet10metaObjectEv@Base 1.1.0
 (optional=templinst)_ZNK10QtMobility17QGalleryResultSet26qt_check_for_QOBJECT_macroIS0_EEvRKT_@Base 1.1.0
 _ZNK10QtMobility17QGalleryResultSet7isValidEv@Base 1.1.0
 _ZNK10QtMobility17QGalleryResultSet9resourcesEv@Base 1.1.0
 _ZNK10QtMobility18QGalleryQueryModel10autoUpdateEv@Base 1.1.0
 _ZNK10QtMobility18QGalleryQueryModel10headerDataEiN2Qt11OrientationEi@Base 1.1.0
 _ZNK10QtMobility18QGalleryQueryModel10metaObjectEv@Base 1.1.0
 _ZNK10QtMobility18QGalleryQueryModel11columnCountERK11QModelIndex@Base 1.1.0
 _ZNK10QtMobility18QGalleryQueryModel11errorStringEv@Base 1.1.0
 _ZNK10QtMobility18QGalleryQueryModel14rolePropertiesEi@Base 1.1.0
 _ZNK10QtMobility18QGalleryQueryModel17sortPropertyNamesEv@Base 1.1.0
 _ZNK10QtMobility18QGalleryQueryModel4dataERK11QModelIndexi@Base 1.1.0
 _ZNK10QtMobility18QGalleryQueryModel5errorEv@Base 1.1.0
 _ZNK10QtMobility18QGalleryQueryModel5flagsERK11QModelIndex@Base 1.1.0
 _ZNK10QtMobility18QGalleryQueryModel5indexEiiRK11QModelIndex@Base 1.1.0
 _ZNK10QtMobility18QGalleryQueryModel5limitEv@Base 1.1.0
 _ZNK10QtMobility18QGalleryQueryModel5scopeEv@Base 1.1.0
 _ZNK10QtMobility18QGalleryQueryModel5stateEv@Base 1.1.0
 _ZNK10QtMobility18QGalleryQueryModel6filterEv@Base 1.1.0
 _ZNK10QtMobility18QGalleryQueryModel6itemIdERK11QModelIndex@Base 1.1.0
 _ZNK10QtMobility18QGalleryQueryModel6offsetEv@Base 1.1.0
 _ZNK10QtMobility18QGalleryQueryModel6parentERK11QModelIndex@Base 1.1.0
 _ZNK10QtMobility18QGalleryQueryModel7galleryEv@Base 1.1.0
 _ZNK10QtMobility18QGalleryQueryModel7itemUrlERK11QModelIndex@Base 1.1.0
 _ZNK10QtMobility18QGalleryQueryModel8itemTypeERK11QModelIndex@Base 1.1.0
 _ZNK10QtMobility18QGalleryQueryModel8rootItemEv@Base 1.1.0
 _ZNK10QtMobility18QGalleryQueryModel8rootTypeEv@Base 1.1.0
 _ZNK10QtMobility18QGalleryQueryModel8rowCountERK11QModelIndex@Base 1.1.0
 _ZNK10QtMobility19QGalleryItemRequest10autoUpdateEv@Base 1.1.0
 _ZNK10QtMobility19QGalleryItemRequest10metaObjectEv@Base 1.1.0
 _ZNK10QtMobility19QGalleryItemRequest11propertyKeyERK7QString@Base 1.1.0
 _ZNK10QtMobility19QGalleryItemRequest12propertyTypeEi@Base 1.1.0
 _ZNK10QtMobility19QGalleryItemRequest13propertyNamesEv@Base 1.1.0
 _ZNK10QtMobility19QGalleryItemRequest18propertyAttributesEi@Base 1.1.0
 _ZNK10QtMobility19QGalleryItemRequest6itemIdEv@Base 1.1.0
 _ZNK10QtMobility19QGalleryItemRequest7isValidEv@Base 1.1.0
 _ZNK10QtMobility19QGalleryItemRequest7itemUrlEv@Base 1.1.0
 _ZNK10QtMobility19QGalleryItemRequest8itemTypeEv@Base 1.1.0
 _ZNK10QtMobility19QGalleryItemRequest8metaDataERK7QString@Base 1.1.0
 _ZNK10QtMobility19QGalleryItemRequest8metaDataEi@Base 1.1.0
 _ZNK10QtMobility19QGalleryItemRequest9resourcesEv@Base 1.1.0
 _ZNK10QtMobility19QGalleryItemRequest9resultSetEv@Base 1.1.0
 _ZNK10QtMobility19QGalleryTypeRequest10autoUpdateEv@Base 1.1.0
 _ZNK10QtMobility19QGalleryTypeRequest10metaObjectEv@Base 1.1.0
 _ZNK10QtMobility19QGalleryTypeRequest11propertyKeyERK7QString@Base 1.1.0
 _ZNK10QtMobility19QGalleryTypeRequest12propertyTypeEi@Base 1.1.0
 _ZNK10QtMobility19QGalleryTypeRequest13propertyNamesEv@Base 1.1.0
 _ZNK10QtMobility19QGalleryTypeRequest18propertyAttributesEi@Base 1.1.0
 _ZNK10QtMobility19QGalleryTypeRequest7isValidEv@Base 1.1.0
 _ZNK10QtMobility19QGalleryTypeRequest8itemTypeEv@Base 1.1.0
 _ZNK10QtMobility19QGalleryTypeRequest8metaDataERK7QString@Base 1.1.0
 _ZNK10QtMobility19QGalleryTypeRequest8metaDataEi@Base 1.1.0
 _ZNK10QtMobility19QGalleryTypeRequest9resultSetEv@Base 1.1.0
 _ZNK10QtMobility19QGalleryUnionFilter11filterCountEv@Base 1.1.0
 _ZNK10QtMobility19QGalleryUnionFilter7filtersEv@Base 1.1.0
 _ZNK10QtMobility19QGalleryUnionFilter7isEmptyEv@Base 1.1.0
 _ZNK10QtMobility19QGalleryUnionFilter7isValidEv@Base 1.1.0
 _ZNK10QtMobility20QGalleryQueryRequest10autoUpdateEv@Base 1.1.0
 _ZNK10QtMobility20QGalleryQueryRequest10metaObjectEv@Base 1.1.0
 _ZNK10QtMobility20QGalleryQueryRequest11propertyKeyERK7QString@Base 1.1.0
 _ZNK10QtMobility20QGalleryQueryRequest12currentIndexEv@Base 1.1.0
 _ZNK10QtMobility20QGalleryQueryRequest12propertyTypeEi@Base 1.1.0
 _ZNK10QtMobility20QGalleryQueryRequest13propertyNamesEv@Base 1.1.0
 _ZNK10QtMobility20QGalleryQueryRequest17sortPropertyNamesEv@Base 1.1.0
 _ZNK10QtMobility20QGalleryQueryRequest18propertyAttributesEi@Base 1.1.0
 _ZNK10QtMobility20QGalleryQueryRequest5limitEv@Base 1.1.0
 _ZNK10QtMobility20QGalleryQueryRequest5scopeEv@Base 1.1.0
 _ZNK10QtMobility20QGalleryQueryRequest6filterEv@Base 1.1.0
 _ZNK10QtMobility20QGalleryQueryRequest6itemIdEv@Base 1.1.0
 _ZNK10QtMobility20QGalleryQueryRequest6offsetEv@Base 1.1.0
 _ZNK10QtMobility20QGalleryQueryRequest7isValidEv@Base 1.1.0
 _ZNK10QtMobility20QGalleryQueryRequest7itemUrlEv@Base 1.1.0
 _ZNK10QtMobility20QGalleryQueryRequest8itemTypeEv@Base 1.1.0
 _ZNK10QtMobility20QGalleryQueryRequest8metaDataERK7QString@Base 1.1.0
 _ZNK10QtMobility20QGalleryQueryRequest8metaDataEi@Base 1.1.0
 _ZNK10QtMobility20QGalleryQueryRequest8rootItemEv@Base 1.1.0
 _ZNK10QtMobility20QGalleryQueryRequest8rootTypeEv@Base 1.1.0
 _ZNK10QtMobility20QGalleryQueryRequest9itemCountEv@Base 1.1.0
 _ZNK10QtMobility20QGalleryQueryRequest9resourcesEv@Base 1.1.0
 _ZNK10QtMobility20QGalleryQueryRequest9resultSetEv@Base 1.1.0
 _ZNK10QtMobility22QGalleryMetaDataFilter10comparatorEv@Base 1.1.0
 _ZNK10QtMobility22QGalleryMetaDataFilter12propertyNameEv@Base 1.1.0
 _ZNK10QtMobility22QGalleryMetaDataFilter5valueEv@Base 1.1.0
 _ZNK10QtMobility22QGalleryMetaDataFilter7isValidEv@Base 1.1.0
 _ZNK10QtMobility22QGalleryMetaDataFilter9isNegatedEv@Base 1.1.0
 _ZNK10QtMobility22QGalleryMetaDataFilterntEv@Base 1.1.0
 _ZNK10QtMobility23QGalleryAbstractRequest10metaObjectEv@Base 1.1.0
 _ZNK10QtMobility23QGalleryAbstractRequest11errorStringEv@Base 1.1.0
 _ZNK10QtMobility23QGalleryAbstractRequest11isSupportedEv@Base 1.1.0
 _ZNK10QtMobility23QGalleryAbstractRequest15currentProgressEv@Base 1.1.0
 _ZNK10QtMobility23QGalleryAbstractRequest15maximumProgressEv@Base 1.1.0
 _ZNK10QtMobility23QGalleryAbstractRequest4typeEv@Base 1.1.0
 _ZNK10QtMobility23QGalleryAbstractRequest5errorEv@Base 1.1.0
 _ZNK10QtMobility23QGalleryAbstractRequest5stateEv@Base 1.1.0
 _ZNK10QtMobility23QGalleryAbstractRequest7galleryEv@Base 1.1.0
 _ZNK10QtMobility24QGalleryAbstractResponse10metaObjectEv@Base 1.1.0
 _ZNK10QtMobility24QGalleryAbstractResponse11errorStringEv@Base 1.1.0
 _ZNK10QtMobility24QGalleryAbstractResponse5errorEv@Base 1.1.0
 _ZNK10QtMobility24QGalleryAbstractResponse6isIdleEv@Base 1.1.0
 _ZNK10QtMobility24QGalleryAbstractResponse8isActiveEv@Base 1.1.0
 _ZNK10QtMobility26QGalleryIntersectionFilter11filterCountEv@Base 1.1.0
 _ZNK10QtMobility26QGalleryIntersectionFilter7filtersEv@Base 1.1.0
 _ZNK10QtMobility26QGalleryIntersectionFilter7isEmptyEv@Base 1.1.0
 _ZNK10QtMobility26QGalleryIntersectionFilter7isValidEv@Base 1.1.0
 _ZNK11QMetaObject9classNameEv@Base 1.1.0
 (optional=templinst)_ZNK8QVariant10canConvertI4QUrlEEbv@Base 1.1.0
 (optional=templinst)_ZNK8QVariant10canConvertI7QStringEEbv@Base 1.1.0
 (optional=templinst)_ZNK8QVariant5valueI13QDBusArgumentEET_v@Base 1.2.0
 _ZSt4swapIN8QVariant7PrivateEEvRT_S3_@Base 1.2.0
 _ZSt4swapIPN10QtMobility24QGalleryAbstractResponseEEvRT_S4_@Base 1.2.0
 _ZSt4swapIPN7QString4DataEEvRT_S4_@Base 1.2.0
 _ZTI11QSharedData@Base 1.1.0
 _ZTIN10QtMobility16QAbstractGalleryE@Base 1.1.0
 _ZTIN10QtMobility16QDocumentGalleryE@Base 1.1.0
 _ZTIN10QtMobility17QGalleryResultSetE@Base 1.1.0
 _ZTIN10QtMobility18QGalleryQueryModelE@Base 1.1.0
 _ZTIN10QtMobility19QGalleryItemRequestE@Base 1.1.0
 _ZTIN10QtMobility19QGalleryTypeRequestE@Base 1.1.0
 _ZTIN10QtMobility20QGalleryQueryRequestE@Base 1.1.0
 _ZTIN10QtMobility23QGalleryAbstractRequestE@Base 1.1.0
 _ZTIN10QtMobility24QGalleryAbstractResponseE@Base 1.1.0
 _ZTS11QSharedData@Base 1.1.0
 _ZTSN10QtMobility16QAbstractGalleryE@Base 1.1.0
 _ZTSN10QtMobility16QDocumentGalleryE@Base 1.1.0
 _ZTSN10QtMobility17QGalleryResultSetE@Base 1.1.0
 _ZTSN10QtMobility18QGalleryQueryModelE@Base 1.1.0
 _ZTSN10QtMobility19QGalleryItemRequestE@Base 1.1.0
 _ZTSN10QtMobility19QGalleryTypeRequestE@Base 1.1.0
 _ZTSN10QtMobility20QGalleryQueryRequestE@Base 1.1.0
 _ZTSN10QtMobility23QGalleryAbstractRequestE@Base 1.1.0
 _ZTSN10QtMobility24QGalleryAbstractResponseE@Base 1.1.0
 _ZTVN10QtMobility16QAbstractGalleryE@Base 1.1.0
 _ZTVN10QtMobility16QDocumentGalleryE@Base 1.1.0
 _ZTVN10QtMobility17QGalleryResultSetE@Base 1.1.0
 _ZTVN10QtMobility18QGalleryQueryModelE@Base 1.1.0
 _ZTVN10QtMobility19QGalleryItemRequestE@Base 1.1.0
 _ZTVN10QtMobility19QGalleryTypeRequestE@Base 1.1.0
 _ZTVN10QtMobility20QGalleryQueryRequestE@Base 1.1.0
 _ZTVN10QtMobility23QGalleryAbstractRequestE@Base 1.1.0
 _ZTVN10QtMobility24QGalleryAbstractResponseE@Base 1.1.0
