# SymbolsHelper-Confirmed: 1.2.0 amd64 i386 powerpc
libQtSystemInfo.so.1 libqtsysteminfo1 #MINVER#
 _Z6qDebugv@Base 1.1.0
 _Z8qWarningv@Base 1.1.0
 _ZN10QByteArray4dataEv@Base 1.1.0
 (arch=powerpc)_ZN10QDBusErrorD1Ev@Base 1.2.0
 (arch=powerpc)_ZN10QDBusErrorD2Ev@Base 1.2.0
 _ZN10QtMobility11QSystemInfo11qt_metacallEN11QMetaObject4CallEiPPv@Base 1.1.0
 _ZN10QtMobility11QSystemInfo11qt_metacastEPKc@Base 1.1.0
 _ZN10QtMobility11QSystemInfo13connectNotifyEPKc@Base 1.1.0
 _ZN10QtMobility11QSystemInfo15currentLanguageEv@Base 1.1.0
 _ZN10QtMobility11QSystemInfo16disconnectNotifyEPKc@Base 1.1.0
 _ZN10QtMobility11QSystemInfo16staticMetaObjectE@Base 1.1.0
 _ZN10QtMobility11QSystemInfo18availableLanguagesEv@Base 1.1.0
 _ZN10QtMobility11QSystemInfo18currentCountryCodeEv@Base 1.1.0
 _ZN10QtMobility11QSystemInfo19hasFeatureSupportedENS0_7FeatureE@Base 1.1.0
 _ZN10QtMobility11QSystemInfo22currentLanguageChangedERK7QString@Base 1.1.0
 _ZN10QtMobility11QSystemInfo7versionENS0_7VersionERK7QString@Base 1.1.0
 _ZN10QtMobility11QSystemInfoC1EP7QObject@Base 1.1.0
 _ZN10QtMobility11QSystemInfoC2EP7QObject@Base 1.1.0
 _ZN10QtMobility11QSystemInfoD0Ev@Base 1.1.0
 _ZN10QtMobility11QSystemInfoD1Ev@Base 1.1.0
 _ZN10QtMobility11QSystemInfoD2Ev@Base 1.1.0
 _ZN10QtMobility17QSystemDeviceInfo10lockStatusEv@Base 1.2.0
 _ZN10QtMobility17QSystemDeviceInfo11productNameEv@Base 1.1.0
 _ZN10QtMobility17QSystemDeviceInfo11qt_metacallEN11QMetaObject4CallEiPPv@Base 1.1.0
 _ZN10QtMobility17QSystemDeviceInfo11qt_metacastEPKc@Base 1.1.0
 _ZN10QtMobility17QSystemDeviceInfo12deviceLockedEb@Base 1.2.0
 _ZN10QtMobility17QSystemDeviceInfo12manufacturerEv@Base 1.1.0
 _ZN10QtMobility17QSystemDeviceInfo13batteryStatusEv@Base 1.1.0
 _ZN10QtMobility17QSystemDeviceInfo13connectNotifyEPKc@Base 1.1.0
 _ZN10QtMobility17QSystemDeviceInfo13keyboardTypesEv@Base 1.2.0
 _ZN10QtMobility17QSystemDeviceInfo13keypadLightOnENS0_10KeypadTypeE@Base 1.2.0
 _ZN10QtMobility17QSystemDeviceInfo14ProfileDetailsC1ERKS1_@Base 1.2.0
 _ZN10QtMobility17QSystemDeviceInfo14ProfileDetailsC1Ev@Base 1.2.0
 _ZN10QtMobility17QSystemDeviceInfo14ProfileDetailsC2ERKS1_@Base 1.2.0
 _ZN10QtMobility17QSystemDeviceInfo14ProfileDetailsC2Ev@Base 1.2.0
 _ZN10QtMobility17QSystemDeviceInfo14ProfileDetailsD1Ev@Base 1.2.0
 _ZN10QtMobility17QSystemDeviceInfo14ProfileDetailsD2Ev@Base 1.2.0
 _ZN10QtMobility17QSystemDeviceInfo14ProfileDetailsaSERKS1_@Base 1.2.0
 _ZN10QtMobility17QSystemDeviceInfo14currentProfileEv@Base 1.1.0
 _ZN10QtMobility17QSystemDeviceInfo14isDeviceLockedEv@Base 1.1.0
 _ZN10QtMobility17QSystemDeviceInfo14uniqueDeviceIDEv@Base 1.2.0
 _ZN10QtMobility17QSystemDeviceInfo15inputMethodTypeEv@Base 1.1.0
 _ZN10QtMobility17QSystemDeviceInfo15keyboardFlippedEb@Base 1.2.0
 _ZN10QtMobility17QSystemDeviceInfo16disconnectNotifyEPKc@Base 1.1.0
 _ZN10QtMobility17QSystemDeviceInfo16staticMetaObjectE@Base 1.1.0
 _ZN10QtMobility17QSystemDeviceInfo17currentPowerStateEv@Base 1.1.0
 _ZN10QtMobility17QSystemDeviceInfo17lockStatusChangedE6QFlagsINS0_8LockTypeEE@Base 1.2.0
 _ZN10QtMobility17QSystemDeviceInfo17powerStateChangedENS0_10PowerStateE@Base 1.1.0
 _ZN10QtMobility17QSystemDeviceInfo19batteryLevelChangedEi@Base 1.1.0
 _ZN10QtMobility17QSystemDeviceInfo19currentThermalStateEv@Base 1.2.0
 _ZN10QtMobility17QSystemDeviceInfo19thermalStateChangedENS0_12ThermalStateE@Base 1.2.0
 _ZN10QtMobility17QSystemDeviceInfo20activeProfileDetailsEv@Base 1.2.0
 _ZN10QtMobility17QSystemDeviceInfo20batteryStatusChangedENS0_13BatteryStatusE@Base 1.1.0
 _ZN10QtMobility17QSystemDeviceInfo21bluetoothStateChangedEb@Base 1.1.0
 _ZN10QtMobility17QSystemDeviceInfo21currentProfileChangedENS0_7ProfileE@Base 1.1.0
 _ZN10QtMobility17QSystemDeviceInfo21isKeyboardFlippedOpenEv@Base 1.2.0
 _ZN10QtMobility17QSystemDeviceInfo25wirelessKeyboardConnectedEb@Base 1.2.0
 _ZN10QtMobility17QSystemDeviceInfo26currentBluetoothPowerStateEv@Base 1.1.0
 _ZN10QtMobility17QSystemDeviceInfo27isWirelessKeyboardConnectedEv@Base 1.2.0
 _ZN10QtMobility17QSystemDeviceInfo4imeiEv@Base 1.1.0
 _ZN10QtMobility17QSystemDeviceInfo4imsiEv@Base 1.1.0
 _ZN10QtMobility17QSystemDeviceInfo5modelEv@Base 1.1.0
 _ZN10QtMobility17QSystemDeviceInfo9simStatusEv@Base 1.1.0
 _ZN10QtMobility17QSystemDeviceInfoC1EP7QObject@Base 1.1.0
 _ZN10QtMobility17QSystemDeviceInfoC2EP7QObject@Base 1.1.0
 _ZN10QtMobility17QSystemDeviceInfoD0Ev@Base 1.1.0
 _ZN10QtMobility17QSystemDeviceInfoD1Ev@Base 1.1.0
 _ZN10QtMobility17QSystemDeviceInfoD2Ev@Base 1.1.0
 _ZN10QtMobility18QSystemBatteryInfo11qt_metacallEN11QMetaObject4CallEiPPv@Base 1.2.0
 _ZN10QtMobility18QSystemBatteryInfo11qt_metacastEPKc@Base 1.2.0
 _ZN10QtMobility18QSystemBatteryInfo13connectNotifyEPKc@Base 1.2.0
 _ZN10QtMobility18QSystemBatteryInfo16disconnectNotifyEPKc@Base 1.2.0
 _ZN10QtMobility18QSystemBatteryInfo16staticMetaObjectE@Base 1.2.0
 _ZN10QtMobility18QSystemBatteryInfo18chargerTypeChangedENS0_11ChargerTypeE@Base 1.2.0
 _ZN10QtMobility18QSystemBatteryInfo18currentFlowChangedEi@Base 1.2.0
 _ZN10QtMobility18QSystemBatteryInfo20batteryStatusChangedENS0_13BatteryStatusE@Base 1.2.0
 _ZN10QtMobility18QSystemBatteryInfo20chargingStateChangedENS0_13ChargingStateE@Base 1.2.0
 _ZN10QtMobility18QSystemBatteryInfo22nominalCapacityChangedEi@Base 1.2.0
 _ZN10QtMobility18QSystemBatteryInfo24remainingCapacityChangedEi@Base 1.2.0
 _ZN10QtMobility18QSystemBatteryInfo28remainingCapacityBarsChangedEi@Base 1.2.0
 _ZN10QtMobility18QSystemBatteryInfo28remainingChargingTimeChangedEi@Base 1.2.0
 _ZN10QtMobility18QSystemBatteryInfo31remainingCapacityPercentChangedEi@Base 1.2.0
 _ZN10QtMobility18QSystemBatteryInfoC1EP7QObject@Base 1.2.0
 _ZN10QtMobility18QSystemBatteryInfoC2EP7QObject@Base 1.2.0
 _ZN10QtMobility18QSystemBatteryInfoD0Ev@Base 1.2.0
 _ZN10QtMobility18QSystemBatteryInfoD1Ev@Base 1.2.0
 _ZN10QtMobility18QSystemBatteryInfoD2Ev@Base 1.2.0
 _ZN10QtMobility18QSystemDisplayInfo10colorDepthEi@Base 1.1.0
 _ZN10QtMobility18QSystemDisplayInfo11getDPIWidthEi@Base 1.2.0
 _ZN10QtMobility18QSystemDisplayInfo11orientationEi@Base 1.2.0
 _ZN10QtMobility18QSystemDisplayInfo11qt_metacallEN11QMetaObject4CallEiPPv@Base 1.1.0
 _ZN10QtMobility18QSystemDisplayInfo11qt_metacastEPKc@Base 1.1.0
 _ZN10QtMobility18QSystemDisplayInfo12getDPIHeightEi@Base 1.2.0
 _ZN10QtMobility18QSystemDisplayInfo13physicalWidthEi@Base 1.2.0
 _ZN10QtMobility18QSystemDisplayInfo14physicalHeightEi@Base 1.2.0
 _ZN10QtMobility18QSystemDisplayInfo15backlightStatusEi@Base 1.2.0
 _ZN10QtMobility18QSystemDisplayInfo16staticMetaObjectE@Base 1.1.0
 _ZN10QtMobility18QSystemDisplayInfo17displayBrightnessEi@Base 1.1.0
 _ZN10QtMobility18QSystemDisplayInfo18orientationChangedENS0_18DisplayOrientationE@Base 1.2.0
 _ZN10QtMobility18QSystemDisplayInfo8contrastEi@Base 1.2.0
 _ZN10QtMobility18QSystemDisplayInfoC1EP7QObject@Base 1.1.0
 _ZN10QtMobility18QSystemDisplayInfoC2EP7QObject@Base 1.1.0
 _ZN10QtMobility18QSystemDisplayInfoD0Ev@Base 1.1.0
 _ZN10QtMobility18QSystemDisplayInfoD1Ev@Base 1.1.0
 _ZN10QtMobility18QSystemDisplayInfoD2Ev@Base 1.1.0
 _ZN10QtMobility18QSystemNetworkInfo10macAddressENS0_11NetworkModeE@Base 1.1.0
 _ZN10QtMobility18QSystemNetworkInfo11currentModeEv@Base 1.1.0
 _ZN10QtMobility18QSystemNetworkInfo11networkNameENS0_11NetworkModeE@Base 1.1.0
 _ZN10QtMobility18QSystemNetworkInfo11qt_metacallEN11QMetaObject4CallEiPPv@Base 1.1.0
 _ZN10QtMobility18QSystemNetworkInfo11qt_metacastEPKc@Base 1.1.0
 _ZN10QtMobility18QSystemNetworkInfo13cellIdChangedEi@Base 1.2.0
 _ZN10QtMobility18QSystemNetworkInfo13connectNotifyEPKc@Base 1.1.0
 _ZN10QtMobility18QSystemNetworkInfo13networkStatusENS0_11NetworkModeE@Base 1.1.0
 _ZN10QtMobility18QSystemNetworkInfo16disconnectNotifyEPKc@Base 1.1.0
 _ZN10QtMobility18QSystemNetworkInfo16interfaceForModeENS0_11NetworkModeE@Base 1.1.0
 _ZN10QtMobility18QSystemNetworkInfo16locationAreaCodeEv@Base 1.1.0
 _ZN10QtMobility18QSystemNetworkInfo16staticMetaObjectE@Base 1.1.0
 _ZN10QtMobility18QSystemNetworkInfo18cellDataTechnologyEv@Base 1.2.0
 _ZN10QtMobility18QSystemNetworkInfo18networkModeChangedENS0_11NetworkModeE@Base 1.1.0
 _ZN10QtMobility18QSystemNetworkInfo18networkNameChangedENS0_11NetworkModeERK7QString@Base 1.1.0
 _ZN10QtMobility18QSystemNetworkInfo20networkStatusChangedENS0_11NetworkModeENS0_13NetworkStatusE@Base 1.1.0
 _ZN10QtMobility18QSystemNetworkInfo21homeMobileCountryCodeEv@Base 1.1.0
 _ZN10QtMobility18QSystemNetworkInfo21homeMobileNetworkCodeEv@Base 1.1.0
 _ZN10QtMobility18QSystemNetworkInfo21networkSignalStrengthENS0_11NetworkModeE@Base 1.1.0
 _ZN10QtMobility18QSystemNetworkInfo24currentMobileCountryCodeEv@Base 1.1.0
 _ZN10QtMobility18QSystemNetworkInfo24currentMobileNetworkCodeEv@Base 1.1.0
 _ZN10QtMobility18QSystemNetworkInfo25cellDataTechnologyChangedENS0_18CellDataTechnologyE@Base 1.2.0
 _ZN10QtMobility18QSystemNetworkInfo28networkSignalStrengthChangedENS0_11NetworkModeEi@Base 1.1.0
 _ZN10QtMobility18QSystemNetworkInfo31currentMobileCountryCodeChangedERK7QString@Base 1.1.0
 _ZN10QtMobility18QSystemNetworkInfo31currentMobileNetworkCodeChangedERK7QString@Base 1.1.0
 _ZN10QtMobility18QSystemNetworkInfo6cellIdEv@Base 1.1.0
 _ZN10QtMobility18QSystemNetworkInfoC1EP7QObject@Base 1.1.0
 _ZN10QtMobility18QSystemNetworkInfoC2EP7QObject@Base 1.1.0
 _ZN10QtMobility18QSystemNetworkInfoD0Ev@Base 1.1.0
 _ZN10QtMobility18QSystemNetworkInfoD1Ev@Base 1.1.0
 _ZN10QtMobility18QSystemNetworkInfoD2Ev@Base 1.1.0
 _ZN10QtMobility18QSystemScreenSaver11qt_metacallEN11QMetaObject4CallEiPPv@Base 1.1.0
 _ZN10QtMobility18QSystemScreenSaver11qt_metacastEPKc@Base 1.1.0
 _ZN10QtMobility18QSystemScreenSaver16staticMetaObjectE@Base 1.1.0
 _ZN10QtMobility18QSystemScreenSaver20screenSaverInhibitedEv@Base 1.1.0
 _ZN10QtMobility18QSystemScreenSaver21setScreenSaverInhibitEv@Base 1.1.0
 _ZN10QtMobility18QSystemScreenSaver23setScreenSaverInhibitedEb@Base 1.2.0
 _ZN10QtMobility18QSystemScreenSaverC1EP7QObject@Base 1.1.0
 _ZN10QtMobility18QSystemScreenSaverC2EP7QObject@Base 1.1.0
 _ZN10QtMobility18QSystemScreenSaverD0Ev@Base 1.1.0
 _ZN10QtMobility18QSystemScreenSaverD1Ev@Base 1.1.0
 _ZN10QtMobility18QSystemScreenSaverD2Ev@Base 1.1.0
 _ZN10QtMobility18QSystemStorageInfo11qt_metacallEN11QMetaObject4CallEiPPv@Base 1.1.0
 _ZN10QtMobility18QSystemStorageInfo11qt_metacastEPKc@Base 1.1.0
 _ZN10QtMobility18QSystemStorageInfo11uriForDriveERK7QString@Base 1.2.0
 _ZN10QtMobility18QSystemStorageInfo12typeForDriveERK7QString@Base 1.1.0
 _ZN10QtMobility18QSystemStorageInfo13logicalDrivesEv@Base 1.1.0
 _ZN10QtMobility18QSystemStorageInfo14totalDiskSpaceERK7QString@Base 1.1.0
 _ZN10QtMobility18QSystemStorageInfo15getStorageStateERK7QString@Base 1.2.0
 _ZN10QtMobility18QSystemStorageInfo16staticMetaObjectE@Base 1.1.0
 _ZN10QtMobility18QSystemStorageInfo18availableDiskSpaceERK7QString@Base 1.1.0
 _ZN10QtMobility18QSystemStorageInfo19logicalDriveChangedEbRK7QString@Base 1.1.0
 _ZN10QtMobility18QSystemStorageInfo19storageStateChangedERK7QStringNS0_12StorageStateE@Base 1.2.0
 _ZN10QtMobility18QSystemStorageInfoC1EP7QObject@Base 1.1.0
 _ZN10QtMobility18QSystemStorageInfoC2EP7QObject@Base 1.1.0
 _ZN10QtMobility18QSystemStorageInfoD0Ev@Base 1.1.0
 _ZN10QtMobility18QSystemStorageInfoD1Ev@Base 1.1.0
 _ZN10QtMobility18QSystemStorageInfoD2Ev@Base 1.1.0
 _ZN10QtMobility19QSystemAlignedTimer10singleShotEiiP7QObjectPKc@Base 1.2.0
 _ZN10QtMobility19QSystemAlignedTimer11qt_metacallEN11QMetaObject4CallEiPPv@Base 1.2.0
 _ZN10QtMobility19QSystemAlignedTimer11qt_metacastEPKc@Base 1.2.0
 _ZN10QtMobility19QSystemAlignedTimer13setSingleShotEb@Base 1.2.0
 _ZN10QtMobility19QSystemAlignedTimer16staticMetaObjectE@Base 1.2.0
 _ZN10QtMobility19QSystemAlignedTimer18setMaximumIntervalEi@Base 1.2.0
 _ZN10QtMobility19QSystemAlignedTimer18setMinimumIntervalEi@Base 1.2.0
 _ZN10QtMobility19QSystemAlignedTimer4stopEv@Base 1.2.0
 _ZN10QtMobility19QSystemAlignedTimer5errorENS0_17AlignedTimerErrorE@Base 1.2.0
 _ZN10QtMobility19QSystemAlignedTimer5startEii@Base 1.2.0
 _ZN10QtMobility19QSystemAlignedTimer5startEv@Base 1.2.0
 _ZN10QtMobility19QSystemAlignedTimer6wokeUpEv@Base 1.2.0
 _ZN10QtMobility19QSystemAlignedTimer7timeoutEv@Base 1.2.0
 _ZN10QtMobility19QSystemAlignedTimerC1EP7QObject@Base 1.2.0
 _ZN10QtMobility19QSystemAlignedTimerC2EP7QObject@Base 1.2.0
 _ZN10QtMobility19QSystemAlignedTimerD0Ev@Base 1.2.0
 _ZN10QtMobility19QSystemAlignedTimerD1Ev@Base 1.2.0
 _ZN10QtMobility19QSystemAlignedTimerD2Ev@Base 1.2.0
 _ZN15QBasicAtomicInt3refEv@Base 1.1.0
 _ZN15QBasicAtomicInt5derefEv@Base 1.1.0
 (arch=powerpc)_ZN15QDBusObjectPathC1ERKS_@Base 1.2.0
 (arch=powerpc)_ZN15QDBusObjectPathC2ERKS_@Base 1.2.0
 (arch=powerpc)_ZN15QDBusObjectPathD1Ev@Base 1.2.0
 (arch=powerpc)_ZN15QDBusObjectPathD2Ev@Base 1.2.0
 _ZN5QCharC1E11QLatin1Char@Base 1.1.0
 _ZN5QCharC2E11QLatin1Char@Base 1.1.0
 (arch=powerpc)_ZN6QDebug6StreamD1Ev@Base 1.2.0
 (arch=powerpc)_ZN6QDebug6StreamD2Ev@Base 1.2.0
 _ZN7QString5clearEv@Base 1.2.0
 (optional=templinst|arch=powerpc)_ZN8QVariant9fromValueI15QDBusObjectPathEES_RKT_@Base 1.1.0
 (optional=templinst)_ZN8QVariant9fromValueIS_EES_RKT_@Base 1.2.0
 _ZNK10QByteArraycvPKcEv@Base 1.1.0
 _ZNK10QtMobility11QSystemInfo10metaObjectEv@Base 1.1.0
 _ZNK10QtMobility17QSystemDeviceInfo10metaObjectEv@Base 1.1.0
 _ZNK10QtMobility17QSystemDeviceInfo12batteryLevelEv@Base 1.1.0
 _ZNK10QtMobility17QSystemDeviceInfo14ProfileDetails15vibrationActiveEv@Base 1.2.0
 _ZNK10QtMobility17QSystemDeviceInfo14ProfileDetails19voiceRingtoneVolumeEv@Base 1.2.0
 _ZNK10QtMobility17QSystemDeviceInfo14ProfileDetails21messageRingtoneVolumeEv@Base 1.2.0
 _ZNK10QtMobility18QSystemBatteryInfo10metaObjectEv@Base 1.2.0
 _ZNK10QtMobility18QSystemBatteryInfo11chargerTypeEv@Base 1.2.0
 _ZNK10QtMobility18QSystemBatteryInfo11currentFlowEv@Base 1.2.0
 _ZNK10QtMobility18QSystemBatteryInfo13batteryStatusEv@Base 1.2.0
 _ZNK10QtMobility18QSystemBatteryInfo13chargingStateEv@Base 1.2.0
 _ZNK10QtMobility18QSystemBatteryInfo15nominalCapacityEv@Base 1.2.0
 _ZNK10QtMobility18QSystemBatteryInfo17remainingCapacityEv@Base 1.2.0
 _ZNK10QtMobility18QSystemBatteryInfo21energyMeasurementUnitEv@Base 1.2.0
 _ZNK10QtMobility18QSystemBatteryInfo21remainingCapacityBarsEv@Base 1.2.0
 _ZNK10QtMobility18QSystemBatteryInfo21remainingChargingTimeEv@Base 1.2.0
 _ZNK10QtMobility18QSystemBatteryInfo24remainingCapacityPercentEv@Base 1.2.0
 _ZNK10QtMobility18QSystemBatteryInfo7maxBarsEv@Base 1.2.0
 _ZNK10QtMobility18QSystemBatteryInfo7voltageEv@Base 1.2.0
 _ZNK10QtMobility18QSystemDisplayInfo10metaObjectEv@Base 1.1.0
 _ZNK10QtMobility18QSystemNetworkInfo10metaObjectEv@Base 1.1.0
 _ZNK10QtMobility18QSystemScreenSaver10metaObjectEv@Base 1.1.0
 _ZNK10QtMobility18QSystemStorageInfo10metaObjectEv@Base 1.1.0
 _ZNK10QtMobility19QSystemAlignedTimer10metaObjectEv@Base 1.2.0
 _ZNK10QtMobility19QSystemAlignedTimer12isSingleShotEv@Base 1.2.0
 _ZNK10QtMobility19QSystemAlignedTimer15maximumIntervalEv@Base 1.2.0
 _ZNK10QtMobility19QSystemAlignedTimer15minimumIntervalEv@Base 1.2.0
 _ZNK10QtMobility19QSystemAlignedTimer8isActiveEv@Base 1.2.0
 _ZNK10QtMobility19QSystemAlignedTimer9lastErrorEv@Base 1.2.0
 _ZNK14QDesktopWidget11screenCountEv@Base 1.1.0
 _ZNK5QRect5widthEv@Base 1.2.0
 _ZNK5QRect6heightEv@Base 1.2.0
 _ZNK7QString3argEiiiRK5QChar@Base 1.2.0
 (arch=amd64)_ZNK7QString3argEmiiRK5QChar@Base 1.1.0
 (optional=templinst|arch=powerpc)_ZNK8QVariant5valueI15QDBusObjectPathEET_v@Base 1.1.0
 _ZTI12QDBusContext@Base 1.1.0
 _ZTIN10QtMobility11QSystemInfoE@Base 1.1.0
 _ZTIN10QtMobility17QSystemDeviceInfoE@Base 1.1.0
 _ZTIN10QtMobility18QSystemBatteryInfoE@Base 1.2.0
 _ZTIN10QtMobility18QSystemDisplayInfoE@Base 1.1.0
 _ZTIN10QtMobility18QSystemNetworkInfoE@Base 1.1.0
 _ZTIN10QtMobility18QSystemScreenSaverE@Base 1.1.0
 _ZTIN10QtMobility18QSystemStorageInfoE@Base 1.1.0
 _ZTIN10QtMobility19QSystemAlignedTimerE@Base 1.2.0
 _ZTS12QDBusContext@Base 1.1.0
 _ZTSN10QtMobility11QSystemInfoE@Base 1.1.0
 _ZTSN10QtMobility17QSystemDeviceInfoE@Base 1.1.0
 _ZTSN10QtMobility18QSystemBatteryInfoE@Base 1.2.0
 _ZTSN10QtMobility18QSystemDisplayInfoE@Base 1.1.0
 _ZTSN10QtMobility18QSystemNetworkInfoE@Base 1.1.0
 _ZTSN10QtMobility18QSystemScreenSaverE@Base 1.1.0
 _ZTSN10QtMobility18QSystemStorageInfoE@Base 1.1.0
 _ZTSN10QtMobility19QSystemAlignedTimerE@Base 1.2.0
 _ZTVN10QtMobility11QSystemInfoE@Base 1.1.0
 _ZTVN10QtMobility17QSystemDeviceInfoE@Base 1.1.0
 _ZTVN10QtMobility18QSystemBatteryInfoE@Base 1.2.0
 _ZTVN10QtMobility18QSystemDisplayInfoE@Base 1.1.0
 _ZTVN10QtMobility18QSystemNetworkInfoE@Base 1.1.0
 _ZTVN10QtMobility18QSystemScreenSaverE@Base 1.1.0
 _ZTVN10QtMobility18QSystemStorageInfoE@Base 1.1.0
 _ZTVN10QtMobility19QSystemAlignedTimerE@Base 1.2.0
