# SymbolsHelper-Confirmed: 1.2.0 amd64
libQtFeedback.so.1 libqtfeedback1 #MINVER#
 _Z6qDebugv@Base 1.1.0
 _Z8qWarningv@Base 1.1.0
 _ZN10QByteArray4dataEv@Base 1.1.0
 _ZN10QtMobility15QFeedbackEffect11qt_metacallEN11QMetaObject4CallEiPPv@Base 1.1.0
 _ZN10QtMobility15QFeedbackEffect11qt_metacastEPKc@Base 1.1.0
 _ZN10QtMobility15QFeedbackEffect12stateChangedEv@Base 1.1.0
 _ZN10QtMobility15QFeedbackEffect15playThemeEffectENS0_11ThemeEffectE@Base 1.1.0
 _ZN10QtMobility15QFeedbackEffect16staticMetaObjectE@Base 1.1.0
 _ZN10QtMobility15QFeedbackEffect19supportsThemeEffectEv@Base 1.1.0
 _ZN10QtMobility15QFeedbackEffect4stopEv@Base 1.1.0
 _ZN10QtMobility15QFeedbackEffect5pauseEv@Base 1.1.0
 _ZN10QtMobility15QFeedbackEffect5startEv@Base 1.1.0
 _ZN10QtMobility15QFeedbackEffectC1EP7QObject@Base 1.1.0
 _ZN10QtMobility15QFeedbackEffectC2EP7QObject@Base 1.1.0
 _ZN10QtMobility15QFeedbackEffectD0Ev@Base 1.2.0
 _ZN10QtMobility15QFeedbackEffectD1Ev@Base 1.2.0
 _ZN10QtMobility15QFeedbackEffectD2Ev@Base 1.2.0
 _ZN10QtMobility17QFeedbackActuator10setEnabledEb@Base 1.1.0
 _ZN10QtMobility17QFeedbackActuator11qt_metacallEN11QMetaObject4CallEiPPv@Base 1.1.0
 _ZN10QtMobility17QFeedbackActuator11qt_metacastEPKc@Base 1.1.0
 _ZN10QtMobility17QFeedbackActuator14enabledChangedEv@Base 1.1.0
 _ZN10QtMobility17QFeedbackActuator16staticMetaObjectE@Base 1.1.0
 _ZN10QtMobility17QFeedbackActuator9actuatorsEv@Base 1.1.0
 _ZN10QtMobility17QFeedbackActuatorC1EP7QObject@Base 1.1.0
 _ZN10QtMobility17QFeedbackActuatorC1EP7QObjecti@Base 1.1.0
 _ZN10QtMobility17QFeedbackActuatorC2EP7QObject@Base 1.1.0
 _ZN10QtMobility17QFeedbackActuatorC2EP7QObjecti@Base 1.1.0
 _ZN10QtMobility17QFeedbackActuatorD0Ev@Base 1.2.0
 _ZN10QtMobility17QFeedbackActuatorD1Ev@Base 1.2.0
 _ZN10QtMobility17QFeedbackActuatorD2Ev@Base 1.2.0
 _ZN10QtMobility18QFeedbackInterface11reportErrorEPKNS_15QFeedbackEffectENS1_9ErrorTypeE@Base 1.1.0
 _ZN10QtMobility18QFeedbackInterfaceC1Ev@Base 1.2.0
 _ZN10QtMobility18QFeedbackInterfaceC2Ev@Base 1.2.0
 _ZN10QtMobility19QFeedbackFileEffect11qt_metacallEN11QMetaObject4CallEiPPv@Base 1.1.0
 _ZN10QtMobility19QFeedbackFileEffect11qt_metacastEPKc@Base 1.1.0
 _ZN10QtMobility19QFeedbackFileEffect16staticMetaObjectE@Base 1.1.0
 _ZN10QtMobility19QFeedbackFileEffect18supportedMimeTypesEv@Base 1.1.0
 _ZN10QtMobility19QFeedbackFileEffect4loadEv@Base 1.1.0
 _ZN10QtMobility19QFeedbackFileEffect6unloadEv@Base 1.1.0
 _ZN10QtMobility19QFeedbackFileEffect8setStateENS_15QFeedbackEffect5StateE@Base 1.1.0
 _ZN10QtMobility19QFeedbackFileEffect9setLoadedEb@Base 1.1.0
 _ZN10QtMobility19QFeedbackFileEffect9setSourceERK4QUrl@Base 1.1.0
 _ZN10QtMobility19QFeedbackFileEffectC1EP7QObject@Base 1.1.0
 _ZN10QtMobility19QFeedbackFileEffectC2EP7QObject@Base 1.1.0
 _ZN10QtMobility19QFeedbackFileEffectD0Ev@Base 1.1.0
 _ZN10QtMobility19QFeedbackFileEffectD1Ev@Base 1.1.0
 _ZN10QtMobility19QFeedbackFileEffectD2Ev@Base 1.1.0
 _ZN10QtMobility22QFeedbackFileInterface18reportLoadFinishedEPNS_19QFeedbackFileEffectEb@Base 1.1.0
 _ZN10QtMobility22QFeedbackFileInterface8instanceEv@Base 1.1.0
 _ZN10QtMobility22QFeedbackFileInterfaceC1Ev@Base 1.2.0
 _ZN10QtMobility22QFeedbackFileInterfaceC2Ev@Base 1.2.0
 _ZN10QtMobility22QFeedbackHapticsEffect11qt_metacallEN11QMetaObject4CallEiPPv@Base 1.1.0
 _ZN10QtMobility22QFeedbackHapticsEffect11qt_metacastEPKc@Base 1.1.0
 _ZN10QtMobility22QFeedbackHapticsEffect11setActuatorEPNS_17QFeedbackActuatorE@Base 1.1.0
 _ZN10QtMobility22QFeedbackHapticsEffect11setDurationEi@Base 1.1.0
 _ZN10QtMobility22QFeedbackHapticsEffect11setFadeTimeEi@Base 1.1.0
 (subst)_ZN10QtMobility22QFeedbackHapticsEffect12setIntensityE{qreal}@Base 1.1.0
 _ZN10QtMobility22QFeedbackHapticsEffect13setAttackTimeEi@Base 1.1.0
 (subst)_ZN10QtMobility22QFeedbackHapticsEffect16setFadeIntensityE{qreal}@Base 1.1.0
 _ZN10QtMobility22QFeedbackHapticsEffect16staticMetaObjectE@Base 1.1.0
 (subst)_ZN10QtMobility22QFeedbackHapticsEffect18setAttackIntensityE{qreal}@Base 1.1.0
 _ZN10QtMobility22QFeedbackHapticsEffect8setStateENS_15QFeedbackEffect5StateE@Base 1.1.0
 _ZN10QtMobility22QFeedbackHapticsEffect9setPeriodEi@Base 1.1.0
 _ZN10QtMobility22QFeedbackHapticsEffectC1EP7QObject@Base 1.1.0
 _ZN10QtMobility22QFeedbackHapticsEffectC2EP7QObject@Base 1.1.0
 _ZN10QtMobility22QFeedbackHapticsEffectD0Ev@Base 1.1.0
 _ZN10QtMobility22QFeedbackHapticsEffectD1Ev@Base 1.1.0
 _ZN10QtMobility22QFeedbackHapticsEffectD2Ev@Base 1.1.0
 _ZN10QtMobility25QFeedbackHapticsInterface22createFeedbackActuatorEP7QObjecti@Base 1.1.0
 _ZN10QtMobility25QFeedbackHapticsInterface8instanceEv@Base 1.1.0
 _ZN10QtMobility25QFeedbackHapticsInterfaceC1Ev@Base 1.2.0
 _ZN10QtMobility25QFeedbackHapticsInterfaceC2Ev@Base 1.2.0
 _ZN15QBasicAtomicInt3refEv@Base 1.1.0
 _ZN15QBasicAtomicInt5derefEv@Base 1.1.0
 _ZN6QDebug6StreamD1Ev@Base 1.2.0
 _ZN6QDebug6StreamD2Ev@Base 1.2.0
 _ZN9QHashData8willGrowEv@Base 1.1.0
 _ZNK10QtMobility15QFeedbackEffect10metaObjectEv@Base 1.1.0
 _ZNK10QtMobility15QFeedbackEffect5errorENS0_9ErrorTypeE@Base 1.1.0
 _ZNK10QtMobility17QFeedbackActuator10metaObjectEv@Base 1.1.0
 _ZNK10QtMobility17QFeedbackActuator21isCapabilitySupportedENS0_10CapabilityE@Base 1.1.0
 _ZNK10QtMobility17QFeedbackActuator2idEv@Base 1.1.0
 _ZNK10QtMobility17QFeedbackActuator4nameEv@Base 1.1.0
 _ZNK10QtMobility17QFeedbackActuator5stateEv@Base 1.1.0
 _ZNK10QtMobility17QFeedbackActuator7isValidEv@Base 1.1.0
 _ZNK10QtMobility17QFeedbackActuator9isEnabledEv@Base 1.1.0
 _ZNK10QtMobility17QFeedbackActuatoreqERKS0_@Base 1.1.0
 _ZNK10QtMobility19QFeedbackFileEffect10metaObjectEv@Base 1.1.0
 _ZNK10QtMobility19QFeedbackFileEffect5stateEv@Base 1.1.0
 _ZNK10QtMobility19QFeedbackFileEffect6sourceEv@Base 1.1.0
 _ZNK10QtMobility19QFeedbackFileEffect8durationEv@Base 1.1.0
 _ZNK10QtMobility19QFeedbackFileEffect8isLoadedEv@Base 1.1.0
 _ZNK10QtMobility22QFeedbackHapticsEffect10attackTimeEv@Base 1.1.0
 _ZNK10QtMobility22QFeedbackHapticsEffect10metaObjectEv@Base 1.1.0
 _ZNK10QtMobility22QFeedbackHapticsEffect13fadeIntensityEv@Base 1.1.0
 _ZNK10QtMobility22QFeedbackHapticsEffect15attackIntensityEv@Base 1.1.0
 _ZNK10QtMobility22QFeedbackHapticsEffect5stateEv@Base 1.1.0
 _ZNK10QtMobility22QFeedbackHapticsEffect6periodEv@Base 1.1.0
 _ZNK10QtMobility22QFeedbackHapticsEffect8actuatorEv@Base 1.1.0
 _ZNK10QtMobility22QFeedbackHapticsEffect8durationEv@Base 1.1.0
 _ZNK10QtMobility22QFeedbackHapticsEffect8fadeTimeEv@Base 1.1.0
 _ZNK10QtMobility22QFeedbackHapticsEffect9intensityEv@Base 1.1.0
 _ZTIN10QtMobility15QFeedbackEffectE@Base 1.1.0
 _ZTIN10QtMobility17QFeedbackActuatorE@Base 1.1.0
 _ZTIN10QtMobility18QFeedbackInterfaceE@Base 1.1.0
 _ZTIN10QtMobility19QFeedbackFileEffectE@Base 1.1.0
 _ZTIN10QtMobility22QFeedbackFileInterfaceE@Base 1.1.0
 _ZTIN10QtMobility22QFeedbackHapticsEffectE@Base 1.1.0
 _ZTIN10QtMobility25QFeedbackHapticsInterfaceE@Base 1.1.0
 _ZTSN10QtMobility15QFeedbackEffectE@Base 1.1.0
 _ZTSN10QtMobility17QFeedbackActuatorE@Base 1.1.0
 _ZTSN10QtMobility18QFeedbackInterfaceE@Base 1.1.0
 _ZTSN10QtMobility19QFeedbackFileEffectE@Base 1.1.0
 _ZTSN10QtMobility22QFeedbackFileInterfaceE@Base 1.1.0
 _ZTSN10QtMobility22QFeedbackHapticsEffectE@Base 1.1.0
 _ZTSN10QtMobility25QFeedbackHapticsInterfaceE@Base 1.1.0
 _ZTVN10QtMobility15QFeedbackEffectE@Base 1.1.0
 _ZTVN10QtMobility17QFeedbackActuatorE@Base 1.1.0
 _ZTVN10QtMobility19QFeedbackFileEffectE@Base 1.1.0
 _ZTVN10QtMobility22QFeedbackFileInterfaceE@Base 1.1.0
 _ZTVN10QtMobility22QFeedbackHapticsEffectE@Base 1.1.0
 _ZTVN10QtMobility25QFeedbackHapticsInterfaceE@Base 1.1.0
