# SymbolsHelper-Confirmed: 1.2.0 amd64 i386
libQtVersitOrganizer.so.1 libqtversitorganizer1 #MINVER#
 _Z6qDebugv@Base 1.1.0
 _ZN10QByteArray4dataEv@Base 1.1.0
#MISSING: 1.2.0# _ZN10QtMobility15QOrganizerEventD1Ev@Base 1.2.0
#MISSING: 1.2.0# _ZN10QtMobility15QOrganizerEventD2Ev@Base 1.2.0
#MISSING: 1.2.0# _ZN10QtMobility18QOrganizerTodoTimeD1Ev@Base 1.2.0
#MISSING: 1.2.0# _ZN10QtMobility18QOrganizerTodoTimeD2Ev@Base 1.2.0
#MISSING: 1.2.0# _ZN10QtMobility19QOrganizerEventTimeD1Ev@Base 1.2.0
#MISSING: 1.2.0# _ZN10QtMobility19QOrganizerEventTimeD2Ev@Base 1.2.0
 (optional=templinst)_ZN10QtMobility20QOrganizerItemDetail8setValueILi12EEEbRKNS_15QLatin1ConstantIXT_EEERK8QVariant@Base 1.1.0
 (optional=templinst)_ZN10QtMobility20QOrganizerItemDetail8setValueILi13EEEbRKNS_15QLatin1ConstantIXT_EEERK8QVariant@Base 1.1.0
 (optional=templinst)_ZN10QtMobility20QOrganizerItemDetail8setValueILi14EEEbRKNS_15QLatin1ConstantIXT_EEERK8QVariant@Base 1.1.0
 (optional=templinst)_ZN10QtMobility20QOrganizerItemDetail8setValueILi17EEEbRKNS_15QLatin1ConstantIXT_EEERK8QVariant@Base 1.1.0
 (optional=templinst)_ZN10QtMobility20QOrganizerItemDetail8setValueILi18EEEbRKNS_15QLatin1ConstantIXT_EEERK8QVariant@Base 1.1.0
 (optional=templinst)_ZN10QtMobility20QOrganizerItemDetail8setValueILi19EEEbRKNS_15QLatin1ConstantIXT_EEERK8QVariant@Base 1.1.0
 (optional=templinst)_ZN10QtMobility20QOrganizerItemDetail8setValueILi22EEEbRKNS_15QLatin1ConstantIXT_EEERK8QVariant@Base 1.1.0
 (optional=templinst)_ZN10QtMobility20QOrganizerItemDetail8setValueILi7EEEbRKNS_15QLatin1ConstantIXT_EEERK8QVariant@Base 1.1.0
 (optional=templinst)_ZN10QtMobility20QOrganizerItemDetail8setValueILi8EEEbRKNS_15QLatin1ConstantIXT_EEERK8QVariant@Base 1.1.0
 (optional=templinst)_ZN10QtMobility20QOrganizerItemDetail8setValueILi9EEEbRKNS_15QLatin1ConstantIXT_EEERK8QVariant@Base 1.1.0
#MISSING: 1.2.0# _ZN10QtMobility20QOrganizerItemParentD1Ev@Base 1.2.0
#MISSING: 1.2.0# _ZN10QtMobility20QOrganizerItemParentD2Ev@Base 1.2.0
#MISSING: 1.2.0# _ZN10QtMobility21QOrganizerItemCommentD1Ev@Base 1.2.0
#MISSING: 1.2.0# _ZN10QtMobility21QOrganizerItemCommentD2Ev@Base 1.2.0
#MISSING: 1.2.0# _ZN10QtMobility21QOrganizerJournalTimeD1Ev@Base 1.2.0
#MISSING: 1.2.0# _ZN10QtMobility21QOrganizerJournalTimeD2Ev@Base 1.2.0
#MISSING: 1.2.0# _ZN10QtMobility22QOrganizerItemPriorityD1Ev@Base 1.2.0
#MISSING: 1.2.0# _ZN10QtMobility22QOrganizerItemPriorityD2Ev@Base 1.2.0
#MISSING: 1.2.0# _ZN10QtMobility22QOrganizerTodoProgressD1Ev@Base 1.2.0
#MISSING: 1.2.0# _ZN10QtMobility22QOrganizerTodoProgressD2Ev@Base 1.2.0
#MISSING: 1.2.0# _ZN10QtMobility23QOrganizerItemTimestampD1Ev@Base 1.2.0
#MISSING: 1.2.0# _ZN10QtMobility23QOrganizerItemTimestampD2Ev@Base 1.2.0
#MISSING: 1.2.0# _ZN10QtMobility24QOrganizerItemRecurrenceD1Ev@Base 1.2.0
#MISSING: 1.2.0# _ZN10QtMobility24QOrganizerItemRecurrenceD2Ev@Base 1.2.0
 _ZN10QtMobility24QVersitOrganizerExporter11exportItemsERK5QListINS_14QOrganizerItemEENS_15QVersitDocument10VersitTypeE@Base 1.1.0
 _ZN10QtMobility24QVersitOrganizerExporter16setDetailHandlerEPNS_37QVersitOrganizerExporterDetailHandlerE@Base 1.1.0
 _ZN10QtMobility24QVersitOrganizerExporterC1ERK7QString@Base 1.1.0
 _ZN10QtMobility24QVersitOrganizerExporterC1Ev@Base 1.1.0
 _ZN10QtMobility24QVersitOrganizerExporterC2ERK7QString@Base 1.1.0
 _ZN10QtMobility24QVersitOrganizerExporterC2Ev@Base 1.1.0
 _ZN10QtMobility24QVersitOrganizerExporterD1Ev@Base 1.1.0
 _ZN10QtMobility24QVersitOrganizerExporterD2Ev@Base 1.1.0
 _ZN10QtMobility24QVersitOrganizerImporter14importDocumentERKNS_15QVersitDocumentE@Base 1.1.0
 _ZN10QtMobility24QVersitOrganizerImporter18setPropertyHandlerEPNS_39QVersitOrganizerImporterPropertyHandlerE@Base 1.1.0
 _ZN10QtMobility24QVersitOrganizerImporterC1ERK7QString@Base 1.1.0
 _ZN10QtMobility24QVersitOrganizerImporterC1Ev@Base 1.1.0
 _ZN10QtMobility24QVersitOrganizerImporterC2ERK7QString@Base 1.1.0
 _ZN10QtMobility24QVersitOrganizerImporterC2Ev@Base 1.1.0
 _ZN10QtMobility24QVersitOrganizerImporterD1Ev@Base 1.1.0
 _ZN10QtMobility24QVersitOrganizerImporterD2Ev@Base 1.1.0
#MISSING: 1.2.0# _ZN10QtMobility25QOrganizerEventOccurrenceD1Ev@Base 1.2.0
#MISSING: 1.2.0# _ZN10QtMobility25QOrganizerEventOccurrenceD2Ev@Base 1.2.0
 _ZN10QtMobility30QVersitOrganizerHandlerFactory11ProfileSyncE@Base 1.1.0
 _ZN10QtMobility30QVersitOrganizerHandlerFactory13ProfileBackupE@Base 1.1.0
 _ZN15QBasicAtomicInt3refEv@Base 1.1.0
 _ZN15QBasicAtomicInt5derefEv@Base 1.1.0
 _ZN5QCharC1E11QLatin1Char@Base 1.1.0
 _ZN5QCharC2E11QLatin1Char@Base 1.1.0
#MISSING: 1.2.0# _ZN6QDebug6StreamD1Ev@Base 1.2.0
#MISSING: 1.2.0# _ZN6QDebug6StreamD2Ev@Base 1.2.0
 _ZN9QHashData8willGrowEv@Base 1.1.0
 _ZN9QHashData9firstNodeEv@Base 1.1.0
 (optional=templinst)_ZNK10QtMobility14QOrganizerItem6detailINS_18QOrganizerTodoTimeEEET_v@Base 1.1.0
 (optional=templinst)_ZNK10QtMobility14QOrganizerItem6detailINS_19QOrganizerEventTimeEEET_v@Base 1.1.0
 (optional=templinst)_ZNK10QtMobility14QOrganizerItem6detailINS_20QOrganizerItemParentEEET_v@Base 1.1.0
 (optional=templinst)_ZNK10QtMobility14QOrganizerItem6detailINS_21QOrganizerJournalTimeEEET_v@Base 1.1.0
 (optional=templinst)_ZNK10QtMobility14QOrganizerItem6detailINS_22QOrganizerItemPriorityEEET_v@Base 1.1.0
 (optional=templinst)_ZNK10QtMobility14QOrganizerItem6detailINS_22QOrganizerTodoProgressEEET_v@Base 1.1.0
 (optional=templinst)_ZNK10QtMobility14QOrganizerItem6detailINS_23QOrganizerItemTimestampEEET_v@Base 1.1.0
 (optional=templinst)_ZNK10QtMobility14QOrganizerItem6detailINS_24QOrganizerItemRecurrenceEEET_v@Base 1.1.0
 (optional=templinst)_ZNK10QtMobility20QOrganizerItemDetail12variantValueILi13EEE8QVariantRKNS_15QLatin1ConstantIXT_EEE@Base 1.1.0
 (optional=templinst)_ZNK10QtMobility20QOrganizerItemDetail5valueI9QDateTimeEET_PKc@Base 1.1.0
 (optional=templinst)_ZNK10QtMobility20QOrganizerItemDetail5valueI9QDateTimeLi12EEET_RKNS_15QLatin1ConstantIXT0_EEE@Base 1.1.0
 (optional=templinst)_ZNK10QtMobility20QOrganizerItemDetail5valueI9QDateTimeLi14EEET_RKNS_15QLatin1ConstantIXT0_EEE@Base 1.1.0
 (optional=templinst)_ZNK10QtMobility20QOrganizerItemDetail5valueI9QDateTimeLi17EEET_RKNS_15QLatin1ConstantIXT0_EEE@Base 1.1.0
 (optional=templinst)_ZNK10QtMobility20QOrganizerItemDetail5valueI9QDateTimeLi18EEET_RKNS_15QLatin1ConstantIXT0_EEE@Base 1.1.0
 (optional=templinst)_ZNK10QtMobility20QOrganizerItemDetail5valueI9QDateTimeLi22EEET_RKNS_15QLatin1ConstantIXT0_EEE@Base 1.1.0
 (optional=templinst)_ZNK10QtMobility20QOrganizerItemDetail5valueILi8EEE7QStringRKNS_15QLatin1ConstantIXT_EEE@Base 1.1.0
 (optional=templinst)_ZNK10QtMobility20QOrganizerItemDetail5valueIbEET_PKc@Base 1.2.0
 (optional=templinst)_ZNK10QtMobility20QOrganizerItemDetail5valueIbLi7EEET_RKNS_15QLatin1ConstantIXT0_EEE@Base 1.2.0
 (optional=templinst)_ZNK10QtMobility20QOrganizerItemDetail5valueIiEET_PKc@Base 1.1.0
 (optional=templinst)_ZNK10QtMobility20QOrganizerItemDetail5valueIiLi19EEET_RKNS_15QLatin1ConstantIXT0_EEE@Base 1.1.0
 (optional=templinst)_ZNK10QtMobility20QOrganizerItemDetail5valueIiLi7EEET_RKNS_15QLatin1ConstantIXT0_EEE@Base 1.1.0
 (optional=templinst)_ZNK10QtMobility20QOrganizerItemDetail5valueIiLi9EEET_RKNS_15QLatin1ConstantIXT0_EEE@Base 1.1.0
 (optional=templinst)_ZNK10QtMobility20QOrganizerItemDetail8hasValueILi19EEEbRKNS_15QLatin1ConstantIXT_EEE@Base 1.1.0
 (optional=templinst)_ZNK10QtMobility20QOrganizerItemDetail8hasValueILi7EEEbRKNS_15QLatin1ConstantIXT_EEE@Base 1.1.0
 _ZNK10QtMobility24QVersitOrganizerExporter8documentEv@Base 1.1.0
 _ZNK10QtMobility24QVersitOrganizerExporter8errorMapEv@Base 1.1.0
 _ZNK10QtMobility24QVersitOrganizerImporter5itemsEv@Base 1.1.0
 _ZNK10QtMobility24QVersitOrganizerImporter8errorMapEv@Base 1.1.0
 (optional=templinst)_ZNK8QVariant5valueI9QDateTimeEET_v@Base 1.1.0
 (optional=templinst)_ZNK8QVariant5valueIbEET_v@Base 1.2.0
 (optional=templinst)_ZNK8QVariant5valueIiEET_v@Base 1.1.0
 _ZSt4swapI5QDateEvRT_S2_@Base 1.2.0
 _ZSt4swapIN10QtMobility24QOrganizerRecurrenceRule5MonthEEvRT_S4_@Base 1.2.0
 _ZSt4swapIN2Qt9DayOfWeekEEvRT_S3_@Base 1.2.0
 _ZSt4swapIPN10QtMobility30QVersitOrganizerHandlerFactoryEEvRT_S4_@Base 1.2.0
 _ZSt4swapIiEvRT_S1_@Base 1.2.0
