# SymbolsHelper-Confirmed: 1.2.0 amd64 i386 powerpc
libQtOrganizer.so.1 libqtorganizer1 #MINVER#
 _Z6qDebugv@Base 1.1.0
 _Z8qWarningv@Base 1.1.0
 _ZN10QByteArray4dataEv@Base 1.1.0
 _ZN10QtMobility14QOrganizerItem10addCommentERK7QString@Base 1.1.0
 _ZN10QtMobility14QOrganizerItem10saveDetailEPNS_20QOrganizerItemDetailE@Base 1.1.0
 _ZN10QtMobility14QOrganizerItem11setCommentsERK11QStringList@Base 1.2.0
 _ZN10QtMobility14QOrganizerItem12clearDetailsEv@Base 1.1.0
 _ZN10QtMobility14QOrganizerItem12removeDetailEPNS_20QOrganizerItemDetailE@Base 1.1.0
 _ZN10QtMobility14QOrganizerItem13clearCommentsEv@Base 1.1.0
 _ZN10QtMobility14QOrganizerItem14setDescriptionERK7QString@Base 1.1.0
 _ZN10QtMobility14QOrganizerItem14setDescriptionERKNS_25QOrganizerItemDescriptionE@Base 1.1.0
 _ZN10QtMobility14QOrganizerItem15setCollectionIdERKNS_22QOrganizerCollectionIdE@Base 1.1.0
 _ZN10QtMobility14QOrganizerItem15setDisplayLabelERK7QString@Base 1.1.0
 _ZN10QtMobility14QOrganizerItem15setDisplayLabelERKNS_26QOrganizerItemDisplayLabelE@Base 1.1.0
 _ZN10QtMobility14QOrganizerItem5setIdERKNS_16QOrganizerItemIdE@Base 1.1.0
 _ZN10QtMobility14QOrganizerItem6addTagERK7QString@Base 1.2.0
 _ZN10QtMobility14QOrganizerItem6assignERKS0_PKc@Base 1.1.0
 _ZN10QtMobility14QOrganizerItem7setGuidERK7QString@Base 1.1.0
 _ZN10QtMobility14QOrganizerItem7setTagsERK11QStringList@Base 1.2.0
 _ZN10QtMobility14QOrganizerItem7setTypeERK7QString@Base 1.1.0
 _ZN10QtMobility14QOrganizerItem7setTypeERKNS_18QOrganizerItemTypeE@Base 1.1.0
 _ZN10QtMobility14QOrganizerItem9clearTagsEv@Base 1.2.0
 _ZN10QtMobility14QOrganizerItemC1EPKc@Base 1.1.0
 _ZN10QtMobility14QOrganizerItemC1ERKS0_@Base 1.1.0
 _ZN10QtMobility14QOrganizerItemC1ERKS0_PKc@Base 1.1.0
 _ZN10QtMobility14QOrganizerItemC1Ev@Base 1.1.0
 _ZN10QtMobility14QOrganizerItemC2EPKc@Base 1.1.0
 _ZN10QtMobility14QOrganizerItemC2ERKS0_@Base 1.1.0
 _ZN10QtMobility14QOrganizerItemC2ERKS0_PKc@Base 1.1.0
 _ZN10QtMobility14QOrganizerItemC2Ev@Base 1.1.0
 _ZN10QtMobility14QOrganizerItemD1Ev@Base 1.1.0
 _ZN10QtMobility14QOrganizerItemD2Ev@Base 1.1.0
 _ZN10QtMobility14QOrganizerItemaSERKS0_@Base 1.1.0
 _ZN10QtMobility14QOrganizerTodo11setPriorityENS_22QOrganizerItemPriority8PriorityE@Base 1.1.0
 _ZN10QtMobility14QOrganizerTodo14setDueDateTimeERK9QDateTime@Base 1.1.0
 _ZN10QtMobility14QOrganizerTodo16setExceptionRuleERKNS_24QOrganizerRecurrenceRuleE@Base 1.1.0
 _ZN10QtMobility14QOrganizerTodo16setStartDateTimeERK9QDateTime@Base 1.1.0
 _ZN10QtMobility14QOrganizerTodo17setExceptionDatesERK4QSetI5QDateE@Base 1.1.0
 _ZN10QtMobility14QOrganizerTodo17setExceptionRulesERK4QSetINS_24QOrganizerRecurrenceRuleEE@Base 1.1.0
 _ZN10QtMobility14QOrganizerTodo17setRecurrenceRuleERKNS_24QOrganizerRecurrenceRuleE@Base 1.1.0
 _ZN10QtMobility14QOrganizerTodo18setRecurrenceDatesERK4QSetI5QDateE@Base 1.1.0
 _ZN10QtMobility14QOrganizerTodo18setRecurrenceRulesERK4QSetINS_24QOrganizerRecurrenceRuleEE@Base 1.1.0
 _ZN10QtMobility14QOrganizerTodo19setFinishedDateTimeERK9QDateTime@Base 1.1.0
 _ZN10QtMobility14QOrganizerTodo21setProgressPercentageEi@Base 1.1.0
 _ZN10QtMobility14QOrganizerTodo9setAllDayEb@Base 1.1.0
 _ZN10QtMobility14QOrganizerTodo9setStatusENS_22QOrganizerTodoProgress6StatusE@Base 1.1.0
 (arch=powerpc)_ZN10QtMobility14QOrganizerTodoD1Ev@Base 1.2.0
 (arch=powerpc)_ZN10QtMobility14QOrganizerTodoD2Ev@Base 1.2.0
 _ZN10QtMobility15QOrganizerEvent11setLocationERK7QString@Base 1.1.0
 _ZN10QtMobility15QOrganizerEvent11setPriorityENS_22QOrganizerItemPriority8PriorityE@Base 1.1.0
 _ZN10QtMobility15QOrganizerEvent14setEndDateTimeERK9QDateTime@Base 1.1.0
 _ZN10QtMobility15QOrganizerEvent16setExceptionDateERK5QDate@Base 1.1.0
 _ZN10QtMobility15QOrganizerEvent16setExceptionRuleERKNS_24QOrganizerRecurrenceRuleE@Base 1.1.0
 _ZN10QtMobility15QOrganizerEvent16setStartDateTimeERK9QDateTime@Base 1.1.0
 _ZN10QtMobility15QOrganizerEvent17setExceptionDatesERK4QSetI5QDateE@Base 1.1.0
 _ZN10QtMobility15QOrganizerEvent17setExceptionRulesERK4QSetINS_24QOrganizerRecurrenceRuleEE@Base 1.1.0
 _ZN10QtMobility15QOrganizerEvent17setRecurrenceDateERK5QDate@Base 1.1.0
 _ZN10QtMobility15QOrganizerEvent17setRecurrenceRuleERKNS_24QOrganizerRecurrenceRuleE@Base 1.1.0
 _ZN10QtMobility15QOrganizerEvent18setRecurrenceDatesERK4QSetI5QDateE@Base 1.1.0
 _ZN10QtMobility15QOrganizerEvent18setRecurrenceRulesERK4QSetINS_24QOrganizerRecurrenceRuleEE@Base 1.1.0
 _ZN10QtMobility15QOrganizerEvent9setAllDayEb@Base 1.1.0
 (arch=powerpc)_ZN10QtMobility15QOrganizerEventD1Ev@Base 1.2.0
 (arch=powerpc)_ZN10QtMobility15QOrganizerEventD2Ev@Base 1.2.0
 _ZN10QtMobility16QOrganizerItemId10fromStringERK7QString@Base 1.1.0
 _ZN10QtMobility16QOrganizerItemIdC1EPNS_22QOrganizerItemEngineIdE@Base 1.1.0
 _ZN10QtMobility16QOrganizerItemIdC1ERKS0_@Base 1.1.0
 _ZN10QtMobility16QOrganizerItemIdC1Ev@Base 1.1.0
 _ZN10QtMobility16QOrganizerItemIdC2EPNS_22QOrganizerItemEngineIdE@Base 1.1.0
 _ZN10QtMobility16QOrganizerItemIdC2ERKS0_@Base 1.1.0
 _ZN10QtMobility16QOrganizerItemIdC2Ev@Base 1.1.0
 _ZN10QtMobility16QOrganizerItemIdD1Ev@Base 1.1.0
 _ZN10QtMobility16QOrganizerItemIdD2Ev@Base 1.1.0
 _ZN10QtMobility16QOrganizerItemIdaSERKS0_@Base 1.1.0
 _ZN10QtMobility17QOrganizerItemTag14DefinitionNameE@Base 1.1.0
 _ZN10QtMobility17QOrganizerItemTag5matchERK7QString@Base 1.1.0
 _ZN10QtMobility17QOrganizerItemTag8FieldTagE@Base 1.1.0
 (arch=powerpc)_ZN10QtMobility17QOrganizerItemTagC1ERKS0_@Base 1.2.0
 (arch=powerpc)_ZN10QtMobility17QOrganizerItemTagC2ERKS0_@Base 1.2.0
 (arch=powerpc)_ZN10QtMobility17QOrganizerItemTagD1Ev@Base 1.2.0
 (arch=powerpc)_ZN10QtMobility17QOrganizerItemTagD2Ev@Base 1.2.0
 _ZN10QtMobility17QOrganizerJournal11setDateTimeERK9QDateTime@Base 1.1.0
 (arch=powerpc)_ZN10QtMobility17QOrganizerJournalD1Ev@Base 1.2.0
 (arch=powerpc)_ZN10QtMobility17QOrganizerJournalD2Ev@Base 1.2.0
 _ZN10QtMobility17QOrganizerManager10extractIdsERK5QListINS_14QOrganizerItemEE@Base 1.1.0
 _ZN10QtMobility17QOrganizerManager10itemsAddedERK5QListINS_16QOrganizerItemIdEE@Base 1.1.0
 _ZN10QtMobility17QOrganizerManager10removeItemERKNS_16QOrganizerItemIdE@Base 1.1.0
 _ZN10QtMobility17QOrganizerManager11dataChangedEv@Base 1.1.0
 _ZN10QtMobility17QOrganizerManager11qt_metacallEN11QMetaObject4CallEiPPv@Base 1.1.0
 _ZN10QtMobility17QOrganizerManager11qt_metacastEPKc@Base 1.1.0
 _ZN10QtMobility17QOrganizerManager11removeItemsERK5QListINS_16QOrganizerItemIdEE@Base 1.1.0
 _ZN10QtMobility17QOrganizerManager12createEngineERK7QStringRK4QMapIS1_S1_E@Base 1.1.0
 _ZN10QtMobility17QOrganizerManager12itemsChangedERK5QListINS_16QOrganizerItemIdEE@Base 1.1.0
 _ZN10QtMobility17QOrganizerManager12itemsRemovedERK5QListINS_16QOrganizerItemIdEE@Base 1.1.0
 _ZN10QtMobility17QOrganizerManager14saveCollectionEPNS_20QOrganizerCollectionE@Base 1.1.0
 _ZN10QtMobility17QOrganizerManager16collectionsAddedERK5QListINS_22QOrganizerCollectionIdEE@Base 1.1.0
 _ZN10QtMobility17QOrganizerManager16removeCollectionERKNS_22QOrganizerCollectionIdE@Base 1.1.0
 _ZN10QtMobility17QOrganizerManager16staticMetaObjectE@Base 1.1.0
 _ZN10QtMobility17QOrganizerManager17availableManagersEv@Base 1.1.0
 _ZN10QtMobility17QOrganizerManager18collectionsChangedERK5QListINS_22QOrganizerCollectionIdEE@Base 1.1.0
 _ZN10QtMobility17QOrganizerManager18collectionsRemovedERK5QListINS_22QOrganizerCollectionIdEE@Base 1.1.0
 _ZN10QtMobility17QOrganizerManager20saveDetailDefinitionERKNS_30QOrganizerItemDetailDefinitionERK7QString@Base 1.1.0
 _ZN10QtMobility17QOrganizerManager22removeDetailDefinitionERK7QStringS3_@Base 1.1.0
 _ZN10QtMobility17QOrganizerManager7fromUriERK7QStringP7QObject@Base 1.1.0
 _ZN10QtMobility17QOrganizerManager8buildUriERK7QStringRK4QMapIS1_S1_Ei@Base 1.1.0
 _ZN10QtMobility17QOrganizerManager8parseUriERK7QStringPS1_P4QMapIS1_S1_E@Base 1.1.0
 _ZN10QtMobility17QOrganizerManager8saveItemEPNS_14QOrganizerItemE@Base 1.1.0
 _ZN10QtMobility17QOrganizerManager9saveItemsEP5QListINS_14QOrganizerItemEE@Base 1.1.0
 _ZN10QtMobility17QOrganizerManager9saveItemsEP5QListINS_14QOrganizerItemEERK11QStringList@Base 1.2.0
 _ZN10QtMobility17QOrganizerManagerC1EP7QObject@Base 1.1.0
 _ZN10QtMobility17QOrganizerManagerC1ERK7QStringRK4QMapIS1_S1_EP7QObject@Base 1.1.0
 _ZN10QtMobility17QOrganizerManagerC1ERK7QStringiRK4QMapIS1_S1_EP7QObject@Base 1.1.0
 _ZN10QtMobility17QOrganizerManagerC2EP7QObject@Base 1.1.0
 _ZN10QtMobility17QOrganizerManagerC2ERK7QStringRK4QMapIS1_S1_EP7QObject@Base 1.1.0
 _ZN10QtMobility17QOrganizerManagerC2ERK7QStringiRK4QMapIS1_S1_EP7QObject@Base 1.1.0
 _ZN10QtMobility17QOrganizerManagerD0Ev@Base 1.1.0
 _ZN10QtMobility17QOrganizerManagerD1Ev@Base 1.1.0
 _ZN10QtMobility17QOrganizerManagerD2Ev@Base 1.1.0
 _ZN10QtMobility18QOrganizerItemGuid14DefinitionNameE@Base 1.1.0
 _ZN10QtMobility18QOrganizerItemGuid9FieldGuidE@Base 1.1.0
 (arch=powerpc)_ZN10QtMobility18QOrganizerItemGuidD1Ev@Base 1.2.0
 (arch=powerpc)_ZN10QtMobility18QOrganizerItemGuidD2Ev@Base 1.2.0
 _ZN10QtMobility18QOrganizerItemType11TypeJournalE@Base 1.1.0
 _ZN10QtMobility18QOrganizerItemType14DefinitionNameE@Base 1.1.0
 _ZN10QtMobility18QOrganizerItemType18TypeTodoOccurrenceE@Base 1.1.0
 _ZN10QtMobility18QOrganizerItemType19TypeEventOccurrenceE@Base 1.1.0
 _ZN10QtMobility18QOrganizerItemType8TypeNoteE@Base 1.1.0
 _ZN10QtMobility18QOrganizerItemType8TypeTodoE@Base 1.1.0
 _ZN10QtMobility18QOrganizerItemType9FieldTypeE@Base 1.1.0
 _ZN10QtMobility18QOrganizerItemType9TypeEventE@Base 1.1.0
 (arch=powerpc)_ZN10QtMobility18QOrganizerItemTypeD1Ev@Base 1.2.0
 (arch=powerpc)_ZN10QtMobility18QOrganizerItemTypeD2Ev@Base 1.2.0
 _ZN10QtMobility18QOrganizerTodoTime11FieldAllDayE@Base 1.1.0
 _ZN10QtMobility18QOrganizerTodoTime14DefinitionNameE@Base 1.1.0
 _ZN10QtMobility18QOrganizerTodoTime16FieldDueDateTimeE@Base 1.1.0
 _ZN10QtMobility18QOrganizerTodoTime18FieldStartDateTimeE@Base 1.1.0
 (arch=powerpc)_ZN10QtMobility18QOrganizerTodoTimeD1Ev@Base 1.2.0
 (arch=powerpc)_ZN10QtMobility18QOrganizerTodoTimeD2Ev@Base 1.2.0
 _ZN10QtMobility19QOrganizerEventTime11FieldAllDayE@Base 1.1.0
 _ZN10QtMobility19QOrganizerEventTime14DefinitionNameE@Base 1.1.0
 _ZN10QtMobility19QOrganizerEventTime16FieldEndDateTimeE@Base 1.1.0
 _ZN10QtMobility19QOrganizerEventTime18FieldStartDateTimeE@Base 1.1.0
 (arch=powerpc)_ZN10QtMobility19QOrganizerEventTimeD1Ev@Base 1.2.0
 (arch=powerpc)_ZN10QtMobility19QOrganizerEventTimeD2Ev@Base 1.2.0
 _ZN10QtMobility20QOrganizerCollection11setMetaDataERK4QMapI7QString8QVariantE@Base 1.1.0
 _ZN10QtMobility20QOrganizerCollection11setMetaDataERK7QStringRK8QVariant@Base 1.1.0
 _ZN10QtMobility20QOrganizerCollection14KeyDescriptionE@Base 1.1.0
 _ZN10QtMobility20QOrganizerCollection5setIdERKNS_22QOrganizerCollectionIdE@Base 1.1.0
 _ZN10QtMobility20QOrganizerCollection7KeyNameE@Base 1.1.0
 _ZN10QtMobility20QOrganizerCollection8KeyColorE@Base 1.1.0
 _ZN10QtMobility20QOrganizerCollection8KeyImageE@Base 1.1.0
 _ZN10QtMobility20QOrganizerCollectionC1ERKS0_@Base 1.1.0
 _ZN10QtMobility20QOrganizerCollectionC1Ev@Base 1.1.0
 _ZN10QtMobility20QOrganizerCollectionC2ERKS0_@Base 1.1.0
 _ZN10QtMobility20QOrganizerCollectionC2Ev@Base 1.1.0
 _ZN10QtMobility20QOrganizerCollectionD1Ev@Base 1.1.0
 _ZN10QtMobility20QOrganizerCollectionD2Ev@Base 1.1.0
 _ZN10QtMobility20QOrganizerCollectionaSERKS0_@Base 1.1.0
 _ZN10QtMobility20QOrganizerItemDetail11removeValueEPKc@Base 1.1.0
 _ZN10QtMobility20QOrganizerItemDetail11removeValueERK7QString@Base 1.1.0
 _ZN10QtMobility20QOrganizerItemDetail6assignERKS0_PKc@Base 1.1.0
 _ZN10QtMobility20QOrganizerItemDetail6assignERKS0_RK7QString@Base 1.1.0
 _ZN10QtMobility20QOrganizerItemDetail8resetKeyEv@Base 1.1.0
 _ZN10QtMobility20QOrganizerItemDetail8setValueEPKcRK8QVariant@Base 1.1.0
 _ZN10QtMobility20QOrganizerItemDetail8setValueERK7QStringRK8QVariant@Base 1.1.0
 (optional=templinst)_ZN10QtMobility20QOrganizerItemDetail8setValueILi12EEEbRKNS_15QLatin1ConstantIXT_EEERK8QVariant@Base 1.1.0
 (optional=templinst)_ZN10QtMobility20QOrganizerItemDetail8setValueILi13EEEbRKNS_15QLatin1ConstantIXT_EEERK8QVariant@Base 1.1.0
 (optional=templinst)_ZN10QtMobility20QOrganizerItemDetail8setValueILi14EEEbRKNS_15QLatin1ConstantIXT_EEERK8QVariant@Base 1.1.0
 (optional=templinst)_ZN10QtMobility20QOrganizerItemDetail8setValueILi15EEEbRKNS_15QLatin1ConstantIXT_EEERK8QVariant@Base 1.1.0
 (optional=templinst)_ZN10QtMobility20QOrganizerItemDetail8setValueILi16EEEbRKNS_15QLatin1ConstantIXT_EEERK8QVariant@Base 1.1.0
 (optional=templinst)_ZN10QtMobility20QOrganizerItemDetail8setValueILi17EEEbRKNS_15QLatin1ConstantIXT_EEERK8QVariant@Base 1.1.0
 (optional=templinst)_ZN10QtMobility20QOrganizerItemDetail8setValueILi18EEEbRKNS_15QLatin1ConstantIXT_EEERK8QVariant@Base 1.1.0
 (optional=templinst)_ZN10QtMobility20QOrganizerItemDetail8setValueILi19EEEbRKNS_15QLatin1ConstantIXT_EEERK8QVariant@Base 1.1.0
 (optional=templinst)_ZN10QtMobility20QOrganizerItemDetail8setValueILi22EEEbRKNS_15QLatin1ConstantIXT_EEERK8QVariant@Base 1.1.0
 (optional=templinst)_ZN10QtMobility20QOrganizerItemDetail8setValueILi4EEEbRKNS_15QLatin1ConstantIXT_EEERK8QVariant@Base 1.2.0
 (optional=templinst)_ZN10QtMobility20QOrganizerItemDetail8setValueILi5EEEbRKNS_15QLatin1ConstantIXT_EEERK8QVariant@Base 1.1.0
 (optional=templinst)_ZN10QtMobility20QOrganizerItemDetail8setValueILi6EEEbRKNS_15QLatin1ConstantIXT_EEERK8QVariant@Base 1.1.0
 (optional=templinst)_ZN10QtMobility20QOrganizerItemDetail8setValueILi7EEEbRKNS_15QLatin1ConstantIXT_EEERK8QVariant@Base 1.1.0
 (optional=templinst)_ZN10QtMobility20QOrganizerItemDetail8setValueILi8EEEbRKNS_15QLatin1ConstantIXT_EEERK8QVariant@Base 1.1.0
 (optional=templinst)_ZN10QtMobility20QOrganizerItemDetail8setValueILi9EEEbRKNS_15QLatin1ConstantIXT_EEERK8QVariant@Base 1.1.0
 _ZN10QtMobility20QOrganizerItemDetailC1EPKc@Base 1.1.0
 _ZN10QtMobility20QOrganizerItemDetailC1ERK7QString@Base 1.1.0
 _ZN10QtMobility20QOrganizerItemDetailC1ERKS0_@Base 1.1.0
 _ZN10QtMobility20QOrganizerItemDetailC1ERKS0_PKc@Base 1.1.0
 _ZN10QtMobility20QOrganizerItemDetailC1ERKS0_RK7QString@Base 1.1.0
 _ZN10QtMobility20QOrganizerItemDetailC1Ev@Base 1.1.0
 _ZN10QtMobility20QOrganizerItemDetailC2EPKc@Base 1.1.0
 _ZN10QtMobility20QOrganizerItemDetailC2ERK7QString@Base 1.1.0
 _ZN10QtMobility20QOrganizerItemDetailC2ERKS0_@Base 1.1.0
 _ZN10QtMobility20QOrganizerItemDetailC2ERKS0_PKc@Base 1.1.0
 _ZN10QtMobility20QOrganizerItemDetailC2ERKS0_RK7QString@Base 1.1.0
 _ZN10QtMobility20QOrganizerItemDetailC2Ev@Base 1.1.0
 _ZN10QtMobility20QOrganizerItemDetailD1Ev@Base 1.1.0
 _ZN10QtMobility20QOrganizerItemDetailD2Ev@Base 1.1.0
 _ZN10QtMobility20QOrganizerItemDetailaSERKS0_@Base 1.1.0
 _ZN10QtMobility20QOrganizerItemFilterC1EPNS_27QOrganizerItemFilterPrivateE@Base 1.1.0
 _ZN10QtMobility20QOrganizerItemFilterC1ERKS0_@Base 1.1.0
 _ZN10QtMobility20QOrganizerItemFilterC1Ev@Base 1.1.0
 _ZN10QtMobility20QOrganizerItemFilterC2EPNS_27QOrganizerItemFilterPrivateE@Base 1.1.0
 _ZN10QtMobility20QOrganizerItemFilterC2ERKS0_@Base 1.1.0
 _ZN10QtMobility20QOrganizerItemFilterC2Ev@Base 1.1.0
 _ZN10QtMobility20QOrganizerItemFilterD1Ev@Base 1.1.0
 _ZN10QtMobility20QOrganizerItemFilterD2Ev@Base 1.1.0
 _ZN10QtMobility20QOrganizerItemFilteraSERKS0_@Base 1.1.0
 _ZN10QtMobility20QOrganizerItemParent13FieldParentIdE@Base 1.1.0
 _ZN10QtMobility20QOrganizerItemParent14DefinitionNameE@Base 1.1.0
 _ZN10QtMobility20QOrganizerItemParent17FieldOriginalDateE@Base 1.1.0
 (arch=powerpc)_ZN10QtMobility20QOrganizerItemParentD1Ev@Base 1.2.0
 (arch=powerpc)_ZN10QtMobility20QOrganizerItemParentD2Ev@Base 1.2.0
 _ZN10QtMobility21QOrganizerItemComment12FieldCommentE@Base 1.1.0
 _ZN10QtMobility21QOrganizerItemComment14DefinitionNameE@Base 1.1.0
 _ZN10QtMobility21QOrganizerItemComment5matchERK7QString@Base 1.1.0
 (arch=powerpc)_ZN10QtMobility21QOrganizerItemCommentC1ERKS0_@Base 1.2.0
 (arch=powerpc)_ZN10QtMobility21QOrganizerItemCommentC2ERKS0_@Base 1.2.0
 (arch=powerpc)_ZN10QtMobility21QOrganizerItemCommentD1Ev@Base 1.2.0
 (arch=powerpc)_ZN10QtMobility21QOrganizerItemCommentD2Ev@Base 1.2.0
 _ZN10QtMobility21QOrganizerJournalTime14DefinitionNameE@Base 1.1.0
 _ZN10QtMobility21QOrganizerJournalTime18FieldEntryDateTimeE@Base 1.1.0
 (arch=powerpc)_ZN10QtMobility21QOrganizerJournalTimeD1Ev@Base 1.2.0
 (arch=powerpc)_ZN10QtMobility21QOrganizerJournalTimeD2Ev@Base 1.2.0
 _ZN10QtMobility22QOrganizerCollectionId10fromStringERK7QString@Base 1.1.0
 _ZN10QtMobility22QOrganizerCollectionIdC1EPNS_28QOrganizerCollectionEngineIdE@Base 1.1.0
 _ZN10QtMobility22QOrganizerCollectionIdC1ERKS0_@Base 1.1.0
 _ZN10QtMobility22QOrganizerCollectionIdC1Ev@Base 1.1.0
 _ZN10QtMobility22QOrganizerCollectionIdC2EPNS_28QOrganizerCollectionEngineIdE@Base 1.1.0
 _ZN10QtMobility22QOrganizerCollectionIdC2ERKS0_@Base 1.1.0
 _ZN10QtMobility22QOrganizerCollectionIdC2Ev@Base 1.1.0
 _ZN10QtMobility22QOrganizerCollectionIdD1Ev@Base 1.1.0
 _ZN10QtMobility22QOrganizerCollectionIdD2Ev@Base 1.1.0
 _ZN10QtMobility22QOrganizerCollectionIdaSERKS0_@Base 1.1.0
 (arch=powerpc)_ZN10QtMobility22QOrganizerItemEngineIdC1Ev@Base 1.2.0
 (arch=powerpc)_ZN10QtMobility22QOrganizerItemEngineIdC2Ev@Base 1.2.0
 _ZN10QtMobility22QOrganizerItemIdFilter5clearEv@Base 1.1.0
 _ZN10QtMobility22QOrganizerItemIdFilter6insertERKNS_16QOrganizerItemIdE@Base 1.1.0
 _ZN10QtMobility22QOrganizerItemIdFilter6removeERKNS_16QOrganizerItemIdE@Base 1.1.0
 _ZN10QtMobility22QOrganizerItemIdFilter6setIdsERK5QListINS_16QOrganizerItemIdEE@Base 1.1.0
 _ZN10QtMobility22QOrganizerItemIdFilterC1ERKNS_20QOrganizerItemFilterE@Base 1.1.0
 _ZN10QtMobility22QOrganizerItemIdFilterC1Ev@Base 1.1.0
 _ZN10QtMobility22QOrganizerItemIdFilterC2ERKNS_20QOrganizerItemFilterE@Base 1.1.0
 _ZN10QtMobility22QOrganizerItemIdFilterC2Ev@Base 1.1.0
 (arch=powerpc)_ZN10QtMobility22QOrganizerItemIdFilterD1Ev@Base 1.2.0
 (arch=powerpc)_ZN10QtMobility22QOrganizerItemIdFilterD2Ev@Base 1.2.0
 _ZN10QtMobility22QOrganizerItemLocation10FieldLabelE@Base 1.1.0
 _ZN10QtMobility22QOrganizerItemLocation13FieldLatitudeE@Base 1.1.0
 _ZN10QtMobility22QOrganizerItemLocation14DefinitionNameE@Base 1.1.0
 _ZN10QtMobility22QOrganizerItemLocation14FieldLongitudeE@Base 1.1.0
 _ZN10QtMobility22QOrganizerItemLocation5matchERK7QString@Base 1.1.0
 (arch=powerpc)_ZN10QtMobility22QOrganizerItemLocationD1Ev@Base 1.2.0
 (arch=powerpc)_ZN10QtMobility22QOrganizerItemLocationD2Ev@Base 1.2.0
 _ZN10QtMobility22QOrganizerItemObserver11itemChangedEv@Base 1.2.0
 _ZN10QtMobility22QOrganizerItemObserver11itemRemovedEv@Base 1.2.0
 _ZN10QtMobility22QOrganizerItemObserver11qt_metacallEN11QMetaObject4CallEiPPv@Base 1.2.0
 _ZN10QtMobility22QOrganizerItemObserver11qt_metacastEPKc@Base 1.2.0
 _ZN10QtMobility22QOrganizerItemObserver16staticMetaObjectE@Base 1.2.0
 _ZN10QtMobility22QOrganizerItemObserverC1EPNS_17QOrganizerManagerERKNS_16QOrganizerItemIdEP7QObject@Base 1.2.0
 _ZN10QtMobility22QOrganizerItemObserverC2EPNS_17QOrganizerManagerERKNS_16QOrganizerItemIdEP7QObject@Base 1.2.0
 _ZN10QtMobility22QOrganizerItemObserverD0Ev@Base 1.2.0
 _ZN10QtMobility22QOrganizerItemObserverD1Ev@Base 1.2.0
 _ZN10QtMobility22QOrganizerItemObserverD2Ev@Base 1.2.0
 _ZN10QtMobility22QOrganizerItemPriority13FieldPriorityE@Base 1.1.0
 _ZN10QtMobility22QOrganizerItemPriority14DefinitionNameE@Base 1.1.0
 _ZN10QtMobility22QOrganizerItemPriority5matchENS0_8PriorityE@Base 1.1.0
 (arch=powerpc)_ZN10QtMobility22QOrganizerItemPriorityD1Ev@Base 1.2.0
 (arch=powerpc)_ZN10QtMobility22QOrganizerItemPriorityD2Ev@Base 1.2.0
 _ZN10QtMobility22QOrganizerItemReminder14DefinitionNameE@Base 1.1.0
 _ZN10QtMobility22QOrganizerItemReminder20FieldRepetitionCountE@Base 1.1.0
 _ZN10QtMobility22QOrganizerItemReminder20FieldRepetitionDelayE@Base 1.1.0
 _ZN10QtMobility22QOrganizerItemReminder23FieldSecondsBeforeStartE@Base 1.1.0
 _ZN10QtMobility22QOrganizerTodoProgress11FieldStatusE@Base 1.1.0
 _ZN10QtMobility22QOrganizerTodoProgress14DefinitionNameE@Base 1.1.0
 _ZN10QtMobility22QOrganizerTodoProgress21FieldFinishedDateTimeE@Base 1.1.0
 _ZN10QtMobility22QOrganizerTodoProgress23FieldPercentageCompleteE@Base 1.1.0
 (arch=powerpc)_ZN10QtMobility22QOrganizerTodoProgressD1Ev@Base 1.2.0
 (arch=powerpc)_ZN10QtMobility22QOrganizerTodoProgressD2Ev@Base 1.2.0
 _ZN10QtMobility23QOrganizerItemChangeSet11dataChangedEv@Base 1.1.0
 _ZN10QtMobility23QOrganizerItemChangeSet11emitSignalsEPNS_23QOrganizerManagerEngineE@Base 1.1.0
 _ZN10QtMobility23QOrganizerItemChangeSet14setDataChangedEb@Base 1.1.0
 _ZN10QtMobility23QOrganizerItemChangeSet15clearAddedItemsEv@Base 1.1.0
 _ZN10QtMobility23QOrganizerItemChangeSet15insertAddedItemERKNS_16QOrganizerItemIdE@Base 1.1.0
 _ZN10QtMobility23QOrganizerItemChangeSet16insertAddedItemsERK5QListINS_16QOrganizerItemIdEE@Base 1.1.0
 _ZN10QtMobility23QOrganizerItemChangeSet17clearChangedItemsEv@Base 1.1.0
 _ZN10QtMobility23QOrganizerItemChangeSet17clearRemovedItemsEv@Base 1.1.0
 _ZN10QtMobility23QOrganizerItemChangeSet17insertChangedItemERKNS_16QOrganizerItemIdE@Base 1.1.0
 _ZN10QtMobility23QOrganizerItemChangeSet17insertRemovedItemERKNS_16QOrganizerItemIdE@Base 1.1.0
 _ZN10QtMobility23QOrganizerItemChangeSet18insertChangedItemsERK5QListINS_16QOrganizerItemIdEE@Base 1.1.0
 _ZN10QtMobility23QOrganizerItemChangeSet18insertRemovedItemsERK5QListINS_16QOrganizerItemIdEE@Base 1.1.0
 _ZN10QtMobility23QOrganizerItemChangeSet8clearAllEv@Base 1.1.0
 _ZN10QtMobility23QOrganizerItemChangeSetC1ERKS0_@Base 1.1.0
 _ZN10QtMobility23QOrganizerItemChangeSetC1Ev@Base 1.1.0
 _ZN10QtMobility23QOrganizerItemChangeSetC2ERKS0_@Base 1.1.0
 _ZN10QtMobility23QOrganizerItemChangeSetC2Ev@Base 1.1.0
 _ZN10QtMobility23QOrganizerItemChangeSetD1Ev@Base 1.1.0
 _ZN10QtMobility23QOrganizerItemChangeSetD2Ev@Base 1.1.0
 _ZN10QtMobility23QOrganizerItemChangeSetaSERKS0_@Base 1.1.0
 _ZN10QtMobility23QOrganizerItemFetchHint20setOptimizationHintsE6QFlagsINS0_16OptimizationHintEE@Base 1.1.0
 _ZN10QtMobility23QOrganizerItemFetchHint24setDetailDefinitionsHintERK11QStringList@Base 1.1.0
 _ZN10QtMobility23QOrganizerItemFetchHintC1ERKS0_@Base 1.1.0
 _ZN10QtMobility23QOrganizerItemFetchHintC1Ev@Base 1.1.0
 _ZN10QtMobility23QOrganizerItemFetchHintC2ERKS0_@Base 1.1.0
 _ZN10QtMobility23QOrganizerItemFetchHintC2Ev@Base 1.1.0
 _ZN10QtMobility23QOrganizerItemFetchHintD1Ev@Base 1.1.0
 _ZN10QtMobility23QOrganizerItemFetchHintD2Ev@Base 1.1.0
 _ZN10QtMobility23QOrganizerItemFetchHintaSERKS0_@Base 1.1.0
 _ZN10QtMobility23QOrganizerItemSortOrder12setDirectionEN2Qt9SortOrderE@Base 1.1.0
 _ZN10QtMobility23QOrganizerItemSortOrder14setBlankPolicyENS0_11BlankPolicyE@Base 1.1.0
 _ZN10QtMobility23QOrganizerItemSortOrder18setCaseSensitivityEN2Qt15CaseSensitivityE@Base 1.1.0
 _ZN10QtMobility23QOrganizerItemSortOrder23setDetailDefinitionNameERK7QStringS3_@Base 1.1.0
 _ZN10QtMobility23QOrganizerItemSortOrderC1ERKS0_@Base 1.1.0
 _ZN10QtMobility23QOrganizerItemSortOrderC1Ev@Base 1.1.0
 _ZN10QtMobility23QOrganizerItemSortOrderC2ERKS0_@Base 1.1.0
 _ZN10QtMobility23QOrganizerItemSortOrderC2Ev@Base 1.1.0
 _ZN10QtMobility23QOrganizerItemSortOrderD1Ev@Base 1.1.0
 _ZN10QtMobility23QOrganizerItemSortOrderD2Ev@Base 1.1.0
 _ZN10QtMobility23QOrganizerItemSortOrderaSERKS0_@Base 1.1.0
 _ZN10QtMobility23QOrganizerItemTimestamp14DefinitionNameE@Base 1.1.0
 _ZN10QtMobility23QOrganizerItemTimestamp22FieldCreationTimestampE@Base 1.1.0
 _ZN10QtMobility23QOrganizerItemTimestamp26FieldModificationTimestampE@Base 1.1.0
 (arch=powerpc)_ZN10QtMobility23QOrganizerItemTimestampD1Ev@Base 1.2.0
 (arch=powerpc)_ZN10QtMobility23QOrganizerItemTimestampD2Ev@Base 1.2.0
 _ZN10QtMobility23QOrganizerManagerEngine10itemsAddedERK5QListINS_16QOrganizerItemIdEE@Base 1.1.0
 _ZN10QtMobility23QOrganizerManagerEngine10removeItemERKNS_16QOrganizerItemIdEPNS_17QOrganizerManager5ErrorE@Base 1.1.0
 _ZN10QtMobility23QOrganizerManagerEngine10testFilterERKNS_20QOrganizerItemFilterERKNS_14QOrganizerItemE@Base 1.1.0
 _ZN10QtMobility23QOrganizerManagerEngine11compareItemERKNS_14QOrganizerItemES3_RK5QListINS_23QOrganizerItemSortOrderEE@Base 1.1.0
 _ZN10QtMobility23QOrganizerManagerEngine11dataChangedEv@Base 1.1.0
 _ZN10QtMobility23QOrganizerManagerEngine11qt_metacallEN11QMetaObject4CallEiPPv@Base 1.1.0
 _ZN10QtMobility23QOrganizerManagerEngine11qt_metacastEPKc@Base 1.1.0
 _ZN10QtMobility23QOrganizerManagerEngine11removeItemsERK5QListINS_16QOrganizerItemIdEEP4QMapIiNS_17QOrganizerManager5ErrorEEPS8_@Base 1.1.0
 _ZN10QtMobility23QOrganizerManagerEngine12engineItemIdERKNS_16QOrganizerItemIdE@Base 1.1.0
 _ZN10QtMobility23QOrganizerManagerEngine12itemLessThanERKNS_14QOrganizerItemES3_@Base 1.2.0
 _ZN10QtMobility23QOrganizerManagerEngine12itemsChangedERK5QListINS_16QOrganizerItemIdEE@Base 1.1.0
 _ZN10QtMobility23QOrganizerManagerEngine12itemsRemovedERK5QListINS_16QOrganizerItemIdEE@Base 1.1.0
 _ZN10QtMobility23QOrganizerManagerEngine12startRequestEPNS_25QOrganizerAbstractRequestE@Base 1.1.0
 _ZN10QtMobility23QOrganizerManagerEngine13cancelRequestEPNS_25QOrganizerAbstractRequestE@Base 1.1.0
 _ZN10QtMobility23QOrganizerManagerEngine14compareVariantERK8QVariantS3_N2Qt15CaseSensitivityE@Base 1.1.0
 _ZN10QtMobility23QOrganizerManagerEngine14saveCollectionEPNS_20QOrganizerCollectionEPNS_17QOrganizerManager5ErrorE@Base 1.1.0
 _ZN10QtMobility23QOrganizerManagerEngine16collectionsAddedERK5QListINS_22QOrganizerCollectionIdEE@Base 1.1.0
 _ZN10QtMobility23QOrganizerManagerEngine16removeCollectionERKNS_22QOrganizerCollectionIdEPNS_17QOrganizerManager5ErrorE@Base 1.1.0
 _ZN10QtMobility23QOrganizerManagerEngine16requestDestroyedEPNS_25QOrganizerAbstractRequestE@Base 1.1.0
 _ZN10QtMobility23QOrganizerManagerEngine16staticMetaObjectE@Base 1.1.0
 _ZN10QtMobility23QOrganizerManagerEngine17schemaDefinitionsEi@Base 1.1.0
 _ZN10QtMobility23QOrganizerManagerEngine18collectionsChangedERK5QListINS_22QOrganizerCollectionIdEE@Base 1.1.0
 _ZN10QtMobility23QOrganizerManagerEngine18collectionsRemovedERK5QListINS_22QOrganizerCollectionIdEE@Base 1.1.0
 _ZN10QtMobility23QOrganizerManagerEngine18engineCollectionIdERKNS_22QOrganizerCollectionIdE@Base 1.1.0
 _ZN10QtMobility23QOrganizerManagerEngine18isItemBetweenDatesERKNS_14QOrganizerItemERK9QDateTimeS6_@Base 1.1.0
 _ZN10QtMobility23QOrganizerManagerEngine18updateRequestStateEPNS_25QOrganizerAbstractRequestENS1_5StateE@Base 1.1.0
 _ZN10QtMobility23QOrganizerManagerEngine19canonicalizedFilterERKNS_20QOrganizerItemFilterE@Base 1.1.0
 _ZN10QtMobility23QOrganizerManagerEngine20saveDetailDefinitionERKNS_30QOrganizerItemDetailDefinitionERK7QStringPNS_17QOrganizerManager5ErrorE@Base 1.1.0
 _ZN10QtMobility23QOrganizerManagerEngine21updateItemSaveRequestEPNS_25QOrganizerItemSaveRequestERK5QListINS_14QOrganizerItemEENS_17QOrganizerManager5ErrorERK4QMapIiS9_ENS_25QOrganizerAbstractRequest5StateE@Base 1.1.0
 _ZN10QtMobility23QOrganizerManagerEngine22removeDetailDefinitionERK7QStringS3_PNS_17QOrganizerManager5ErrorE@Base 1.1.0
 _ZN10QtMobility23QOrganizerManagerEngine22updateItemFetchRequestEPNS_26QOrganizerItemFetchRequestERK5QListINS_14QOrganizerItemEENS_17QOrganizerManager5ErrorENS_25QOrganizerAbstractRequest5StateE@Base 1.1.0
 _ZN10QtMobility23QOrganizerManagerEngine22waitForRequestFinishedEPNS_25QOrganizerAbstractRequestEi@Base 1.1.0
 _ZN10QtMobility23QOrganizerManagerEngine23updateItemRemoveRequestEPNS_27QOrganizerItemRemoveRequestENS_17QOrganizerManager5ErrorERK4QMapIiS4_ENS_25QOrganizerAbstractRequest5StateE@Base 1.1.0
 _ZN10QtMobility23QOrganizerManagerEngine24updateItemIdFetchRequestEPNS_28QOrganizerItemIdFetchRequestERK5QListINS_16QOrganizerItemIdEENS_17QOrganizerManager5ErrorENS_25QOrganizerAbstractRequest5StateE@Base 1.1.0
 _ZN10QtMobility23QOrganizerManagerEngine26setDetailAccessConstraintsEPNS_20QOrganizerItemDetailE6QFlagsINS1_16AccessConstraintEE@Base 1.1.0
 _ZN10QtMobility23QOrganizerManagerEngine27updateCollectionSaveRequestEPNS_31QOrganizerCollectionSaveRequestERK5QListINS_20QOrganizerCollectionEENS_17QOrganizerManager5ErrorERK4QMapIiS9_ENS_25QOrganizerAbstractRequest5StateE@Base 1.1.0
 _ZN10QtMobility23QOrganizerManagerEngine27updateDefinitionSaveRequestEPNS_41QOrganizerItemDetailDefinitionSaveRequestERK5QListINS_30QOrganizerItemDetailDefinitionEENS_17QOrganizerManager5ErrorERK4QMapIiS9_ENS_25QOrganizerAbstractRequest5StateE@Base 1.1.0
 _ZN10QtMobility23QOrganizerManagerEngine28updateCollectionFetchRequestEPNS_32QOrganizerCollectionFetchRequestERK5QListINS_20QOrganizerCollectionEENS_17QOrganizerManager5ErrorENS_25QOrganizerAbstractRequest5StateE@Base 1.1.0
 _ZN10QtMobility23QOrganizerManagerEngine28updateDefinitionFetchRequestEPNS_42QOrganizerItemDetailDefinitionFetchRequestERK4QMapI7QStringNS_30QOrganizerItemDetailDefinitionEENS_17QOrganizerManager5ErrorERKS3_IiSA_ENS_25QOrganizerAbstractRequest5StateE@Base 1.1.0
 _ZN10QtMobility23QOrganizerManagerEngine29updateCollectionRemoveRequestEPNS_33QOrganizerCollectionRemoveRequestENS_17QOrganizerManager5ErrorERK4QMapIiS4_ENS_25QOrganizerAbstractRequest5StateE@Base 1.1.0
 _ZN10QtMobility23QOrganizerManagerEngine29updateDefinitionRemoveRequestEPNS_43QOrganizerItemDetailDefinitionRemoveRequestENS_17QOrganizerManager5ErrorERK4QMapIiS4_ENS_25QOrganizerAbstractRequest5StateE@Base 1.1.0
 _ZN10QtMobility23QOrganizerManagerEngine31updateItemFetchForExportRequestEPNS_35QOrganizerItemFetchForExportRequestERK5QListINS_14QOrganizerItemEENS_17QOrganizerManager5ErrorENS_25QOrganizerAbstractRequest5StateE@Base 1.1.0
 _ZN10QtMobility23QOrganizerManagerEngine32updateItemOccurrenceFetchRequestEPNS_36QOrganizerItemOccurrenceFetchRequestERK5QListINS_14QOrganizerItemEENS_17QOrganizerManager5ErrorENS_25QOrganizerAbstractRequest5StateE@Base 1.1.0
 _ZN10QtMobility23QOrganizerManagerEngine8saveItemEPNS_14QOrganizerItemEPNS_17QOrganizerManager5ErrorE@Base 1.1.0
 _ZN10QtMobility23QOrganizerManagerEngine9addSortedEP5QListINS_14QOrganizerItemEERKS2_RKS1_INS_23QOrganizerItemSortOrderEE@Base 1.1.0
 _ZN10QtMobility23QOrganizerManagerEngine9saveItemsEP5QListINS_14QOrganizerItemEEP4QMapIiNS_17QOrganizerManager5ErrorEEPS7_@Base 1.1.0
 (arch=powerpc)_ZN10QtMobility23QOrganizerManagerEngineD0Ev@Base 1.2.0
 (arch=powerpc)_ZN10QtMobility23QOrganizerManagerEngineD1Ev@Base 1.2.0
 (arch=powerpc)_ZN10QtMobility23QOrganizerManagerEngineD2Ev@Base 1.2.0
 _ZN10QtMobility24QOrganizerItemRecurrence14DefinitionNameE@Base 1.1.0
 _ZN10QtMobility24QOrganizerItemRecurrence17setExceptionDatesERK4QSetI5QDateE@Base 1.1.0
 _ZN10QtMobility24QOrganizerItemRecurrence17setExceptionRulesERK4QSetINS_24QOrganizerRecurrenceRuleEE@Base 1.1.0
 _ZN10QtMobility24QOrganizerItemRecurrence18setRecurrenceDatesERK4QSetI5QDateE@Base 1.1.0
 _ZN10QtMobility24QOrganizerItemRecurrence18setRecurrenceRulesERK4QSetINS_24QOrganizerRecurrenceRuleEE@Base 1.1.0
 _ZN10QtMobility24QOrganizerItemRecurrence19FieldExceptionDatesE@Base 1.1.0
 _ZN10QtMobility24QOrganizerItemRecurrence19FieldExceptionRulesE@Base 1.1.0
 _ZN10QtMobility24QOrganizerItemRecurrence20FieldRecurrenceDatesE@Base 1.1.0
 _ZN10QtMobility24QOrganizerItemRecurrence20FieldRecurrenceRulesE@Base 1.1.0
 (arch=powerpc)_ZN10QtMobility24QOrganizerItemRecurrenceD1Ev@Base 1.2.0
 (arch=powerpc)_ZN10QtMobility24QOrganizerItemRecurrenceD2Ev@Base 1.2.0
 _ZN10QtMobility24QOrganizerRecurrenceRule10clearLimitEv@Base 1.1.0
 _ZN10QtMobility24QOrganizerRecurrenceRule11setIntervalEi@Base 1.1.0
 _ZN10QtMobility24QOrganizerRecurrenceRule12setFrequencyENS0_9FrequencyE@Base 1.1.0
 _ZN10QtMobility24QOrganizerRecurrenceRule12setPositionsERK4QSetIiE@Base 1.1.0
 _ZN10QtMobility24QOrganizerRecurrenceRule13setDaysOfWeekERK4QSetIN2Qt9DayOfWeekEE@Base 1.1.0
 _ZN10QtMobility24QOrganizerRecurrenceRule13setDaysOfYearERK4QSetIiE@Base 1.1.0
 _ZN10QtMobility24QOrganizerRecurrenceRule14setDaysOfMonthERK4QSetIiE@Base 1.1.0
 _ZN10QtMobility24QOrganizerRecurrenceRule14setWeeksOfYearERK4QSetIiE@Base 1.1.0
 _ZN10QtMobility24QOrganizerRecurrenceRule15setMonthsOfYearERK4QSetINS0_5MonthEE@Base 1.1.0
 _ZN10QtMobility24QOrganizerRecurrenceRule17setFirstDayOfWeekEN2Qt9DayOfWeekE@Base 1.1.0
 _ZN10QtMobility24QOrganizerRecurrenceRule8setLimitERK5QDate@Base 1.1.0
 _ZN10QtMobility24QOrganizerRecurrenceRule8setLimitEi@Base 1.1.0
 _ZN10QtMobility24QOrganizerRecurrenceRuleC1ERKS0_@Base 1.1.0
 _ZN10QtMobility24QOrganizerRecurrenceRuleC1Ev@Base 1.1.0
 _ZN10QtMobility24QOrganizerRecurrenceRuleC2ERKS0_@Base 1.1.0
 _ZN10QtMobility24QOrganizerRecurrenceRuleC2Ev@Base 1.1.0
 _ZN10QtMobility24QOrganizerRecurrenceRuleD1Ev@Base 1.1.0
 _ZN10QtMobility24QOrganizerRecurrenceRuleD2Ev@Base 1.1.0
 _ZN10QtMobility24QOrganizerRecurrenceRuleaSERKS0_@Base 1.1.0
 _ZN10QtMobility24QOrganizerTodoOccurrence11setParentIdERKNS_16QOrganizerItemIdE@Base 1.1.0
 _ZN10QtMobility24QOrganizerTodoOccurrence11setPriorityENS_22QOrganizerItemPriority8PriorityE@Base 1.1.0
 _ZN10QtMobility24QOrganizerTodoOccurrence14setDueDateTimeERK9QDateTime@Base 1.1.0
 _ZN10QtMobility24QOrganizerTodoOccurrence15setOriginalDateERK5QDate@Base 1.1.0
 _ZN10QtMobility24QOrganizerTodoOccurrence16setStartDateTimeERK9QDateTime@Base 1.1.0
 _ZN10QtMobility24QOrganizerTodoOccurrence19setFinishedDateTimeERK9QDateTime@Base 1.1.0
 _ZN10QtMobility24QOrganizerTodoOccurrence21setProgressPercentageEi@Base 1.1.0
 _ZN10QtMobility24QOrganizerTodoOccurrence9setStatusENS_22QOrganizerTodoProgress6StatusE@Base 1.1.0
 (arch=powerpc)_ZN10QtMobility24QOrganizerTodoOccurrenceD1Ev@Base 1.2.0
 (arch=powerpc)_ZN10QtMobility24QOrganizerTodoOccurrenceD2Ev@Base 1.2.0
 _ZN10QtMobility25QOrganizerAbstractRequest10setManagerEPNS_17QOrganizerManagerE@Base 1.1.0
 _ZN10QtMobility25QOrganizerAbstractRequest11qt_metacallEN11QMetaObject4CallEiPPv@Base 1.1.0
 _ZN10QtMobility25QOrganizerAbstractRequest11qt_metacastEPKc@Base 1.1.0
 _ZN10QtMobility25QOrganizerAbstractRequest12stateChangedENS0_5StateE@Base 1.1.0
 _ZN10QtMobility25QOrganizerAbstractRequest15waitForFinishedEi@Base 1.1.0
 _ZN10QtMobility25QOrganizerAbstractRequest16resultsAvailableEv@Base 1.1.0
 _ZN10QtMobility25QOrganizerAbstractRequest16staticMetaObjectE@Base 1.1.0
 _ZN10QtMobility25QOrganizerAbstractRequest5startEv@Base 1.1.0
 _ZN10QtMobility25QOrganizerAbstractRequest6cancelEv@Base 1.1.0
 _ZN10QtMobility25QOrganizerAbstractRequestC1EPNS_32QOrganizerAbstractRequestPrivateEP7QObject@Base 1.1.0
 _ZN10QtMobility25QOrganizerAbstractRequestC2EPNS_32QOrganizerAbstractRequestPrivateEP7QObject@Base 1.1.0
 _ZN10QtMobility25QOrganizerAbstractRequestD0Ev@Base 1.1.0
 _ZN10QtMobility25QOrganizerAbstractRequestD1Ev@Base 1.1.0
 _ZN10QtMobility25QOrganizerAbstractRequestD2Ev@Base 1.1.0
 _ZN10QtMobility25QOrganizerEventOccurrence11setLocationERK7QString@Base 1.1.0
 _ZN10QtMobility25QOrganizerEventOccurrence11setParentIdERKNS_16QOrganizerItemIdE@Base 1.1.0
 _ZN10QtMobility25QOrganizerEventOccurrence11setPriorityENS_22QOrganizerItemPriority8PriorityE@Base 1.1.0
 _ZN10QtMobility25QOrganizerEventOccurrence14setEndDateTimeERK9QDateTime@Base 1.1.0
 _ZN10QtMobility25QOrganizerEventOccurrence15setOriginalDateERK5QDate@Base 1.1.0
 _ZN10QtMobility25QOrganizerEventOccurrence16setStartDateTimeERK9QDateTime@Base 1.1.0
 (arch=powerpc)_ZN10QtMobility25QOrganizerEventOccurrenceD1Ev@Base 1.2.0
 (arch=powerpc)_ZN10QtMobility25QOrganizerEventOccurrenceD2Ev@Base 1.2.0
 _ZN10QtMobility25QOrganizerItemDescription14DefinitionNameE@Base 1.1.0
 _ZN10QtMobility25QOrganizerItemDescription16FieldDescriptionE@Base 1.1.0
 (arch=powerpc)_ZN10QtMobility25QOrganizerItemDescriptionD1Ev@Base 1.2.0
 (arch=powerpc)_ZN10QtMobility25QOrganizerItemDescriptionD2Ev@Base 1.2.0
 _ZN10QtMobility25QOrganizerItemSaveRequest11qt_metacallEN11QMetaObject4CallEiPPv@Base 1.1.0
 _ZN10QtMobility25QOrganizerItemSaveRequest11qt_metacastEPKc@Base 1.1.0
 _ZN10QtMobility25QOrganizerItemSaveRequest16staticMetaObjectE@Base 1.1.0
 _ZN10QtMobility25QOrganizerItemSaveRequest17setDefinitionMaskERK11QStringList@Base 1.2.0
 _ZN10QtMobility25QOrganizerItemSaveRequest7setItemERKNS_14QOrganizerItemE@Base 1.1.0
 _ZN10QtMobility25QOrganizerItemSaveRequest8setItemsERK5QListINS_14QOrganizerItemEE@Base 1.1.0
 _ZN10QtMobility25QOrganizerItemSaveRequestC1EP7QObject@Base 1.1.0
 _ZN10QtMobility25QOrganizerItemSaveRequestC2EP7QObject@Base 1.1.0
 _ZN10QtMobility25QOrganizerItemSaveRequestD0Ev@Base 1.2.0
 _ZN10QtMobility25QOrganizerItemSaveRequestD1Ev@Base 1.2.0
 _ZN10QtMobility25QOrganizerItemSaveRequestD2Ev@Base 1.2.0
 _ZN10QtMobility25QOrganizerItemUnionFilter10setFiltersERK5QListINS_20QOrganizerItemFilterEE@Base 1.1.0
 _ZN10QtMobility25QOrganizerItemUnionFilter5clearEv@Base 1.1.0
 _ZN10QtMobility25QOrganizerItemUnionFilter6appendERKNS_20QOrganizerItemFilterE@Base 1.1.0
 _ZN10QtMobility25QOrganizerItemUnionFilter6removeERKNS_20QOrganizerItemFilterE@Base 1.1.0
 _ZN10QtMobility25QOrganizerItemUnionFilter7prependERKNS_20QOrganizerItemFilterE@Base 1.1.0
 _ZN10QtMobility25QOrganizerItemUnionFilterC1ERKNS_20QOrganizerItemFilterE@Base 1.1.0
 _ZN10QtMobility25QOrganizerItemUnionFilterC1Ev@Base 1.1.0
 _ZN10QtMobility25QOrganizerItemUnionFilterC2ERKNS_20QOrganizerItemFilterE@Base 1.1.0
 _ZN10QtMobility25QOrganizerItemUnionFilterC2Ev@Base 1.1.0
 (arch=powerpc)_ZN10QtMobility25QOrganizerItemUnionFilterD1Ev@Base 1.2.0
 (arch=powerpc)_ZN10QtMobility25QOrganizerItemUnionFilterD2Ev@Base 1.2.0
 _ZN10QtMobility25QOrganizerItemUnionFilterlsERKNS_20QOrganizerItemFilterE@Base 1.1.0
 _ZN10QtMobility25QOrganizerManagerEngineV211qt_metacallEN11QMetaObject4CallEiPPv@Base 1.2.0
 _ZN10QtMobility25QOrganizerManagerEngineV211qt_metacastEPKc@Base 1.2.0
 _ZN10QtMobility25QOrganizerManagerEngineV216staticMetaObjectE@Base 1.2.0
 _ZN10QtMobility25QOrganizerManagerEngineV226updateItemFetchByIdRequestEPNS_30QOrganizerItemFetchByIdRequestERK5QListINS_14QOrganizerItemEENS_17QOrganizerManager5ErrorERK4QMapIiS9_ENS_25QOrganizerAbstractRequest5StateE@Base 1.2.0
 _ZN10QtMobility25QOrganizerManagerEngineV29saveItemsEP5QListINS_14QOrganizerItemEEP4QMapIiNS_17QOrganizerManager5ErrorEEPS7_@Base 1.2.0
 _ZN10QtMobility25QOrganizerManagerEngineV29saveItemsEP5QListINS_14QOrganizerItemEERK11QStringListP4QMapIiNS_17QOrganizerManager5ErrorEEPSA_@Base 1.2.0
 (arch=powerpc)_ZN10QtMobility25QOrganizerManagerEngineV2D0Ev@Base 1.2.0
 (arch=powerpc)_ZN10QtMobility25QOrganizerManagerEngineV2D1Ev@Base 1.2.0
 (arch=powerpc)_ZN10QtMobility25QOrganizerManagerEngineV2D2Ev@Base 1.2.0
 _ZN10QtMobility26QOrganizerItemDetailFilter13setMatchFlagsE6QFlagsINS_20QOrganizerItemFilter9MatchFlagEE@Base 1.1.0
 _ZN10QtMobility26QOrganizerItemDetailFilter23setDetailDefinitionNameERK7QStringS3_@Base 1.1.0
 _ZN10QtMobility26QOrganizerItemDetailFilter8setValueERK8QVariant@Base 1.1.0
 _ZN10QtMobility26QOrganizerItemDetailFilterC1ERKNS_20QOrganizerItemFilterE@Base 1.1.0
 _ZN10QtMobility26QOrganizerItemDetailFilterC1Ev@Base 1.1.0
 _ZN10QtMobility26QOrganizerItemDetailFilterC2ERKNS_20QOrganizerItemFilterE@Base 1.1.0
 _ZN10QtMobility26QOrganizerItemDetailFilterC2Ev@Base 1.1.0
 (arch=powerpc)_ZN10QtMobility26QOrganizerItemDetailFilterD1Ev@Base 1.2.0
 (arch=powerpc)_ZN10QtMobility26QOrganizerItemDetailFilterD2Ev@Base 1.2.0
 _ZN10QtMobility26QOrganizerItemDisplayLabel10FieldLabelE@Base 1.1.0
 _ZN10QtMobility26QOrganizerItemDisplayLabel14DefinitionNameE@Base 1.1.0
 _ZN10QtMobility26QOrganizerItemDisplayLabel5matchERK7QString@Base 1.1.0
 (arch=powerpc)_ZN10QtMobility26QOrganizerItemDisplayLabelD1Ev@Base 1.2.0
 (arch=powerpc)_ZN10QtMobility26QOrganizerItemDisplayLabelD2Ev@Base 1.2.0
 _ZN10QtMobility26QOrganizerItemFetchRequest10setEndDateERK9QDateTime@Base 1.1.0
 _ZN10QtMobility26QOrganizerItemFetchRequest10setSortingERK5QListINS_23QOrganizerItemSortOrderEE@Base 1.1.0
 _ZN10QtMobility26QOrganizerItemFetchRequest11qt_metacallEN11QMetaObject4CallEiPPv@Base 1.1.0
 _ZN10QtMobility26QOrganizerItemFetchRequest11qt_metacastEPKc@Base 1.1.0
 _ZN10QtMobility26QOrganizerItemFetchRequest11setMaxCountEi@Base 1.2.0
 _ZN10QtMobility26QOrganizerItemFetchRequest12setFetchHintERKNS_23QOrganizerItemFetchHintE@Base 1.1.0
 _ZN10QtMobility26QOrganizerItemFetchRequest12setStartDateERK9QDateTime@Base 1.1.0
 _ZN10QtMobility26QOrganizerItemFetchRequest16staticMetaObjectE@Base 1.1.0
 _ZN10QtMobility26QOrganizerItemFetchRequest9setFilterERKNS_20QOrganizerItemFilterE@Base 1.1.0
 _ZN10QtMobility26QOrganizerItemFetchRequestC1EP7QObject@Base 1.1.0
 _ZN10QtMobility26QOrganizerItemFetchRequestC2EP7QObject@Base 1.1.0
 _ZN10QtMobility26QOrganizerItemFetchRequestD0Ev@Base 1.2.0
 _ZN10QtMobility26QOrganizerItemFetchRequestD1Ev@Base 1.2.0
 _ZN10QtMobility26QOrganizerItemFetchRequestD2Ev@Base 1.2.0
 _ZN10QtMobility27QOrganizerItemEmailReminder12FieldSubjectE@Base 1.1.0
 _ZN10QtMobility27QOrganizerItemEmailReminder14DefinitionNameE@Base 1.1.0
 _ZN10QtMobility27QOrganizerItemEmailReminder15FieldRecipientsE@Base 1.1.0
 _ZN10QtMobility27QOrganizerItemEmailReminder16FieldAttachmentsE@Base 1.1.0
 _ZN10QtMobility27QOrganizerItemEmailReminder9FieldBodyE@Base 1.1.0
 _ZN10QtMobility27QOrganizerItemInvalidFilterC1ERKNS_20QOrganizerItemFilterE@Base 1.1.0
 _ZN10QtMobility27QOrganizerItemInvalidFilterC1Ev@Base 1.1.0
 _ZN10QtMobility27QOrganizerItemInvalidFilterC2ERKNS_20QOrganizerItemFilterE@Base 1.1.0
 _ZN10QtMobility27QOrganizerItemInvalidFilterC2Ev@Base 1.1.0
 (arch=powerpc)_ZN10QtMobility27QOrganizerItemInvalidFilterD1Ev@Base 1.2.0
 (arch=powerpc)_ZN10QtMobility27QOrganizerItemInvalidFilterD2Ev@Base 1.2.0
 _ZN10QtMobility27QOrganizerItemRemoveRequest10setItemIdsERK5QListINS_16QOrganizerItemIdEE@Base 1.1.0
 _ZN10QtMobility27QOrganizerItemRemoveRequest11qt_metacallEN11QMetaObject4CallEiPPv@Base 1.1.0
 _ZN10QtMobility27QOrganizerItemRemoveRequest11qt_metacastEPKc@Base 1.1.0
 _ZN10QtMobility27QOrganizerItemRemoveRequest16staticMetaObjectE@Base 1.1.0
 _ZN10QtMobility27QOrganizerItemRemoveRequest9setItemIdERKNS_16QOrganizerItemIdE@Base 1.1.0
 _ZN10QtMobility27QOrganizerItemRemoveRequestC1EP7QObject@Base 1.1.0
 _ZN10QtMobility27QOrganizerItemRemoveRequestC2EP7QObject@Base 1.1.0
 _ZN10QtMobility27QOrganizerItemRemoveRequestD0Ev@Base 1.2.0
 _ZN10QtMobility27QOrganizerItemRemoveRequestD1Ev@Base 1.2.0
 _ZN10QtMobility27QOrganizerItemRemoveRequestD2Ev@Base 1.2.0
 (arch=powerpc)_ZN10QtMobility28QOrganizerCollectionEngineIdC1Ev@Base 1.2.0
 (arch=powerpc)_ZN10QtMobility28QOrganizerCollectionEngineIdC2Ev@Base 1.2.0
 _ZN10QtMobility28QOrganizerItemIdFetchRequest10setEndDateERK9QDateTime@Base 1.1.0
 _ZN10QtMobility28QOrganizerItemIdFetchRequest10setSortingERK5QListINS_23QOrganizerItemSortOrderEE@Base 1.1.0
 _ZN10QtMobility28QOrganizerItemIdFetchRequest11qt_metacallEN11QMetaObject4CallEiPPv@Base 1.1.0
 _ZN10QtMobility28QOrganizerItemIdFetchRequest11qt_metacastEPKc@Base 1.1.0
 _ZN10QtMobility28QOrganizerItemIdFetchRequest12setStartDateERK9QDateTime@Base 1.1.0
 _ZN10QtMobility28QOrganizerItemIdFetchRequest16staticMetaObjectE@Base 1.1.0
 _ZN10QtMobility28QOrganizerItemIdFetchRequest9setFilterERKNS_20QOrganizerItemFilterE@Base 1.1.0
 _ZN10QtMobility28QOrganizerItemIdFetchRequestC1EP7QObject@Base 1.1.0
 _ZN10QtMobility28QOrganizerItemIdFetchRequestC2EP7QObject@Base 1.1.0
 _ZN10QtMobility28QOrganizerItemIdFetchRequestD0Ev@Base 1.2.0
 _ZN10QtMobility28QOrganizerItemIdFetchRequestD1Ev@Base 1.2.0
 _ZN10QtMobility28QOrganizerItemIdFetchRequestD2Ev@Base 1.2.0
 _ZN10QtMobility28QOrganizerItemVisualReminder12FieldDataUrlE@Base 1.1.0
 _ZN10QtMobility28QOrganizerItemVisualReminder12FieldMessageE@Base 1.1.0
 _ZN10QtMobility28QOrganizerItemVisualReminder14DefinitionNameE@Base 1.1.0
 _ZN10QtMobility29QOrganizerCollectionChangeSet11dataChangedEv@Base 1.1.0
 _ZN10QtMobility29QOrganizerCollectionChangeSet11emitSignalsEPNS_23QOrganizerManagerEngineE@Base 1.1.0
 _ZN10QtMobility29QOrganizerCollectionChangeSet14setDataChangedEb@Base 1.1.0
 _ZN10QtMobility29QOrganizerCollectionChangeSet21clearAddedCollectionsEv@Base 1.1.0
 _ZN10QtMobility29QOrganizerCollectionChangeSet21insertAddedCollectionERKNS_22QOrganizerCollectionIdE@Base 1.1.0
 _ZN10QtMobility29QOrganizerCollectionChangeSet22insertAddedCollectionsERK5QListINS_22QOrganizerCollectionIdEE@Base 1.1.0
 _ZN10QtMobility29QOrganizerCollectionChangeSet23clearChangedCollectionsEv@Base 1.1.0
 _ZN10QtMobility29QOrganizerCollectionChangeSet23clearRemovedCollectionsEv@Base 1.1.0
 _ZN10QtMobility29QOrganizerCollectionChangeSet23insertChangedCollectionERKNS_22QOrganizerCollectionIdE@Base 1.1.0
 _ZN10QtMobility29QOrganizerCollectionChangeSet23insertRemovedCollectionERKNS_22QOrganizerCollectionIdE@Base 1.1.0
 _ZN10QtMobility29QOrganizerCollectionChangeSet24insertChangedCollectionsERK5QListINS_22QOrganizerCollectionIdEE@Base 1.1.0
 _ZN10QtMobility29QOrganizerCollectionChangeSet24insertRemovedCollectionsERK5QListINS_22QOrganizerCollectionIdEE@Base 1.1.0
 _ZN10QtMobility29QOrganizerCollectionChangeSet8clearAllEv@Base 1.1.0
 _ZN10QtMobility29QOrganizerCollectionChangeSetC1ERKS0_@Base 1.1.0
 _ZN10QtMobility29QOrganizerCollectionChangeSetC1Ev@Base 1.1.0
 _ZN10QtMobility29QOrganizerCollectionChangeSetC2ERKS0_@Base 1.1.0
 _ZN10QtMobility29QOrganizerCollectionChangeSetC2Ev@Base 1.1.0
 _ZN10QtMobility29QOrganizerCollectionChangeSetD1Ev@Base 1.1.0
 _ZN10QtMobility29QOrganizerCollectionChangeSetD2Ev@Base 1.1.0
 _ZN10QtMobility29QOrganizerCollectionChangeSetaSERKS0_@Base 1.1.0
 _ZN10QtMobility29QOrganizerItemAudibleReminder12FieldDataUrlE@Base 1.1.0
 _ZN10QtMobility29QOrganizerItemAudibleReminder14DefinitionNameE@Base 1.1.0
 _ZN10QtMobility29QOrganizerItemChangeLogFilter12setEventTypeENS0_9EventTypeE@Base 1.1.0
 _ZN10QtMobility29QOrganizerItemChangeLogFilter8setSinceERK9QDateTime@Base 1.1.0
 _ZN10QtMobility29QOrganizerItemChangeLogFilterC1ENS0_9EventTypeE@Base 1.1.0
 _ZN10QtMobility29QOrganizerItemChangeLogFilterC1ERKNS_20QOrganizerItemFilterE@Base 1.1.0
 _ZN10QtMobility29QOrganizerItemChangeLogFilterC2ENS0_9EventTypeE@Base 1.1.0
 _ZN10QtMobility29QOrganizerItemChangeLogFilterC2ERKNS_20QOrganizerItemFilterE@Base 1.1.0
 (arch=powerpc)_ZN10QtMobility29QOrganizerItemChangeLogFilterD1Ev@Base 1.2.0
 (arch=powerpc)_ZN10QtMobility29QOrganizerItemChangeLogFilterD2Ev@Base 1.2.0
 _ZN10QtMobility30QOrganizerItemCollectionFilter15setCollectionIdERKNS_22QOrganizerCollectionIdE@Base 1.1.0
 _ZN10QtMobility30QOrganizerItemCollectionFilter16setCollectionIdsERK4QSetINS_22QOrganizerCollectionIdEE@Base 1.1.0
 _ZN10QtMobility30QOrganizerItemCollectionFilterC1ERKNS_20QOrganizerItemFilterE@Base 1.1.0
 _ZN10QtMobility30QOrganizerItemCollectionFilterC1Ev@Base 1.1.0
 _ZN10QtMobility30QOrganizerItemCollectionFilterC2ERKNS_20QOrganizerItemFilterE@Base 1.1.0
 _ZN10QtMobility30QOrganizerItemCollectionFilterC2Ev@Base 1.1.0
 (arch=powerpc)_ZN10QtMobility30QOrganizerItemCollectionFilterD1Ev@Base 1.2.0
 (arch=powerpc)_ZN10QtMobility30QOrganizerItemCollectionFilterD2Ev@Base 1.2.0
 _ZN10QtMobility30QOrganizerItemDetailDefinition11insertFieldERK7QStringRKNS_35QOrganizerItemDetailFieldDefinitionE@Base 1.1.0
 _ZN10QtMobility30QOrganizerItemDetailDefinition11removeFieldERK7QString@Base 1.1.0
 _ZN10QtMobility30QOrganizerItemDetailDefinition7setNameERK7QString@Base 1.1.0
 _ZN10QtMobility30QOrganizerItemDetailDefinition9setFieldsERK4QMapI7QStringNS_35QOrganizerItemDetailFieldDefinitionEE@Base 1.1.0
 _ZN10QtMobility30QOrganizerItemDetailDefinition9setUniqueEb@Base 1.1.0
 _ZN10QtMobility30QOrganizerItemDetailDefinitionC1ERKS0_@Base 1.1.0
 _ZN10QtMobility30QOrganizerItemDetailDefinitionC1Ev@Base 1.1.0
 _ZN10QtMobility30QOrganizerItemDetailDefinitionC2ERKS0_@Base 1.1.0
 _ZN10QtMobility30QOrganizerItemDetailDefinitionC2Ev@Base 1.1.0
 _ZN10QtMobility30QOrganizerItemDetailDefinitionD1Ev@Base 1.1.0
 _ZN10QtMobility30QOrganizerItemDetailDefinitionD2Ev@Base 1.1.0
 _ZN10QtMobility30QOrganizerItemDetailDefinitionaSERKS0_@Base 1.1.0
 _ZN10QtMobility30QOrganizerItemFetchByIdRequest11qt_metacallEN11QMetaObject4CallEiPPv@Base 1.2.0
 _ZN10QtMobility30QOrganizerItemFetchByIdRequest11qt_metacastEPKc@Base 1.2.0
 _ZN10QtMobility30QOrganizerItemFetchByIdRequest12setFetchHintERKNS_23QOrganizerItemFetchHintE@Base 1.2.0
 _ZN10QtMobility30QOrganizerItemFetchByIdRequest16staticMetaObjectE@Base 1.2.0
 _ZN10QtMobility30QOrganizerItemFetchByIdRequest6setIdsERK5QListINS_16QOrganizerItemIdEE@Base 1.2.0
 _ZN10QtMobility30QOrganizerItemFetchByIdRequestC1EP7QObject@Base 1.2.0
 _ZN10QtMobility30QOrganizerItemFetchByIdRequestC2EP7QObject@Base 1.2.0
 _ZN10QtMobility30QOrganizerItemFetchByIdRequestD0Ev@Base 1.2.0
 _ZN10QtMobility30QOrganizerItemFetchByIdRequestD1Ev@Base 1.2.0
 _ZN10QtMobility30QOrganizerItemFetchByIdRequestD2Ev@Base 1.2.0
 _ZN10QtMobility30QOrganizerManagerEngineFactoryD0Ev@Base 1.1.0
 _ZN10QtMobility30QOrganizerManagerEngineFactoryD1Ev@Base 1.1.0
 _ZN10QtMobility30QOrganizerManagerEngineFactoryD2Ev@Base 1.1.0
 _ZN10QtMobility31QOrganizerCollectionSaveRequest11qt_metacallEN11QMetaObject4CallEiPPv@Base 1.1.0
 _ZN10QtMobility31QOrganizerCollectionSaveRequest11qt_metacastEPKc@Base 1.1.0
 _ZN10QtMobility31QOrganizerCollectionSaveRequest13setCollectionERKNS_20QOrganizerCollectionE@Base 1.1.0
 _ZN10QtMobility31QOrganizerCollectionSaveRequest14setCollectionsERK5QListINS_20QOrganizerCollectionEE@Base 1.1.0
 _ZN10QtMobility31QOrganizerCollectionSaveRequest16staticMetaObjectE@Base 1.1.0
 _ZN10QtMobility31QOrganizerCollectionSaveRequestC1EP7QObject@Base 1.1.0
 _ZN10QtMobility31QOrganizerCollectionSaveRequestC2EP7QObject@Base 1.1.0
 _ZN10QtMobility31QOrganizerCollectionSaveRequestD0Ev@Base 1.2.0
 _ZN10QtMobility31QOrganizerCollectionSaveRequestD1Ev@Base 1.2.0
 _ZN10QtMobility31QOrganizerCollectionSaveRequestD2Ev@Base 1.2.0
 _ZN10QtMobility31QOrganizerItemDetailRangeFilter13setMatchFlagsE6QFlagsINS_20QOrganizerItemFilter9MatchFlagEE@Base 1.1.0
 _ZN10QtMobility31QOrganizerItemDetailRangeFilter23setDetailDefinitionNameERK7QStringS3_@Base 1.1.0
 _ZN10QtMobility31QOrganizerItemDetailRangeFilter8setRangeERK8QVariantS3_6QFlagsINS0_9RangeFlagEE@Base 1.1.0
 _ZN10QtMobility31QOrganizerItemDetailRangeFilterC1ERKNS_20QOrganizerItemFilterE@Base 1.1.0
 _ZN10QtMobility31QOrganizerItemDetailRangeFilterC1Ev@Base 1.1.0
 _ZN10QtMobility31QOrganizerItemDetailRangeFilterC2ERKNS_20QOrganizerItemFilterE@Base 1.1.0
 _ZN10QtMobility31QOrganizerItemDetailRangeFilterC2Ev@Base 1.1.0
 (arch=powerpc)_ZN10QtMobility31QOrganizerItemDetailRangeFilterD1Ev@Base 1.2.0
 (arch=powerpc)_ZN10QtMobility31QOrganizerItemDetailRangeFilterD2Ev@Base 1.2.0
 _ZN10QtMobility32QOrganizerCollectionFetchRequest11qt_metacallEN11QMetaObject4CallEiPPv@Base 1.1.0
 _ZN10QtMobility32QOrganizerCollectionFetchRequest11qt_metacastEPKc@Base 1.1.0
 _ZN10QtMobility32QOrganizerCollectionFetchRequest16staticMetaObjectE@Base 1.1.0
 _ZN10QtMobility32QOrganizerCollectionFetchRequestC1EP7QObject@Base 1.1.0
 _ZN10QtMobility32QOrganizerCollectionFetchRequestC2EP7QObject@Base 1.1.0
 _ZN10QtMobility32QOrganizerCollectionFetchRequestD0Ev@Base 1.2.0
 _ZN10QtMobility32QOrganizerCollectionFetchRequestD1Ev@Base 1.2.0
 _ZN10QtMobility32QOrganizerCollectionFetchRequestD2Ev@Base 1.2.0
 _ZN10QtMobility32QOrganizerItemIntersectionFilter10setFiltersERK5QListINS_20QOrganizerItemFilterEE@Base 1.1.0
 _ZN10QtMobility32QOrganizerItemIntersectionFilter5clearEv@Base 1.1.0
 _ZN10QtMobility32QOrganizerItemIntersectionFilter6appendERKNS_20QOrganizerItemFilterE@Base 1.1.0
 _ZN10QtMobility32QOrganizerItemIntersectionFilter6removeERKNS_20QOrganizerItemFilterE@Base 1.1.0
 _ZN10QtMobility32QOrganizerItemIntersectionFilter7prependERKNS_20QOrganizerItemFilterE@Base 1.1.0
 _ZN10QtMobility32QOrganizerItemIntersectionFilterC1ERKNS_20QOrganizerItemFilterE@Base 1.1.0
 _ZN10QtMobility32QOrganizerItemIntersectionFilterC1Ev@Base 1.1.0
 _ZN10QtMobility32QOrganizerItemIntersectionFilterC2ERKNS_20QOrganizerItemFilterE@Base 1.1.0
 _ZN10QtMobility32QOrganizerItemIntersectionFilterC2Ev@Base 1.1.0
 (arch=powerpc)_ZN10QtMobility32QOrganizerItemIntersectionFilterD1Ev@Base 1.2.0
 (arch=powerpc)_ZN10QtMobility32QOrganizerItemIntersectionFilterD2Ev@Base 1.2.0
 _ZN10QtMobility32QOrganizerItemIntersectionFilterlsERKNS_20QOrganizerItemFilterE@Base 1.1.0
 _ZN10QtMobility33QOrganizerCollectionRemoveRequest11qt_metacallEN11QMetaObject4CallEiPPv@Base 1.1.0
 _ZN10QtMobility33QOrganizerCollectionRemoveRequest11qt_metacastEPKc@Base 1.1.0
 _ZN10QtMobility33QOrganizerCollectionRemoveRequest15setCollectionIdERKNS_22QOrganizerCollectionIdE@Base 1.1.0
 _ZN10QtMobility33QOrganizerCollectionRemoveRequest16setCollectionIdsERK5QListINS_22QOrganizerCollectionIdEE@Base 1.1.0
 _ZN10QtMobility33QOrganizerCollectionRemoveRequest16staticMetaObjectE@Base 1.1.0
 _ZN10QtMobility33QOrganizerCollectionRemoveRequestC1EP7QObject@Base 1.1.0
 _ZN10QtMobility33QOrganizerCollectionRemoveRequestC2EP7QObject@Base 1.1.0
 _ZN10QtMobility33QOrganizerCollectionRemoveRequestD0Ev@Base 1.2.0
 _ZN10QtMobility33QOrganizerCollectionRemoveRequestD1Ev@Base 1.2.0
 _ZN10QtMobility33QOrganizerCollectionRemoveRequestD2Ev@Base 1.2.0
 _ZN10QtMobility35QOrganizerItemDetailFieldDefinition11setDataTypeEi@Base 1.1.0
 _ZN10QtMobility35QOrganizerItemDetailFieldDefinition18setAllowableValuesE5QListI8QVariantE@Base 1.1.0
 _ZN10QtMobility35QOrganizerItemDetailFieldDefinitionC1ERKS0_@Base 1.1.0
 _ZN10QtMobility35QOrganizerItemDetailFieldDefinitionC1Ev@Base 1.1.0
 _ZN10QtMobility35QOrganizerItemDetailFieldDefinitionC2ERKS0_@Base 1.1.0
 _ZN10QtMobility35QOrganizerItemDetailFieldDefinitionC2Ev@Base 1.1.0
 _ZN10QtMobility35QOrganizerItemDetailFieldDefinitionD1Ev@Base 1.1.0
 _ZN10QtMobility35QOrganizerItemDetailFieldDefinitionD2Ev@Base 1.1.0
 _ZN10QtMobility35QOrganizerItemDetailFieldDefinitionaSERKS0_@Base 1.1.0
 _ZN10QtMobility35QOrganizerItemFetchForExportRequest10setEndDateERK9QDateTime@Base 1.1.0
 _ZN10QtMobility35QOrganizerItemFetchForExportRequest10setSortingERK5QListINS_23QOrganizerItemSortOrderEE@Base 1.1.0
 _ZN10QtMobility35QOrganizerItemFetchForExportRequest11qt_metacallEN11QMetaObject4CallEiPPv@Base 1.1.0
 _ZN10QtMobility35QOrganizerItemFetchForExportRequest11qt_metacastEPKc@Base 1.1.0
 _ZN10QtMobility35QOrganizerItemFetchForExportRequest12setFetchHintERKNS_23QOrganizerItemFetchHintE@Base 1.1.0
 _ZN10QtMobility35QOrganizerItemFetchForExportRequest12setStartDateERK9QDateTime@Base 1.1.0
 _ZN10QtMobility35QOrganizerItemFetchForExportRequest16staticMetaObjectE@Base 1.1.0
 _ZN10QtMobility35QOrganizerItemFetchForExportRequest9setFilterERKNS_20QOrganizerItemFilterE@Base 1.1.0
 _ZN10QtMobility35QOrganizerItemFetchForExportRequestC1EP7QObject@Base 1.1.0
 _ZN10QtMobility35QOrganizerItemFetchForExportRequestC2EP7QObject@Base 1.1.0
 _ZN10QtMobility35QOrganizerItemFetchForExportRequestD0Ev@Base 1.2.0
 _ZN10QtMobility35QOrganizerItemFetchForExportRequestD1Ev@Base 1.2.0
 _ZN10QtMobility35QOrganizerItemFetchForExportRequestD2Ev@Base 1.2.0
 _ZN10QtMobility36QOrganizerItemOccurrenceFetchRequest10setEndDateERK9QDateTime@Base 1.1.0
 _ZN10QtMobility36QOrganizerItemOccurrenceFetchRequest11qt_metacallEN11QMetaObject4CallEiPPv@Base 1.1.0
 _ZN10QtMobility36QOrganizerItemOccurrenceFetchRequest11qt_metacastEPKc@Base 1.1.0
 _ZN10QtMobility36QOrganizerItemOccurrenceFetchRequest12setFetchHintERKNS_23QOrganizerItemFetchHintE@Base 1.1.0
 _ZN10QtMobility36QOrganizerItemOccurrenceFetchRequest12setStartDateERK9QDateTime@Base 1.1.0
 _ZN10QtMobility36QOrganizerItemOccurrenceFetchRequest13setParentItemERKNS_14QOrganizerItemE@Base 1.1.0
 _ZN10QtMobility36QOrganizerItemOccurrenceFetchRequest16staticMetaObjectE@Base 1.1.0
 _ZN10QtMobility36QOrganizerItemOccurrenceFetchRequest17setMaxOccurrencesEi@Base 1.1.0
 _ZN10QtMobility36QOrganizerItemOccurrenceFetchRequestC1EP7QObject@Base 1.1.0
 _ZN10QtMobility36QOrganizerItemOccurrenceFetchRequestC2EP7QObject@Base 1.1.0
 _ZN10QtMobility36QOrganizerItemOccurrenceFetchRequestD0Ev@Base 1.2.0
 _ZN10QtMobility36QOrganizerItemOccurrenceFetchRequestD1Ev@Base 1.2.0
 _ZN10QtMobility36QOrganizerItemOccurrenceFetchRequestD2Ev@Base 1.2.0
 _ZN10QtMobility41QOrganizerItemDetailDefinitionSaveRequest11qt_metacallEN11QMetaObject4CallEiPPv@Base 1.1.0
 _ZN10QtMobility41QOrganizerItemDetailDefinitionSaveRequest11qt_metacastEPKc@Base 1.1.0
 _ZN10QtMobility41QOrganizerItemDetailDefinitionSaveRequest11setItemTypeERK7QString@Base 1.1.0
 _ZN10QtMobility41QOrganizerItemDetailDefinitionSaveRequest13setDefinitionERKNS_30QOrganizerItemDetailDefinitionE@Base 1.1.0
 _ZN10QtMobility41QOrganizerItemDetailDefinitionSaveRequest14setDefinitionsERK5QListINS_30QOrganizerItemDetailDefinitionEE@Base 1.1.0
 _ZN10QtMobility41QOrganizerItemDetailDefinitionSaveRequest16staticMetaObjectE@Base 1.1.0
 _ZN10QtMobility41QOrganizerItemDetailDefinitionSaveRequestC1EP7QObject@Base 1.1.0
 _ZN10QtMobility41QOrganizerItemDetailDefinitionSaveRequestC2EP7QObject@Base 1.1.0
 _ZN10QtMobility41QOrganizerItemDetailDefinitionSaveRequestD0Ev@Base 1.2.0
 _ZN10QtMobility41QOrganizerItemDetailDefinitionSaveRequestD1Ev@Base 1.2.0
 _ZN10QtMobility41QOrganizerItemDetailDefinitionSaveRequestD2Ev@Base 1.2.0
 _ZN10QtMobility42QOrganizerItemDetailDefinitionFetchRequest11qt_metacallEN11QMetaObject4CallEiPPv@Base 1.1.0
 _ZN10QtMobility42QOrganizerItemDetailDefinitionFetchRequest11qt_metacastEPKc@Base 1.1.0
 _ZN10QtMobility42QOrganizerItemDetailDefinitionFetchRequest11setItemTypeERK7QString@Base 1.1.0
 _ZN10QtMobility42QOrganizerItemDetailDefinitionFetchRequest16staticMetaObjectE@Base 1.1.0
 _ZN10QtMobility42QOrganizerItemDetailDefinitionFetchRequest17setDefinitionNameERK7QString@Base 1.1.0
 _ZN10QtMobility42QOrganizerItemDetailDefinitionFetchRequest18setDefinitionNamesERK11QStringList@Base 1.1.0
 _ZN10QtMobility42QOrganizerItemDetailDefinitionFetchRequestC1EP7QObject@Base 1.1.0
 _ZN10QtMobility42QOrganizerItemDetailDefinitionFetchRequestC2EP7QObject@Base 1.1.0
 _ZN10QtMobility42QOrganizerItemDetailDefinitionFetchRequestD0Ev@Base 1.2.0
 _ZN10QtMobility42QOrganizerItemDetailDefinitionFetchRequestD1Ev@Base 1.2.0
 _ZN10QtMobility42QOrganizerItemDetailDefinitionFetchRequestD2Ev@Base 1.2.0
 _ZN10QtMobility43QOrganizerItemDetailDefinitionRemoveRequest11qt_metacallEN11QMetaObject4CallEiPPv@Base 1.1.0
 _ZN10QtMobility43QOrganizerItemDetailDefinitionRemoveRequest11qt_metacastEPKc@Base 1.1.0
 _ZN10QtMobility43QOrganizerItemDetailDefinitionRemoveRequest11setItemTypeERK7QString@Base 1.1.0
 _ZN10QtMobility43QOrganizerItemDetailDefinitionRemoveRequest16staticMetaObjectE@Base 1.1.0
 _ZN10QtMobility43QOrganizerItemDetailDefinitionRemoveRequest17setDefinitionNameERK7QString@Base 1.1.0
 _ZN10QtMobility43QOrganizerItemDetailDefinitionRemoveRequest18setDefinitionNamesERK11QStringList@Base 1.1.0
 _ZN10QtMobility43QOrganizerItemDetailDefinitionRemoveRequestC1EP7QObject@Base 1.1.0
 _ZN10QtMobility43QOrganizerItemDetailDefinitionRemoveRequestC2EP7QObject@Base 1.1.0
 _ZN10QtMobility43QOrganizerItemDetailDefinitionRemoveRequestD0Ev@Base 1.2.0
 _ZN10QtMobility43QOrganizerItemDetailDefinitionRemoveRequestD1Ev@Base 1.2.0
 _ZN10QtMobility43QOrganizerItemDetailDefinitionRemoveRequestD2Ev@Base 1.2.0
 _ZN10QtMobility5qHashERKNS_14QOrganizerItemE@Base 1.1.0
 _ZN10QtMobility5qHashERKNS_16QOrganizerItemIdE@Base 1.1.0
 _ZN10QtMobility5qHashERKNS_20QOrganizerCollectionE@Base 1.1.0
 _ZN10QtMobility5qHashERKNS_20QOrganizerItemDetailE@Base 1.1.0
 _ZN10QtMobility5qHashERKNS_22QOrganizerCollectionIdE@Base 1.1.0
 _ZN10QtMobility5qHashERKNS_24QOrganizerRecurrenceRuleE@Base 1.1.0
 _ZN10QtMobilityanERKNS_20QOrganizerItemFilterES2_@Base 1.1.0
 _ZN10QtMobilitylsE6QDebugRKNS_14QOrganizerItemE@Base 1.1.0
 _ZN10QtMobilitylsE6QDebugRKNS_16QOrganizerItemIdE@Base 1.1.0
 _ZN10QtMobilitylsE6QDebugRKNS_20QOrganizerCollectionE@Base 1.1.0
 _ZN10QtMobilitylsE6QDebugRKNS_20QOrganizerItemDetailE@Base 1.1.0
 _ZN10QtMobilitylsE6QDebugRKNS_20QOrganizerItemFilterE@Base 1.2.0
 _ZN10QtMobilitylsE6QDebugRKNS_22QOrganizerCollectionIdE@Base 1.1.0
 _ZN10QtMobilitylsE6QDebugRKNS_23QOrganizerItemFetchHintE@Base 1.2.0
 _ZN10QtMobilitylsE6QDebugRKNS_23QOrganizerItemSortOrderE@Base 1.2.0
 _ZN10QtMobilitylsE6QDebugRKNS_24QOrganizerRecurrenceRuleE@Base 1.2.0
 _ZN10QtMobilitylsE6QDebugRKNS_25QOrganizerAbstractRequestE@Base 1.2.0
 _ZN10QtMobilitylsE6QDebugRKNS_30QOrganizerItemDetailDefinitionE@Base 1.2.0
 _ZN10QtMobilitylsE6QDebugRKNS_35QOrganizerItemDetailFieldDefinitionE@Base 1.2.0
 _ZN10QtMobilitylsER11QDataStreamRKNS_14QOrganizerItemE@Base 1.1.0
 _ZN10QtMobilitylsER11QDataStreamRKNS_16QOrganizerItemIdE@Base 1.1.0
 _ZN10QtMobilitylsER11QDataStreamRKNS_20QOrganizerCollectionE@Base 1.1.0
 _ZN10QtMobilitylsER11QDataStreamRKNS_20QOrganizerItemDetailE@Base 1.1.0
 _ZN10QtMobilitylsER11QDataStreamRKNS_20QOrganizerItemFilterE@Base 1.1.0
 _ZN10QtMobilitylsER11QDataStreamRKNS_22QOrganizerCollectionIdE@Base 1.1.0
 _ZN10QtMobilitylsER11QDataStreamRKNS_23QOrganizerItemFetchHintE@Base 1.1.0
 _ZN10QtMobilitylsER11QDataStreamRKNS_23QOrganizerItemSortOrderE@Base 1.1.0
 _ZN10QtMobilitylsER11QDataStreamRKNS_30QOrganizerItemDetailDefinitionE@Base 1.1.0
 _ZN10QtMobilitylsER11QDataStreamRKNS_35QOrganizerItemDetailFieldDefinitionE@Base 1.1.0
 _ZN10QtMobilityorERKNS_20QOrganizerItemFilterES2_@Base 1.1.0
 _ZN10QtMobilityrsER11QDataStreamRNS_14QOrganizerItemE@Base 1.1.0
 _ZN10QtMobilityrsER11QDataStreamRNS_16QOrganizerItemIdE@Base 1.1.0
 _ZN10QtMobilityrsER11QDataStreamRNS_20QOrganizerCollectionE@Base 1.1.0
 _ZN10QtMobilityrsER11QDataStreamRNS_20QOrganizerItemDetailE@Base 1.1.0
 _ZN10QtMobilityrsER11QDataStreamRNS_20QOrganizerItemFilterE@Base 1.1.0
 _ZN10QtMobilityrsER11QDataStreamRNS_22QOrganizerCollectionIdE@Base 1.1.0
 _ZN10QtMobilityrsER11QDataStreamRNS_23QOrganizerItemFetchHintE@Base 1.1.0
 _ZN10QtMobilityrsER11QDataStreamRNS_23QOrganizerItemSortOrderE@Base 1.1.0
 _ZN10QtMobilityrsER11QDataStreamRNS_30QOrganizerItemDetailDefinitionE@Base 1.1.0
 _ZN10QtMobilityrsER11QDataStreamRNS_35QOrganizerItemDetailFieldDefinitionE@Base 1.1.0
 _ZN11QDataStreamlsEh@Base 1.1.0
 _ZN11QDataStreamlsEj@Base 1.1.0
 _ZN11QDataStreamrsERh@Base 1.1.0
 _ZN11QDataStreamrsERj@Base 1.1.0
 (arch=powerpc)_ZN15QBasicAtomicInt18fetchAndAddAcquireEi@Base 1.2.0
 _ZN15QBasicAtomicInt18fetchAndAddOrderedEi@Base 1.1.0
 _ZN15QBasicAtomicInt3refEv@Base 1.1.0
 _ZN15QBasicAtomicInt5derefEv@Base 1.1.0
 (arch=powerpc)_ZN15QBasicAtomicIntC1Ev@Base 1.2.0
 (arch=powerpc)_ZN15QBasicAtomicIntC2Ev@Base 1.2.0
 _ZN5QCharC1E11QLatin1Char@Base 1.1.0
 _ZN5QCharC2E11QLatin1Char@Base 1.1.0
 (arch=powerpc)_ZN6QDebug6StreamD1Ev@Base 1.2.0
 (arch=powerpc)_ZN6QDebug6StreamD2Ev@Base 1.2.0
 _ZN7QString5clearEv@Base 1.1.0
 _ZN7QString7compareERKS_RK10QStringRefN2Qt15CaseSensitivityE@Base 1.1.0
 (optional=templinst)_ZN8QVariant9fromValueIN10QtMobility16QOrganizerItemIdEEES_RKT_@Base 1.1.0
 _ZN9QHashData8willGrowEv@Base 1.1.0
 _ZN9QHashData9firstNodeEv@Base 1.1.0
 _ZN9QHashData9hasShrunkEv@Base 1.1.0
 _ZNK10QtMobility14QOrganizerItem11descriptionEv@Base 1.1.0
 _ZNK10QtMobility14QOrganizerItem12collectionIdEv@Base 1.1.0
 _ZNK10QtMobility14QOrganizerItem12displayLabelEv@Base 1.1.0
 _ZNK10QtMobility14QOrganizerItem2idEv@Base 1.1.0
 _ZNK10QtMobility14QOrganizerItem4guidEv@Base 1.1.0
 _ZNK10QtMobility14QOrganizerItem4tagsEv@Base 1.2.0
 _ZNK10QtMobility14QOrganizerItem4typeEv@Base 1.1.0
 _ZNK10QtMobility14QOrganizerItem6detailEPKc@Base 1.1.0
 _ZNK10QtMobility14QOrganizerItem6detailERK7QString@Base 1.1.0
 (optional=templinst)_ZNK10QtMobility14QOrganizerItem6detailILi10EEENS_20QOrganizerItemDetailERKNS_15QLatin1ConstantIXT_EEE@Base 1.1.0
 (optional=templinst)_ZNK10QtMobility14QOrganizerItem6detailILi11EEENS_20QOrganizerItemDetailERKNS_15QLatin1ConstantIXT_EEE@Base 1.1.0
 (optional=templinst)_ZNK10QtMobility14QOrganizerItem6detailINS_18QOrganizerItemGuidEEET_v@Base 1.1.0
 (optional=templinst)_ZNK10QtMobility14QOrganizerItem6detailINS_18QOrganizerItemTypeEEET_v@Base 1.1.0
 (optional=templinst)_ZNK10QtMobility14QOrganizerItem6detailINS_18QOrganizerTodoTimeEEET_v@Base 1.1.0
 (optional=templinst)_ZNK10QtMobility14QOrganizerItem6detailINS_19QOrganizerEventTimeEEET_v@Base 1.1.0
 (optional=templinst)_ZNK10QtMobility14QOrganizerItem6detailINS_20QOrganizerItemParentEEET_v@Base 1.1.0
 (optional=templinst)_ZNK10QtMobility14QOrganizerItem6detailINS_21QOrganizerJournalTimeEEET_v@Base 1.1.0
 (optional=templinst)_ZNK10QtMobility14QOrganizerItem6detailINS_22QOrganizerItemLocationEEET_v@Base 1.1.0
 (optional=templinst)_ZNK10QtMobility14QOrganizerItem6detailINS_22QOrganizerItemPriorityEEET_v@Base 1.1.0
 (optional=templinst)_ZNK10QtMobility14QOrganizerItem6detailINS_22QOrganizerTodoProgressEEET_v@Base 1.1.0
 (optional=templinst)_ZNK10QtMobility14QOrganizerItem6detailINS_24QOrganizerItemRecurrenceEEET_v@Base 1.1.0
 (optional=templinst)_ZNK10QtMobility14QOrganizerItem6detailINS_25QOrganizerItemDescriptionEEET_v@Base 1.1.0
 (optional=templinst)_ZNK10QtMobility14QOrganizerItem6detailINS_26QOrganizerItemDisplayLabelEEET_v@Base 1.1.0
 _ZNK10QtMobility14QOrganizerItem7detailsEPKc@Base 1.1.0
 _ZNK10QtMobility14QOrganizerItem7detailsEPKcS2_RK7QString@Base 1.1.0
 _ZNK10QtMobility14QOrganizerItem7detailsERK7QString@Base 1.1.0
 _ZNK10QtMobility14QOrganizerItem7detailsERK7QStringS3_S3_@Base 1.1.0
 (optional=templinst)_ZNK10QtMobility14QOrganizerItem7detailsINS_17QOrganizerItemTagEEE5QListIT_Ev@Base 1.2.0
 (optional=templinst)_ZNK10QtMobility14QOrganizerItem7detailsINS_21QOrganizerItemCommentEEE5QListIT_Ev@Base 1.1.0
 _ZNK10QtMobility14QOrganizerItem7isEmptyEv@Base 1.1.0
 _ZNK10QtMobility14QOrganizerItem8commentsEv@Base 1.1.0
 _ZNK10QtMobility14QOrganizerItemeqERKS0_@Base 1.1.0
 _ZNK10QtMobility14QOrganizerTodo11dueDateTimeEv@Base 1.1.0
 _ZNK10QtMobility14QOrganizerTodo13exceptionRuleEv@Base 1.1.0
 _ZNK10QtMobility14QOrganizerTodo13startDateTimeEv@Base 1.1.0
 _ZNK10QtMobility14QOrganizerTodo14exceptionDatesEv@Base 1.1.0
 _ZNK10QtMobility14QOrganizerTodo14exceptionRulesEv@Base 1.1.0
 _ZNK10QtMobility14QOrganizerTodo14recurrenceRuleEv@Base 1.1.0
 _ZNK10QtMobility14QOrganizerTodo15recurrenceDatesEv@Base 1.1.0
 _ZNK10QtMobility14QOrganizerTodo15recurrenceRulesEv@Base 1.1.0
 _ZNK10QtMobility14QOrganizerTodo16finishedDateTimeEv@Base 1.1.0
 _ZNK10QtMobility14QOrganizerTodo18progressPercentageEv@Base 1.1.0
 _ZNK10QtMobility14QOrganizerTodo6statusEv@Base 1.1.0
 _ZNK10QtMobility14QOrganizerTodo8isAllDayEv@Base 1.1.0
 _ZNK10QtMobility14QOrganizerTodo8priorityEv@Base 1.1.0
 _ZNK10QtMobility15QOrganizerEvent11endDateTimeEv@Base 1.1.0
 _ZNK10QtMobility15QOrganizerEvent13exceptionRuleEv@Base 1.1.0
 _ZNK10QtMobility15QOrganizerEvent13startDateTimeEv@Base 1.1.0
 _ZNK10QtMobility15QOrganizerEvent14exceptionDatesEv@Base 1.1.0
 _ZNK10QtMobility15QOrganizerEvent14exceptionRulesEv@Base 1.1.0
 _ZNK10QtMobility15QOrganizerEvent14recurrenceRuleEv@Base 1.1.0
 _ZNK10QtMobility15QOrganizerEvent15recurrenceDatesEv@Base 1.1.0
 _ZNK10QtMobility15QOrganizerEvent15recurrenceRulesEv@Base 1.1.0
 _ZNK10QtMobility15QOrganizerEvent8isAllDayEv@Base 1.1.0
 _ZNK10QtMobility15QOrganizerEvent8locationEv@Base 1.1.0
 _ZNK10QtMobility15QOrganizerEvent8priorityEv@Base 1.1.0
 _ZNK10QtMobility16QOrganizerItemId10managerUriEv@Base 1.1.0
 _ZNK10QtMobility16QOrganizerItemId6isNullEv@Base 1.1.0
 _ZNK10QtMobility16QOrganizerItemId8toStringEv@Base 1.1.0
 _ZNK10QtMobility16QOrganizerItemIdeqERKS0_@Base 1.1.0
 _ZNK10QtMobility16QOrganizerItemIdltERKS0_@Base 1.1.0
 _ZNK10QtMobility16QOrganizerItemIdneERKS0_@Base 1.1.0
 _ZNK10QtMobility17QOrganizerJournal8dateTimeEv@Base 1.1.0
 _ZNK10QtMobility17QOrganizerManager10collectionERKNS_22QOrganizerCollectionIdE@Base 1.1.0
 _ZNK10QtMobility17QOrganizerManager10hasFeatureENS0_14ManagerFeatureERK7QString@Base 1.1.0
 _ZNK10QtMobility17QOrganizerManager10managerUriEv@Base 1.1.0
 _ZNK10QtMobility17QOrganizerManager10metaObjectEv@Base 1.1.0
 _ZNK10QtMobility17QOrganizerManager11collectionsEv@Base 1.1.0
 _ZNK10QtMobility17QOrganizerManager11managerNameEv@Base 1.1.0
 _ZNK10QtMobility17QOrganizerManager14compatibleItemERKNS_14QOrganizerItemE@Base 1.1.0
 _ZNK10QtMobility17QOrganizerManager14itemsForExportERK9QDateTimeS3_RKNS_20QOrganizerItemFilterERK5QListINS_23QOrganizerItemSortOrderEERKNS_23QOrganizerItemFetchHintE@Base 1.1.0
 _ZNK10QtMobility17QOrganizerManager14managerVersionEv@Base 1.1.0
 _ZNK10QtMobility17QOrganizerManager15itemOccurrencesERKNS_14QOrganizerItemERK9QDateTimeS6_iRKNS_23QOrganizerItemFetchHintE@Base 1.1.0
 _ZNK10QtMobility17QOrganizerManager16detailDefinitionERK7QStringS3_@Base 1.1.0
 _ZNK10QtMobility17QOrganizerManager17defaultCollectionEv@Base 1.1.0
 _ZNK10QtMobility17QOrganizerManager17detailDefinitionsERK7QString@Base 1.1.0
 _ZNK10QtMobility17QOrganizerManager17isFilterSupportedERKNS_20QOrganizerItemFilterE@Base 1.1.0
 _ZNK10QtMobility17QOrganizerManager17managerParametersEv@Base 1.1.0
 _ZNK10QtMobility17QOrganizerManager18supportedItemTypesEv@Base 1.1.0
 _ZNK10QtMobility17QOrganizerManager20compatibleCollectionERKNS_20QOrganizerCollectionE@Base 1.1.0
 _ZNK10QtMobility17QOrganizerManager4itemERKNS_16QOrganizerItemIdERKNS_23QOrganizerItemFetchHintE@Base 1.1.0
 _ZNK10QtMobility17QOrganizerManager5errorEv@Base 1.1.0
 _ZNK10QtMobility17QOrganizerManager5itemsERK9QDateTimeS3_RKNS_20QOrganizerItemFilterERK5QListINS_23QOrganizerItemSortOrderEERKNS_23QOrganizerItemFetchHintE@Base 1.1.0
 _ZNK10QtMobility17QOrganizerManager5itemsERK9QDateTimeS3_iRKNS_20QOrganizerItemFilterERKNS_23QOrganizerItemFetchHintE@Base 1.2.0
 _ZNK10QtMobility17QOrganizerManager5itemsERKNS_20QOrganizerItemFilterERK5QListINS_23QOrganizerItemSortOrderEERKNS_23QOrganizerItemFetchHintE@Base 1.1.0
 _ZNK10QtMobility17QOrganizerManager7itemIdsERK9QDateTimeS3_RKNS_20QOrganizerItemFilterERK5QListINS_23QOrganizerItemSortOrderEE@Base 1.1.0
 _ZNK10QtMobility17QOrganizerManager7itemIdsERKNS_20QOrganizerItemFilterERK5QListINS_23QOrganizerItemSortOrderEE@Base 1.1.0
 _ZNK10QtMobility17QOrganizerManager8errorMapEv@Base 1.1.0
 _ZNK10QtMobility20QOrganizerCollection2idEv@Base 1.1.0
 _ZNK10QtMobility20QOrganizerCollection8metaDataERK7QString@Base 1.1.0
 _ZNK10QtMobility20QOrganizerCollection8metaDataEv@Base 1.1.0
 _ZNK10QtMobility20QOrganizerCollectioneqERKS0_@Base 1.1.0
 _ZNK10QtMobility20QOrganizerItemDetail12variantValueEPKc@Base 1.1.0
 _ZNK10QtMobility20QOrganizerItemDetail12variantValueERK7QString@Base 1.1.0
 (optional=templinst)_ZNK10QtMobility20QOrganizerItemDetail12variantValueILi13EEE8QVariantRKNS_15QLatin1ConstantIXT_EEE@Base 1.1.0
 (optional=templinst)_ZNK10QtMobility20QOrganizerItemDetail12variantValueILi15EEE8QVariantRKNS_15QLatin1ConstantIXT_EEE@Base 1.1.0
 (optional=templinst)_ZNK10QtMobility20QOrganizerItemDetail12variantValueILi16EEE8QVariantRKNS_15QLatin1ConstantIXT_EEE@Base 1.1.0
 (optional=templinst)_ZNK10QtMobility20QOrganizerItemDetail12variantValueILi9EEE8QVariantRKNS_15QLatin1ConstantIXT_EEE@Base 1.1.0
 _ZNK10QtMobility20QOrganizerItemDetail13variantValuesEv@Base 1.1.0
 _ZNK10QtMobility20QOrganizerItemDetail14definitionNameEv@Base 1.1.0
 _ZNK10QtMobility20QOrganizerItemDetail17accessConstraintsEv@Base 1.1.0
 _ZNK10QtMobility20QOrganizerItemDetail3keyEv@Base 1.1.0
 _ZNK10QtMobility20QOrganizerItemDetail5valueEPKc@Base 1.1.0
 _ZNK10QtMobility20QOrganizerItemDetail5valueERK7QString@Base 1.1.0
 (optional=templinst)_ZNK10QtMobility20QOrganizerItemDetail5valueI9QDateTimeEET_PKc@Base 1.1.0
 (optional=templinst)_ZNK10QtMobility20QOrganizerItemDetail5valueI9QDateTimeLi12EEET_RKNS_15QLatin1ConstantIXT0_EEE@Base 1.1.0
 (optional=templinst)_ZNK10QtMobility20QOrganizerItemDetail5valueI9QDateTimeLi14EEET_RKNS_15QLatin1ConstantIXT0_EEE@Base 1.1.0
 (optional=templinst)_ZNK10QtMobility20QOrganizerItemDetail5valueI9QDateTimeLi17EEET_RKNS_15QLatin1ConstantIXT0_EEE@Base 1.1.0
 (optional=templinst)_ZNK10QtMobility20QOrganizerItemDetail5valueI9QDateTimeLi18EEET_RKNS_15QLatin1ConstantIXT0_EEE@Base 1.1.0
 (optional=templinst)_ZNK10QtMobility20QOrganizerItemDetail5valueI9QDateTimeLi22EEET_RKNS_15QLatin1ConstantIXT0_EEE@Base 1.1.0
 (optional=templinst)_ZNK10QtMobility20QOrganizerItemDetail5valueILi12EEE7QStringRKNS_15QLatin1ConstantIXT_EEE@Base 1.1.0
 (optional=templinst)_ZNK10QtMobility20QOrganizerItemDetail5valueILi4EEE7QStringRKNS_15QLatin1ConstantIXT_EEE@Base 1.2.0
 (optional=templinst)_ZNK10QtMobility20QOrganizerItemDetail5valueILi5EEE7QStringRKNS_15QLatin1ConstantIXT_EEE@Base 1.1.0
 (optional=templinst)_ZNK10QtMobility20QOrganizerItemDetail5valueILi6EEE7QStringRKNS_15QLatin1ConstantIXT_EEE@Base 1.1.0
 (optional=templinst)_ZNK10QtMobility20QOrganizerItemDetail5valueILi8EEE7QStringRKNS_15QLatin1ConstantIXT_EEE@Base 1.1.0
 (optional=templinst)_ZNK10QtMobility20QOrganizerItemDetail5valueIbEET_PKc@Base 1.1.0
 (optional=templinst)_ZNK10QtMobility20QOrganizerItemDetail5valueIbLi7EEET_RKNS_15QLatin1ConstantIXT0_EEE@Base 1.1.0
 (optional=templinst)_ZNK10QtMobility20QOrganizerItemDetail5valueIiEET_PKc@Base 1.1.0
 (optional=templinst)_ZNK10QtMobility20QOrganizerItemDetail5valueIiLi19EEET_RKNS_15QLatin1ConstantIXT0_EEE@Base 1.1.0
 (optional=templinst)_ZNK10QtMobility20QOrganizerItemDetail5valueIiLi7EEET_RKNS_15QLatin1ConstantIXT0_EEE@Base 1.1.0
 (optional=templinst)_ZNK10QtMobility20QOrganizerItemDetail5valueIiLi9EEET_RKNS_15QLatin1ConstantIXT0_EEE@Base 1.1.0
 _ZNK10QtMobility20QOrganizerItemDetail7isEmptyEv@Base 1.1.0
 _ZNK10QtMobility20QOrganizerItemDetail8hasValueEPKc@Base 1.1.0
 _ZNK10QtMobility20QOrganizerItemDetail8hasValueERK7QString@Base 1.1.0
 _ZNK10QtMobility20QOrganizerItemDetaileqERKS0_@Base 1.1.0
 _ZNK10QtMobility20QOrganizerItemFilter4typeEv@Base 1.1.0
 _ZNK10QtMobility20QOrganizerItemFiltereqERKS0_@Base 1.1.0
 _ZNK10QtMobility22QOrganizerCollectionId10managerUriEv@Base 1.1.0
 _ZNK10QtMobility22QOrganizerCollectionId6isNullEv@Base 1.1.0
 _ZNK10QtMobility22QOrganizerCollectionId8toStringEv@Base 1.1.0
 _ZNK10QtMobility22QOrganizerCollectionIdeqERKS0_@Base 1.1.0
 _ZNK10QtMobility22QOrganizerCollectionIdltERKS0_@Base 1.1.0
 _ZNK10QtMobility22QOrganizerCollectionIdneERKS0_@Base 1.1.0
 _ZNK10QtMobility22QOrganizerItemIdFilter3idsEv@Base 1.1.0
 _ZNK10QtMobility22QOrganizerItemObserver10metaObjectEv@Base 1.2.0
 _ZNK10QtMobility22QOrganizerItemObserver6itemIdEv@Base 1.2.0
 _ZNK10QtMobility22QOrganizerItemReminder12reminderTypeEv@Base 1.1.0
 _ZNK10QtMobility23QOrganizerItemChangeSet10addedItemsEv@Base 1.1.0
 _ZNK10QtMobility23QOrganizerItemChangeSet12changedItemsEv@Base 1.1.0
 _ZNK10QtMobility23QOrganizerItemChangeSet12removedItemsEv@Base 1.1.0
 _ZNK10QtMobility23QOrganizerItemFetchHint17optimizationHintsEv@Base 1.1.0
 _ZNK10QtMobility23QOrganizerItemFetchHint21detailDefinitionsHintEv@Base 1.1.0
 _ZNK10QtMobility23QOrganizerItemSortOrder11blankPolicyEv@Base 1.1.0
 _ZNK10QtMobility23QOrganizerItemSortOrder15caseSensitivityEv@Base 1.1.0
 _ZNK10QtMobility23QOrganizerItemSortOrder15detailFieldNameEv@Base 1.1.0
 _ZNK10QtMobility23QOrganizerItemSortOrder20detailDefinitionNameEv@Base 1.1.0
 _ZNK10QtMobility23QOrganizerItemSortOrder7isValidEv@Base 1.1.0
 _ZNK10QtMobility23QOrganizerItemSortOrder9directionEv@Base 1.1.0
 _ZNK10QtMobility23QOrganizerItemSortOrdereqERKS0_@Base 1.1.0
 _ZNK10QtMobility23QOrganizerManagerEngine10collectionERKNS_22QOrganizerCollectionIdEPNS_17QOrganizerManager5ErrorE@Base 1.1.0
 _ZNK10QtMobility23QOrganizerManagerEngine10hasFeatureENS_17QOrganizerManager14ManagerFeatureERK7QString@Base 1.1.0
 _ZNK10QtMobility23QOrganizerManagerEngine10managerUriEv@Base 1.1.0
 _ZNK10QtMobility23QOrganizerManagerEngine10metaObjectEv@Base 1.1.0
 _ZNK10QtMobility23QOrganizerManagerEngine11collectionsEPNS_17QOrganizerManager5ErrorE@Base 1.1.0
 _ZNK10QtMobility23QOrganizerManagerEngine11managerNameEv@Base 1.1.0
 _ZNK10QtMobility23QOrganizerManagerEngine12validateItemERKNS_14QOrganizerItemEPNS_17QOrganizerManager5ErrorE@Base 1.1.0
 _ZNK10QtMobility23QOrganizerManagerEngine14compatibleItemERKNS_14QOrganizerItemEPNS_17QOrganizerManager5ErrorE@Base 1.1.0
 _ZNK10QtMobility23QOrganizerManagerEngine14itemsForExportERK9QDateTimeS3_RKNS_20QOrganizerItemFilterERK5QListINS_23QOrganizerItemSortOrderEERKNS_23QOrganizerItemFetchHintEPNS_17QOrganizerManager5ErrorE@Base 1.1.0
 _ZNK10QtMobility23QOrganizerManagerEngine15itemOccurrencesERKNS_14QOrganizerItemERK9QDateTimeS6_iRKNS_23QOrganizerItemFetchHintEPNS_17QOrganizerManager5ErrorE@Base 1.1.0
 _ZNK10QtMobility23QOrganizerManagerEngine16detailDefinitionERK7QStringS3_PNS_17QOrganizerManager5ErrorE@Base 1.1.0
 _ZNK10QtMobility23QOrganizerManagerEngine17defaultCollectionEPNS_17QOrganizerManager5ErrorE@Base 1.1.0
 _ZNK10QtMobility23QOrganizerManagerEngine17detailDefinitionsERK7QStringPNS_17QOrganizerManager5ErrorE@Base 1.1.0
 _ZNK10QtMobility23QOrganizerManagerEngine17isFilterSupportedERKNS_20QOrganizerItemFilterE@Base 1.1.0
 _ZNK10QtMobility23QOrganizerManagerEngine17managerParametersEv@Base 1.1.0
 _ZNK10QtMobility23QOrganizerManagerEngine18supportedItemTypesEv@Base 1.1.0
 _ZNK10QtMobility23QOrganizerManagerEngine18validateCollectionERKNS_20QOrganizerCollectionEPNS_17QOrganizerManager5ErrorE@Base 1.1.0
 _ZNK10QtMobility23QOrganizerManagerEngine18validateDefinitionERKNS_30QOrganizerItemDetailDefinitionEPNS_17QOrganizerManager5ErrorE@Base 1.1.0
 _ZNK10QtMobility23QOrganizerManagerEngine20compatibleCollectionERKNS_20QOrganizerCollectionEPNS_17QOrganizerManager5ErrorE@Base 1.1.0
 _ZNK10QtMobility23QOrganizerManagerEngine4itemERKNS_16QOrganizerItemIdERKNS_23QOrganizerItemFetchHintEPNS_17QOrganizerManager5ErrorE@Base 1.1.0
 _ZNK10QtMobility23QOrganizerManagerEngine5itemsERK9QDateTimeS3_RKNS_20QOrganizerItemFilterERK5QListINS_23QOrganizerItemSortOrderEERKNS_23QOrganizerItemFetchHintEPNS_17QOrganizerManager5ErrorE@Base 1.1.0
 _ZNK10QtMobility23QOrganizerManagerEngine7itemIdsERK9QDateTimeS3_RKNS_20QOrganizerItemFilterERK5QListINS_23QOrganizerItemSortOrderEEPNS_17QOrganizerManager5ErrorE@Base 1.1.0
 _ZNK10QtMobility24QOrganizerItemRecurrence14exceptionDatesEv@Base 1.1.0
 _ZNK10QtMobility24QOrganizerItemRecurrence14exceptionRulesEv@Base 1.1.0
 _ZNK10QtMobility24QOrganizerItemRecurrence15recurrenceDatesEv@Base 1.1.0
 _ZNK10QtMobility24QOrganizerItemRecurrence15recurrenceRulesEv@Base 1.1.0
 _ZNK10QtMobility24QOrganizerItemRecurrenceeqERKS0_@Base 1.1.0
 _ZNK10QtMobility24QOrganizerRecurrenceRule10daysOfWeekEv@Base 1.1.0
 _ZNK10QtMobility24QOrganizerRecurrenceRule10daysOfYearEv@Base 1.1.0
 _ZNK10QtMobility24QOrganizerRecurrenceRule10limitCountEv@Base 1.1.0
 _ZNK10QtMobility24QOrganizerRecurrenceRule11daysOfMonthEv@Base 1.1.0
 _ZNK10QtMobility24QOrganizerRecurrenceRule11weeksOfYearEv@Base 1.1.0
 _ZNK10QtMobility24QOrganizerRecurrenceRule12monthsOfYearEv@Base 1.1.0
 _ZNK10QtMobility24QOrganizerRecurrenceRule14firstDayOfWeekEv@Base 1.1.0
 _ZNK10QtMobility24QOrganizerRecurrenceRule8intervalEv@Base 1.1.0
 _ZNK10QtMobility24QOrganizerRecurrenceRule9frequencyEv@Base 1.1.0
 _ZNK10QtMobility24QOrganizerRecurrenceRule9limitDateEv@Base 1.1.0
 _ZNK10QtMobility24QOrganizerRecurrenceRule9limitTypeEv@Base 1.1.0
 _ZNK10QtMobility24QOrganizerRecurrenceRule9positionsEv@Base 1.1.0
 _ZNK10QtMobility24QOrganizerRecurrenceRuleeqERKS0_@Base 1.1.0
 _ZNK10QtMobility24QOrganizerTodoOccurrence11dueDateTimeEv@Base 1.1.0
 _ZNK10QtMobility24QOrganizerTodoOccurrence12originalDateEv@Base 1.1.0
 _ZNK10QtMobility24QOrganizerTodoOccurrence13startDateTimeEv@Base 1.1.0
 _ZNK10QtMobility24QOrganizerTodoOccurrence16finishedDateTimeEv@Base 1.1.0
 _ZNK10QtMobility24QOrganizerTodoOccurrence18progressPercentageEv@Base 1.1.0
 _ZNK10QtMobility24QOrganizerTodoOccurrence6statusEv@Base 1.1.0
 _ZNK10QtMobility24QOrganizerTodoOccurrence8parentIdEv@Base 1.1.0
 _ZNK10QtMobility24QOrganizerTodoOccurrence8priorityEv@Base 1.1.0
 _ZNK10QtMobility25QOrganizerAbstractRequest10isCanceledEv@Base 1.1.0
 _ZNK10QtMobility25QOrganizerAbstractRequest10isFinishedEv@Base 1.1.0
 _ZNK10QtMobility25QOrganizerAbstractRequest10isInactiveEv@Base 1.1.0
 _ZNK10QtMobility25QOrganizerAbstractRequest10metaObjectEv@Base 1.1.0
 (optional=templinst)_ZNK10QtMobility25QOrganizerAbstractRequest26qt_check_for_QOBJECT_macroIS0_EEvRKT_@Base 1.2.0
 _ZNK10QtMobility25QOrganizerAbstractRequest4typeEv@Base 1.1.0
 _ZNK10QtMobility25QOrganizerAbstractRequest5errorEv@Base 1.1.0
 _ZNK10QtMobility25QOrganizerAbstractRequest5stateEv@Base 1.1.0
 _ZNK10QtMobility25QOrganizerAbstractRequest7managerEv@Base 1.1.0
 _ZNK10QtMobility25QOrganizerAbstractRequest8isActiveEv@Base 1.1.0
 _ZNK10QtMobility25QOrganizerEventOccurrence11endDateTimeEv@Base 1.1.0
 _ZNK10QtMobility25QOrganizerEventOccurrence12originalDateEv@Base 1.1.0
 _ZNK10QtMobility25QOrganizerEventOccurrence13startDateTimeEv@Base 1.1.0
 _ZNK10QtMobility25QOrganizerEventOccurrence8locationEv@Base 1.1.0
 _ZNK10QtMobility25QOrganizerEventOccurrence8parentIdEv@Base 1.1.0
 _ZNK10QtMobility25QOrganizerEventOccurrence8priorityEv@Base 1.1.0
 _ZNK10QtMobility25QOrganizerItemSaveRequest10metaObjectEv@Base 1.1.0
 _ZNK10QtMobility25QOrganizerItemSaveRequest14definitionMaskEv@Base 1.2.0
 (optional=templinst)_ZNK10QtMobility25QOrganizerItemSaveRequest26qt_check_for_QOBJECT_macroIS0_EEvRKT_@Base 1.2.0
 _ZNK10QtMobility25QOrganizerItemSaveRequest5itemsEv@Base 1.1.0
 _ZNK10QtMobility25QOrganizerItemSaveRequest8errorMapEv@Base 1.1.0
 _ZNK10QtMobility25QOrganizerItemUnionFilter7filtersEv@Base 1.1.0
 _ZNK10QtMobility25QOrganizerManagerEngineV210metaObjectEv@Base 1.2.0
 _ZNK10QtMobility25QOrganizerManagerEngineV214itemsForExportERK5QListINS_16QOrganizerItemIdEERKNS_23QOrganizerItemFetchHintEP4QMapIiNS_17QOrganizerManager5ErrorEEPSB_@Base 1.2.0
 _ZNK10QtMobility25QOrganizerManagerEngineV214itemsForExportERK9QDateTimeS3_RKNS_20QOrganizerItemFilterERK5QListINS_23QOrganizerItemSortOrderEERKNS_23QOrganizerItemFetchHintEPNS_17QOrganizerManager5ErrorE@Base 1.2.0
 (optional=templinst)_ZNK10QtMobility25QOrganizerManagerEngineV226qt_check_for_QOBJECT_macroIS0_EEvRKT_@Base 1.2.0
 _ZNK10QtMobility25QOrganizerManagerEngineV25itemsERK9QDateTimeS3_RKNS_20QOrganizerItemFilterERK5QListINS_23QOrganizerItemSortOrderEERKNS_23QOrganizerItemFetchHintEPNS_17QOrganizerManager5ErrorE@Base 1.2.0
 _ZNK10QtMobility25QOrganizerManagerEngineV25itemsERK9QDateTimeS3_iRKNS_20QOrganizerItemFilterERKNS_23QOrganizerItemFetchHintEPNS_17QOrganizerManager5ErrorE@Base 1.2.0
 _ZNK10QtMobility26QOrganizerItemDetailFilter10matchFlagsEv@Base 1.1.0
 _ZNK10QtMobility26QOrganizerItemDetailFilter15detailFieldNameEv@Base 1.1.0
 _ZNK10QtMobility26QOrganizerItemDetailFilter20detailDefinitionNameEv@Base 1.1.0
 _ZNK10QtMobility26QOrganizerItemDetailFilter5valueEv@Base 1.1.0
 _ZNK10QtMobility26QOrganizerItemFetchRequest10metaObjectEv@Base 1.1.0
 (optional=templinst)_ZNK10QtMobility26QOrganizerItemFetchRequest26qt_check_for_QOBJECT_macroIS0_EEvRKT_@Base 1.2.0
 _ZNK10QtMobility26QOrganizerItemFetchRequest5itemsEv@Base 1.1.0
 _ZNK10QtMobility26QOrganizerItemFetchRequest6filterEv@Base 1.1.0
 _ZNK10QtMobility26QOrganizerItemFetchRequest7endDateEv@Base 1.1.0
 _ZNK10QtMobility26QOrganizerItemFetchRequest7sortingEv@Base 1.1.0
 _ZNK10QtMobility26QOrganizerItemFetchRequest8maxCountEv@Base 1.2.0
 _ZNK10QtMobility26QOrganizerItemFetchRequest9fetchHintEv@Base 1.1.0
 _ZNK10QtMobility26QOrganizerItemFetchRequest9startDateEv@Base 1.1.0
 _ZNK10QtMobility27QOrganizerItemRemoveRequest10metaObjectEv@Base 1.1.0
 _ZNK10QtMobility27QOrganizerItemRemoveRequest7itemIdsEv@Base 1.1.0
 _ZNK10QtMobility27QOrganizerItemRemoveRequest8errorMapEv@Base 1.1.0
 _ZNK10QtMobility28QOrganizerItemIdFetchRequest10metaObjectEv@Base 1.1.0
 _ZNK10QtMobility28QOrganizerItemIdFetchRequest6filterEv@Base 1.1.0
 _ZNK10QtMobility28QOrganizerItemIdFetchRequest7endDateEv@Base 1.1.0
 _ZNK10QtMobility28QOrganizerItemIdFetchRequest7itemIdsEv@Base 1.1.0
 _ZNK10QtMobility28QOrganizerItemIdFetchRequest7sortingEv@Base 1.1.0
 _ZNK10QtMobility28QOrganizerItemIdFetchRequest9startDateEv@Base 1.1.0
 _ZNK10QtMobility29QOrganizerCollectionChangeSet16addedCollectionsEv@Base 1.1.0
 _ZNK10QtMobility29QOrganizerCollectionChangeSet18changedCollectionsEv@Base 1.1.0
 _ZNK10QtMobility29QOrganizerCollectionChangeSet18removedCollectionsEv@Base 1.1.0
 _ZNK10QtMobility29QOrganizerItemChangeLogFilter5sinceEv@Base 1.1.0
 _ZNK10QtMobility29QOrganizerItemChangeLogFilter9eventTypeEv@Base 1.1.0
 _ZNK10QtMobility30QOrganizerItemCollectionFilter13collectionIdsEv@Base 1.1.0
 _ZNK10QtMobility30QOrganizerItemDetailDefinition4nameEv@Base 1.1.0
 _ZNK10QtMobility30QOrganizerItemDetailDefinition6fieldsEv@Base 1.1.0
 _ZNK10QtMobility30QOrganizerItemDetailDefinition7isEmptyEv@Base 1.1.0
 _ZNK10QtMobility30QOrganizerItemDetailDefinition8isUniqueEv@Base 1.1.0
 _ZNK10QtMobility30QOrganizerItemDetailDefinitioneqERKS0_@Base 1.1.0
 _ZNK10QtMobility30QOrganizerItemFetchByIdRequest10metaObjectEv@Base 1.2.0
 (optional=templinst)_ZNK10QtMobility30QOrganizerItemFetchByIdRequest26qt_check_for_QOBJECT_macroIS0_EEvRKT_@Base 1.2.0
 _ZNK10QtMobility30QOrganizerItemFetchByIdRequest3idsEv@Base 1.2.0
 _ZNK10QtMobility30QOrganizerItemFetchByIdRequest5itemsEv@Base 1.2.0
 _ZNK10QtMobility30QOrganizerItemFetchByIdRequest8errorMapEv@Base 1.2.0
 _ZNK10QtMobility30QOrganizerItemFetchByIdRequest9fetchHintEv@Base 1.2.0
 _ZNK10QtMobility30QOrganizerManagerEngineFactory31supportedImplementationVersionsEv@Base 1.1.0
 _ZNK10QtMobility31QOrganizerCollectionSaveRequest10metaObjectEv@Base 1.1.0
 _ZNK10QtMobility31QOrganizerCollectionSaveRequest11collectionsEv@Base 1.1.0
 _ZNK10QtMobility31QOrganizerCollectionSaveRequest8errorMapEv@Base 1.1.0
 _ZNK10QtMobility31QOrganizerItemDetailRangeFilter10matchFlagsEv@Base 1.1.0
 _ZNK10QtMobility31QOrganizerItemDetailRangeFilter10rangeFlagsEv@Base 1.1.0
 _ZNK10QtMobility31QOrganizerItemDetailRangeFilter15detailFieldNameEv@Base 1.1.0
 _ZNK10QtMobility31QOrganizerItemDetailRangeFilter20detailDefinitionNameEv@Base 1.1.0
 _ZNK10QtMobility31QOrganizerItemDetailRangeFilter8maxValueEv@Base 1.1.0
 _ZNK10QtMobility31QOrganizerItemDetailRangeFilter8minValueEv@Base 1.1.0
 _ZNK10QtMobility32QOrganizerCollectionFetchRequest10metaObjectEv@Base 1.1.0
 _ZNK10QtMobility32QOrganizerCollectionFetchRequest11collectionsEv@Base 1.1.0
 _ZNK10QtMobility32QOrganizerItemIntersectionFilter7filtersEv@Base 1.1.0
 _ZNK10QtMobility33QOrganizerCollectionRemoveRequest10metaObjectEv@Base 1.1.0
 _ZNK10QtMobility33QOrganizerCollectionRemoveRequest13collectionIdsEv@Base 1.1.0
 _ZNK10QtMobility33QOrganizerCollectionRemoveRequest8errorMapEv@Base 1.1.0
 _ZNK10QtMobility35QOrganizerItemDetailFieldDefinition15allowableValuesEv@Base 1.1.0
 _ZNK10QtMobility35QOrganizerItemDetailFieldDefinition8dataTypeEv@Base 1.1.0
 _ZNK10QtMobility35QOrganizerItemDetailFieldDefinitioneqERKS0_@Base 1.1.0
 _ZNK10QtMobility35QOrganizerItemDetailFieldDefinitionneERKS0_@Base 1.1.0
 _ZNK10QtMobility35QOrganizerItemFetchForExportRequest10metaObjectEv@Base 1.1.0
 (optional=templinst)_ZNK10QtMobility35QOrganizerItemFetchForExportRequest26qt_check_for_QOBJECT_macroIS0_EEvRKT_@Base 1.2.0
 _ZNK10QtMobility35QOrganizerItemFetchForExportRequest5itemsEv@Base 1.1.0
 _ZNK10QtMobility35QOrganizerItemFetchForExportRequest6filterEv@Base 1.1.0
 _ZNK10QtMobility35QOrganizerItemFetchForExportRequest7endDateEv@Base 1.1.0
 _ZNK10QtMobility35QOrganizerItemFetchForExportRequest7sortingEv@Base 1.1.0
 _ZNK10QtMobility35QOrganizerItemFetchForExportRequest9fetchHintEv@Base 1.1.0
 _ZNK10QtMobility35QOrganizerItemFetchForExportRequest9startDateEv@Base 1.1.0
 _ZNK10QtMobility36QOrganizerItemOccurrenceFetchRequest10metaObjectEv@Base 1.1.0
 _ZNK10QtMobility36QOrganizerItemOccurrenceFetchRequest10parentItemEv@Base 1.1.0
 _ZNK10QtMobility36QOrganizerItemOccurrenceFetchRequest14maxOccurrencesEv@Base 1.1.0
 _ZNK10QtMobility36QOrganizerItemOccurrenceFetchRequest15itemOccurrencesEv@Base 1.1.0
 _ZNK10QtMobility36QOrganizerItemOccurrenceFetchRequest7endDateEv@Base 1.1.0
 _ZNK10QtMobility36QOrganizerItemOccurrenceFetchRequest9fetchHintEv@Base 1.1.0
 _ZNK10QtMobility36QOrganizerItemOccurrenceFetchRequest9startDateEv@Base 1.1.0
 _ZNK10QtMobility41QOrganizerItemDetailDefinitionSaveRequest10metaObjectEv@Base 1.1.0
 _ZNK10QtMobility41QOrganizerItemDetailDefinitionSaveRequest11definitionsEv@Base 1.1.0
 _ZNK10QtMobility41QOrganizerItemDetailDefinitionSaveRequest8errorMapEv@Base 1.1.0
 _ZNK10QtMobility41QOrganizerItemDetailDefinitionSaveRequest8itemTypeEv@Base 1.1.0
 _ZNK10QtMobility42QOrganizerItemDetailDefinitionFetchRequest10metaObjectEv@Base 1.1.0
 _ZNK10QtMobility42QOrganizerItemDetailDefinitionFetchRequest11definitionsEv@Base 1.1.0
 _ZNK10QtMobility42QOrganizerItemDetailDefinitionFetchRequest15definitionNamesEv@Base 1.1.0
 _ZNK10QtMobility42QOrganizerItemDetailDefinitionFetchRequest8errorMapEv@Base 1.1.0
 _ZNK10QtMobility42QOrganizerItemDetailDefinitionFetchRequest8itemTypeEv@Base 1.1.0
 _ZNK10QtMobility43QOrganizerItemDetailDefinitionRemoveRequest10metaObjectEv@Base 1.1.0
 _ZNK10QtMobility43QOrganizerItemDetailDefinitionRemoveRequest15definitionNamesEv@Base 1.1.0
 _ZNK10QtMobility43QOrganizerItemDetailDefinitionRemoveRequest8errorMapEv@Base 1.1.0
 _ZNK10QtMobility43QOrganizerItemDetailDefinitionRemoveRequest8itemTypeEv@Base 1.1.0
 _ZNK7QString3argERKS_S1_@Base 1.1.0
 _ZNK7QString3argERKS_S1_S1_@Base 1.1.0
 _ZNK7QString3argEiiiRK5QChar@Base 1.1.0
 (optional=templinst)_ZNK8QVariant5valueI9QDateTimeEET_v@Base 1.1.0
 (optional=templinst)_ZNK8QVariant5valueIN10QtMobility16QOrganizerItemIdEEET_v@Base 1.1.0
 (optional=templinst)_ZNK8QVariant5valueIbEET_v@Base 1.1.0
 (optional=templinst)_ZNK8QVariant5valueIiEET_v@Base 1.1.0
 _ZSt4swapI9QDateTimeEvRT_S2_@Base 1.2.0
 _ZSt4swapIN10QtMobility14QOrganizerItemEEvRT_S3_@Base 1.2.0
 _ZSt4swapIN10QtMobility20QOrganizerItemDetailEEvRT_S3_@Base 1.2.0
 _ZTI11QSharedData@Base 1.1.0
 _ZTIN10QtMobility17QOrganizerManagerE@Base 1.1.0
 _ZTIN10QtMobility22QOrganizerItemEngineIdE@Base 1.1.0
 _ZTIN10QtMobility22QOrganizerItemObserverE@Base 1.2.0
 _ZTIN10QtMobility23QOrganizerManagerEngineE@Base 1.1.0
 _ZTIN10QtMobility25QOrganizerAbstractRequestE@Base 1.1.0
 _ZTIN10QtMobility25QOrganizerItemSaveRequestE@Base 1.1.0
 _ZTIN10QtMobility25QOrganizerManagerEngineV2E@Base 1.2.0
 _ZTIN10QtMobility26QOrganizerItemFetchRequestE@Base 1.1.0
 _ZTIN10QtMobility27QOrganizerItemRemoveRequestE@Base 1.1.0
 _ZTIN10QtMobility28QOrganizerCollectionEngineIdE@Base 1.1.0
 _ZTIN10QtMobility28QOrganizerItemIdFetchRequestE@Base 1.1.0
 _ZTIN10QtMobility30QOrganizerItemFetchByIdRequestE@Base 1.2.0
 _ZTIN10QtMobility30QOrganizerManagerEngineFactoryE@Base 1.1.0
 _ZTIN10QtMobility31QOrganizerCollectionSaveRequestE@Base 1.1.0
 _ZTIN10QtMobility32QOrganizerCollectionFetchRequestE@Base 1.1.0
 _ZTIN10QtMobility33QOrganizerCollectionRemoveRequestE@Base 1.1.0
 _ZTIN10QtMobility35QOrganizerItemFetchForExportRequestE@Base 1.1.0
 _ZTIN10QtMobility36QOrganizerItemOccurrenceFetchRequestE@Base 1.1.0
 _ZTIN10QtMobility41QOrganizerItemDetailDefinitionSaveRequestE@Base 1.1.0
 _ZTIN10QtMobility42QOrganizerItemDetailDefinitionFetchRequestE@Base 1.1.0
 _ZTIN10QtMobility43QOrganizerItemDetailDefinitionRemoveRequestE@Base 1.1.0
 _ZTS11QSharedData@Base 1.1.0
 _ZTSN10QtMobility17QOrganizerManagerE@Base 1.1.0
 _ZTSN10QtMobility22QOrganizerItemEngineIdE@Base 1.1.0
 _ZTSN10QtMobility22QOrganizerItemObserverE@Base 1.2.0
 _ZTSN10QtMobility23QOrganizerManagerEngineE@Base 1.1.0
 _ZTSN10QtMobility25QOrganizerAbstractRequestE@Base 1.1.0
 _ZTSN10QtMobility25QOrganizerItemSaveRequestE@Base 1.1.0
 _ZTSN10QtMobility25QOrganizerManagerEngineV2E@Base 1.2.0
 _ZTSN10QtMobility26QOrganizerItemFetchRequestE@Base 1.1.0
 _ZTSN10QtMobility27QOrganizerItemRemoveRequestE@Base 1.1.0
 _ZTSN10QtMobility28QOrganizerCollectionEngineIdE@Base 1.1.0
 _ZTSN10QtMobility28QOrganizerItemIdFetchRequestE@Base 1.1.0
 _ZTSN10QtMobility30QOrganizerItemFetchByIdRequestE@Base 1.2.0
 _ZTSN10QtMobility30QOrganizerManagerEngineFactoryE@Base 1.1.0
 _ZTSN10QtMobility31QOrganizerCollectionSaveRequestE@Base 1.1.0
 _ZTSN10QtMobility32QOrganizerCollectionFetchRequestE@Base 1.1.0
 _ZTSN10QtMobility33QOrganizerCollectionRemoveRequestE@Base 1.1.0
 _ZTSN10QtMobility35QOrganizerItemFetchForExportRequestE@Base 1.1.0
 _ZTSN10QtMobility36QOrganizerItemOccurrenceFetchRequestE@Base 1.1.0
 _ZTSN10QtMobility41QOrganizerItemDetailDefinitionSaveRequestE@Base 1.1.0
 _ZTSN10QtMobility42QOrganizerItemDetailDefinitionFetchRequestE@Base 1.1.0
 _ZTSN10QtMobility43QOrganizerItemDetailDefinitionRemoveRequestE@Base 1.1.0
 _ZTVN10QtMobility17QOrganizerManagerE@Base 1.1.0
 _ZTVN10QtMobility22QOrganizerItemEngineIdE@Base 1.1.0
 _ZTVN10QtMobility22QOrganizerItemObserverE@Base 1.2.0
 _ZTVN10QtMobility23QOrganizerManagerEngineE@Base 1.1.0
 _ZTVN10QtMobility25QOrganizerAbstractRequestE@Base 1.1.0
 _ZTVN10QtMobility25QOrganizerItemSaveRequestE@Base 1.1.0
 _ZTVN10QtMobility25QOrganizerManagerEngineV2E@Base 1.2.0
 _ZTVN10QtMobility26QOrganizerItemFetchRequestE@Base 1.1.0
 _ZTVN10QtMobility27QOrganizerItemRemoveRequestE@Base 1.1.0
 _ZTVN10QtMobility28QOrganizerCollectionEngineIdE@Base 1.1.0
 _ZTVN10QtMobility28QOrganizerItemIdFetchRequestE@Base 1.1.0
 _ZTVN10QtMobility30QOrganizerItemFetchByIdRequestE@Base 1.2.0
 _ZTVN10QtMobility30QOrganizerManagerEngineFactoryE@Base 1.1.0
 _ZTVN10QtMobility31QOrganizerCollectionSaveRequestE@Base 1.1.0
 _ZTVN10QtMobility32QOrganizerCollectionFetchRequestE@Base 1.1.0
 _ZTVN10QtMobility33QOrganizerCollectionRemoveRequestE@Base 1.1.0
 _ZTVN10QtMobility35QOrganizerItemFetchForExportRequestE@Base 1.1.0
 _ZTVN10QtMobility36QOrganizerItemOccurrenceFetchRequestE@Base 1.1.0
 _ZTVN10QtMobility41QOrganizerItemDetailDefinitionSaveRequestE@Base 1.1.0
 _ZTVN10QtMobility42QOrganizerItemDetailDefinitionFetchRequestE@Base 1.1.0
 _ZTVN10QtMobility43QOrganizerItemDetailDefinitionRemoveRequestE@Base 1.1.0
