# SymbolsHelper-Confirmed: 1.2.0 amd64 armhf powerpc
libQtContacts.so.1 libqtcontacts1 #MINVER#
 _Z6qDebugv@Base 1.1.0
 _Z8qWarningv@Base 1.1.0
 _ZN10QByteArray4dataEv@Base 1.1.0
 _ZN10QtMobility10QContactId10setLocalIdERKj@Base 1.1.0
 _ZN10QtMobility10QContactId13setManagerUriERK7QString@Base 1.1.0
 _ZN10QtMobility10QContactIdC1ERKS0_@Base 1.1.0
 _ZN10QtMobility10QContactIdC1Ev@Base 1.1.0
 _ZN10QtMobility10QContactIdC2ERKS0_@Base 1.1.0
 _ZN10QtMobility10QContactIdC2Ev@Base 1.1.0
 _ZN10QtMobility10QContactIdD1Ev@Base 1.1.0
 _ZN10QtMobility10QContactIdD2Ev@Base 1.1.0
 _ZN10QtMobility10QContactIdaSERKS0_@Base 1.1.0
 _ZN10QtMobility11QContactTag14DefinitionNameE@Base 1.1.0
 _ZN10QtMobility11QContactTag5matchERK7QString@Base 1.2.0
 _ZN10QtMobility11QContactTag8FieldTagE@Base 1.1.0
 _ZN10QtMobility11QContactTagC1ERKS0_@Base 1.2.0
 _ZN10QtMobility11QContactTagC2ERKS0_@Base 1.2.0
 _ZN10QtMobility11QContactTagD1Ev@Base 1.2.0
 _ZN10QtMobility11QContactTagD2Ev@Base 1.2.0
 _ZN10QtMobility11QContactUrl11SubTypeBlogE@Base 1.1.0
 _ZN10QtMobility11QContactUrl12FieldSubTypeE@Base 1.1.0
 _ZN10QtMobility11QContactUrl14DefinitionNameE@Base 1.1.0
 _ZN10QtMobility11QContactUrl15SubTypeHomePageE@Base 1.1.0
 _ZN10QtMobility11QContactUrl16SubTypeFavouriteE@Base 1.1.0
 _ZN10QtMobility11QContactUrl8FieldUrlE@Base 1.1.0
 _ZN10QtMobility12QContactGuid14DefinitionNameE@Base 1.1.0
 _ZN10QtMobility12QContactGuid9FieldGuidE@Base 1.1.0
 _ZN10QtMobility12QContactName11FieldPrefixE@Base 1.1.0
 _ZN10QtMobility12QContactName11FieldSuffixE@Base 1.1.0
 _ZN10QtMobility12QContactName13FieldLastNameE@Base 1.1.0
 _ZN10QtMobility12QContactName14DefinitionNameE@Base 1.1.0
 _ZN10QtMobility12QContactName14FieldFirstNameE@Base 1.1.0
 _ZN10QtMobility12QContactName15FieldMiddleNameE@Base 1.1.0
 _ZN10QtMobility12QContactName16FieldCustomLabelE@Base 1.1.0
 _ZN10QtMobility12QContactName5matchERK7QString@Base 1.1.0
 _ZN10QtMobility12QContactName5matchERK7QStringS3_@Base 1.1.0
 _ZN10QtMobility12QContactNameD1Ev@Base 1.2.0
 _ZN10QtMobility12QContactNameD2Ev@Base 1.2.0
 _ZN10QtMobility12QContactNote14DefinitionNameE@Base 1.1.0
 _ZN10QtMobility12QContactNote9FieldNoteE@Base 1.1.0
 _ZN10QtMobility12QContactType11TypeContactE@Base 1.1.0
 _ZN10QtMobility12QContactType14DefinitionNameE@Base 1.1.0
 _ZN10QtMobility12QContactType9FieldTypeE@Base 1.1.0
 _ZN10QtMobility12QContactType9TypeGroupE@Base 1.1.0
 _ZN10QtMobility12QContactTypeD1Ev@Base 1.2.0
 _ZN10QtMobility12QContactTypeD2Ev@Base 1.2.0
 _ZN10QtMobility13QContactHobby10FieldHobbyE@Base 1.1.0
 _ZN10QtMobility13QContactHobby14DefinitionNameE@Base 1.1.0
 _ZN10QtMobility14QContactAction10ActionCallE@Base 1.1.0
 _ZN10QtMobility14QContactAction10ActionChatE@Base 1.1.0
 _ZN10QtMobility14QContactAction11ActionEmailE@Base 1.1.0
 _ZN10QtMobility14QContactAction11qt_metacallEN11QMetaObject4CallEiPPv@Base 1.1.0
 _ZN10QtMobility14QContactAction11qt_metacastEPKc@Base 1.1.0
 _ZN10QtMobility14QContactAction12stateChangedENS0_5StateE@Base 1.1.0
 _ZN10QtMobility14QContactAction15ActionVideoCallE@Base 1.1.0
 _ZN10QtMobility14QContactAction16availableActionsERK7QString@Base 1.1.0
 _ZN10QtMobility14QContactAction16resultsAvailableEv@Base 1.1.0
 _ZN10QtMobility14QContactAction16staticMetaObjectE@Base 1.1.0
 _ZN10QtMobility14QContactAction17actionDescriptorsERK7QString@Base 1.1.0
 _ZN10QtMobility14QContactAction18ActionOpenInEditorE@Base 1.1.0
 _ZN10QtMobility14QContactAction18ActionOpenInViewerE@Base 1.1.0
 _ZN10QtMobility14QContactAction6actionERKNS_24QContactActionDescriptorE@Base 1.1.0
 _ZN10QtMobility14QContactAction9ActionMmsE@Base 1.1.0
 _ZN10QtMobility14QContactAction9ActionSmsE@Base 1.1.0
 _ZN10QtMobility14QContactActionD0Ev@Base 1.1.0
 _ZN10QtMobility14QContactActionD1Ev@Base 1.1.0
 _ZN10QtMobility14QContactActionD2Ev@Base 1.1.0
 _ZN10QtMobility14QContactAvatar13FieldImageUrlE@Base 1.1.0
 _ZN10QtMobility14QContactAvatar13FieldVideoUrlE@Base 1.1.0
 _ZN10QtMobility14QContactAvatar14DefinitionNameE@Base 1.1.0
 _ZN10QtMobility14QContactDetail11ContextHomeE@Base 1.1.0
 _ZN10QtMobility14QContactDetail11ContextWorkE@Base 1.1.0
 _ZN10QtMobility14QContactDetail11removeValueEPKc@Base 1.1.0
 _ZN10QtMobility14QContactDetail11removeValueERK7QString@Base 1.1.0
 _ZN10QtMobility14QContactDetail12ContextOtherE@Base 1.1.0
 _ZN10QtMobility14QContactDetail12FieldContextE@Base 1.1.0
 _ZN10QtMobility14QContactDetail14FieldDetailUriE@Base 1.1.0
 _ZN10QtMobility14QContactDetail21FieldLinkedDetailUrisE@Base 1.1.0
 _ZN10QtMobility14QContactDetail6assignERKS0_PKc@Base 1.1.0
 _ZN10QtMobility14QContactDetail6assignERKS0_RK7QString@Base 1.1.0
 _ZN10QtMobility14QContactDetail8resetKeyEv@Base 1.1.0
 _ZN10QtMobility14QContactDetail8setValueEPKcRK8QVariant@Base 1.1.0
 _ZN10QtMobility14QContactDetail8setValueERK7QStringRK8QVariant@Base 1.1.0
 (optional=templinst)_ZN10QtMobility14QContactDetail8setValueILi18EEEbRKNS_15QLatin1ConstantIXT_EEERK8QVariant@Base 1.1.0
 (optional=templinst)_ZN10QtMobility14QContactDetail8setValueILi22EEEbRKNS_15QLatin1ConstantIXT_EEERK8QVariant@Base 1.1.0
 (optional=templinst)_ZN10QtMobility14QContactDetail8setValueILi4EEEbRKNS_15QLatin1ConstantIXT_EEERK8QVariant@Base 1.2.0
 (optional=templinst)_ZN10QtMobility14QContactDetail8setValueILi5EEEbRKNS_15QLatin1ConstantIXT_EEERK8QVariant@Base 1.1.0
 (optional=templinst)_ZN10QtMobility14QContactDetail8setValueILi6EEEbRKNS_15QLatin1ConstantIXT_EEERK8QVariant@Base 1.1.0
 _ZN10QtMobility14QContactDetailC1EPKc@Base 1.1.0
 _ZN10QtMobility14QContactDetailC1ERK7QString@Base 1.1.0
 _ZN10QtMobility14QContactDetailC1ERKS0_@Base 1.1.0
 _ZN10QtMobility14QContactDetailC1ERKS0_PKc@Base 1.1.0
 _ZN10QtMobility14QContactDetailC1ERKS0_RK7QString@Base 1.1.0
 _ZN10QtMobility14QContactDetailC1Ev@Base 1.1.0
 _ZN10QtMobility14QContactDetailC2EPKc@Base 1.1.0
 _ZN10QtMobility14QContactDetailC2ERK7QString@Base 1.1.0
 _ZN10QtMobility14QContactDetailC2ERKS0_@Base 1.1.0
 _ZN10QtMobility14QContactDetailC2ERKS0_PKc@Base 1.1.0
 _ZN10QtMobility14QContactDetailC2ERKS0_RK7QString@Base 1.1.0
 _ZN10QtMobility14QContactDetailC2Ev@Base 1.1.0
 _ZN10QtMobility14QContactDetailD1Ev@Base 1.1.0
 _ZN10QtMobility14QContactDetailD2Ev@Base 1.1.0
 _ZN10QtMobility14QContactDetailaSERKS0_@Base 1.1.0
 _ZN10QtMobility14QContactFamily11FieldSpouseE@Base 1.1.0
 _ZN10QtMobility14QContactFamily13FieldChildrenE@Base 1.1.0
 _ZN10QtMobility14QContactFamily14DefinitionNameE@Base 1.1.0
 _ZN10QtMobility14QContactFilterC1EPNS_21QContactFilterPrivateE@Base 1.1.0
 _ZN10QtMobility14QContactFilterC1ERKS0_@Base 1.1.0
 _ZN10QtMobility14QContactFilterC1Ev@Base 1.1.0
 _ZN10QtMobility14QContactFilterC2EPNS_21QContactFilterPrivateE@Base 1.1.0
 _ZN10QtMobility14QContactFilterC2ERKS0_@Base 1.1.0
 _ZN10QtMobility14QContactFilterC2Ev@Base 1.1.0
 _ZN10QtMobility14QContactFilterD1Ev@Base 1.1.0
 _ZN10QtMobility14QContactFilterD2Ev@Base 1.1.0
 _ZN10QtMobility14QContactFilteraSERKS0_@Base 1.1.0
 _ZN10QtMobility14QContactGender10GenderMaleE@Base 1.1.0
 _ZN10QtMobility14QContactGender11FieldGenderE@Base 1.1.0
 _ZN10QtMobility14QContactGender12GenderFemaleE@Base 1.1.0
 _ZN10QtMobility14QContactGender14DefinitionNameE@Base 1.1.0
 _ZN10QtMobility14QContactGender17GenderUnspecifiedE@Base 1.1.0
 _ZN10QtMobility15QContactAddress11FieldRegionE@Base 1.1.0
 _ZN10QtMobility15QContactAddress11FieldStreetE@Base 1.1.0
 _ZN10QtMobility15QContactAddress12FieldCountryE@Base 1.1.0
 _ZN10QtMobility15QContactAddress13FieldLocalityE@Base 1.1.0
 _ZN10QtMobility15QContactAddress13FieldPostcodeE@Base 1.1.0
 _ZN10QtMobility15QContactAddress13FieldSubTypesE@Base 1.1.0
 _ZN10QtMobility15QContactAddress13SubTypeParcelE@Base 1.1.0
 _ZN10QtMobility15QContactAddress13SubTypePostalE@Base 1.1.0
 _ZN10QtMobility15QContactAddress14DefinitionNameE@Base 1.1.0
 _ZN10QtMobility15QContactAddress15SubTypeDomesticE@Base 1.1.0
 _ZN10QtMobility15QContactAddress18FieldPostOfficeBoxE@Base 1.1.0
 _ZN10QtMobility15QContactAddress20SubTypeInternationalE@Base 1.1.0
 _ZN10QtMobility15QContactAddress5matchERK7QString@Base 1.2.0
 _ZN10QtMobility15QContactManager11dataChangedEv@Base 1.1.0
 _ZN10QtMobility15QContactManager11qt_metacallEN11QMetaObject4CallEiPPv@Base 1.1.0
 _ZN10QtMobility15QContactManager11qt_metacastEPKc@Base 1.1.0
 _ZN10QtMobility15QContactManager11saveContactEPNS_8QContactE@Base 1.1.0
 _ZN10QtMobility15QContactManager12createEngineERK7QStringRK4QMapIS1_S1_E@Base 1.1.0
 _ZN10QtMobility15QContactManager12saveContactsEP5QListINS_8QContactEEP4QMapIiNS0_5ErrorEE@Base 1.1.0
 _ZN10QtMobility15QContactManager12saveContactsEP5QListINS_8QContactEERK11QStringListP4QMapIiNS0_5ErrorEE@Base 1.1.0
 _ZN10QtMobility15QContactManager13connectNotifyEPKc@Base 1.2.0
 _ZN10QtMobility15QContactManager13contactsAddedERK5QListIjE@Base 1.1.0
 _ZN10QtMobility15QContactManager13removeContactERKj@Base 1.1.0
 _ZN10QtMobility15QContactManager14removeContactsERK5QListIjEP4QMapIiNS0_5ErrorEE@Base 1.1.0
 _ZN10QtMobility15QContactManager15contactsChangedERK5QListIjE@Base 1.1.0
 _ZN10QtMobility15QContactManager15contactsRemovedERK5QListIjE@Base 1.1.0
 _ZN10QtMobility15QContactManager16disconnectNotifyEPKc@Base 1.2.0
 _ZN10QtMobility15QContactManager16saveRelationshipEPNS_20QContactRelationshipE@Base 1.1.0
 _ZN10QtMobility15QContactManager16setSelfContactIdERKj@Base 1.1.0
 _ZN10QtMobility15QContactManager16staticMetaObjectE@Base 1.1.0
 _ZN10QtMobility15QContactManager17availableManagersEv@Base 1.1.0
 _ZN10QtMobility15QContactManager17compatibleContactERKNS_8QContactE@Base 1.1.0
 _ZN10QtMobility15QContactManager17saveRelationshipsEP5QListINS_20QContactRelationshipEEP4QMapIiNS0_5ErrorEE@Base 1.1.0
 _ZN10QtMobility15QContactManager18relationshipsAddedERK5QListIjE@Base 1.1.0
 _ZN10QtMobility15QContactManager18removeRelationshipERKNS_20QContactRelationshipE@Base 1.1.0
 _ZN10QtMobility15QContactManager19removeRelationshipsERK5QListINS_20QContactRelationshipEEP4QMapIiNS0_5ErrorEE@Base 1.1.0
 _ZN10QtMobility15QContactManager20relationshipsRemovedERK5QListIjE@Base 1.1.0
 _ZN10QtMobility15QContactManager20saveDetailDefinitionERKNS_24QContactDetailDefinitionERK7QString@Base 1.1.0
 _ZN10QtMobility15QContactManager20selfContactIdChangedERKjS2_@Base 1.1.0
 _ZN10QtMobility15QContactManager22ParameterSignalSourcesE@Base 1.1.0
 _ZN10QtMobility15QContactManager22removeDetailDefinitionERK7QStringS3_@Base 1.1.0
 _ZN10QtMobility15QContactManager26ParameterSignalDefinitionsE@Base 1.1.0
 _ZN10QtMobility15QContactManager31ParameterValueOnlyOtherManagersE@Base 1.1.0
 _ZN10QtMobility15QContactManager32ParameterValueOnlyOtherProcessesE@Base 1.1.0
 _ZN10QtMobility15QContactManager7fromUriERK7QStringP7QObject@Base 1.1.0
 _ZN10QtMobility15QContactManager8buildUriERK7QStringRK4QMapIS1_S1_Ei@Base 1.1.0
 _ZN10QtMobility15QContactManager8parseUriERK7QStringPS1_P4QMapIS1_S1_E@Base 1.1.0
 _ZN10QtMobility15QContactManagerC1EP7QObject@Base 1.1.0
 _ZN10QtMobility15QContactManagerC1ERK7QStringRK4QMapIS1_S1_EP7QObject@Base 1.1.0
 _ZN10QtMobility15QContactManagerC1ERK7QStringiRK4QMapIS1_S1_EP7QObject@Base 1.1.0
 _ZN10QtMobility15QContactManagerC2EP7QObject@Base 1.1.0
 _ZN10QtMobility15QContactManagerC2ERK7QStringRK4QMapIS1_S1_EP7QObject@Base 1.1.0
 _ZN10QtMobility15QContactManagerC2ERK7QStringiRK4QMapIS1_S1_EP7QObject@Base 1.1.0
 _ZN10QtMobility15QContactManagerD0Ev@Base 1.1.0
 _ZN10QtMobility15QContactManagerD1Ev@Base 1.1.0
 _ZN10QtMobility15QContactManagerD2Ev@Base 1.1.0
 _ZN10QtMobility16QContactBirthday13FieldBirthdayE@Base 1.1.0
 _ZN10QtMobility16QContactBirthday14DefinitionNameE@Base 1.1.0
 _ZN10QtMobility16QContactBirthday15FieldCalendarIdE@Base 1.1.0
 _ZN10QtMobility16QContactFavorite10FieldIndexE@Base 1.1.0
 _ZN10QtMobility16QContactFavorite13FieldFavoriteE@Base 1.1.0
 _ZN10QtMobility16QContactFavorite14DefinitionNameE@Base 1.1.0
 _ZN10QtMobility16QContactFavorite5matchEv@Base 1.2.0
 _ZN10QtMobility16QContactNickname13FieldNicknameE@Base 1.1.0
 _ZN10QtMobility16QContactNickname14DefinitionNameE@Base 1.1.0
 _ZN10QtMobility16QContactObserver11qt_metacallEN11QMetaObject4CallEiPPv@Base 1.2.0
 _ZN10QtMobility16QContactObserver11qt_metacastEPKc@Base 1.2.0
 _ZN10QtMobility16QContactObserver14contactChangedEv@Base 1.2.0
 _ZN10QtMobility16QContactObserver14contactRemovedEv@Base 1.2.0
 _ZN10QtMobility16QContactObserver16staticMetaObjectE@Base 1.2.0
 _ZN10QtMobility16QContactObserverC1EPNS_15QContactManagerEjP7QObject@Base 1.2.0
 _ZN10QtMobility16QContactObserverC2EPNS_15QContactManagerEjP7QObject@Base 1.2.0
 _ZN10QtMobility16QContactObserverD0Ev@Base 1.2.0
 _ZN10QtMobility16QContactObserverD1Ev@Base 1.2.0
 _ZN10QtMobility16QContactObserverD2Ev@Base 1.2.0
 _ZN10QtMobility16QContactPresence13FieldNicknameE@Base 1.1.0
 _ZN10QtMobility16QContactPresence14DefinitionNameE@Base 1.1.0
 _ZN10QtMobility16QContactPresence14FieldTimestampE@Base 1.1.0
 _ZN10QtMobility16QContactPresence18FieldCustomMessageE@Base 1.1.0
 _ZN10QtMobility16QContactPresence18FieldPresenceStateE@Base 1.1.0
 _ZN10QtMobility16QContactPresence22FieldPresenceStateTextE@Base 1.1.0
 _ZN10QtMobility16QContactPresence26FieldPresenceStateImageUrlE@Base 1.1.0
 _ZN10QtMobility16QContactRingtone14DefinitionNameE@Base 1.1.0
 _ZN10QtMobility16QContactRingtone21FieldAudioRingtoneUrlE@Base 1.1.0
 _ZN10QtMobility16QContactRingtone21FieldVideoRingtoneUrlE@Base 1.1.0
 _ZN10QtMobility16QContactRingtone25FieldVibrationRingtoneUrlE@Base 1.1.0
 _ZN10QtMobility17QContactChangeSet11dataChangedEv@Base 1.1.0
 _ZN10QtMobility17QContactChangeSet11emitSignalsEPNS_21QContactManagerEngineE@Base 1.1.0
 _ZN10QtMobility17QContactChangeSet14setDataChangedEb@Base 1.1.0
 _ZN10QtMobility17QContactChangeSet18clearAddedContactsEv@Base 1.1.0
 _ZN10QtMobility17QContactChangeSet18insertAddedContactEj@Base 1.1.0
 _ZN10QtMobility17QContactChangeSet19insertAddedContactsERK5QListIjE@Base 1.1.0
 _ZN10QtMobility17QContactChangeSet20clearChangedContactsEv@Base 1.1.0
 _ZN10QtMobility17QContactChangeSet20clearRemovedContactsEv@Base 1.1.0
 _ZN10QtMobility17QContactChangeSet20insertChangedContactEj@Base 1.1.0
 _ZN10QtMobility17QContactChangeSet20insertRemovedContactEj@Base 1.1.0
 _ZN10QtMobility17QContactChangeSet21insertChangedContactsERK5QListIjE@Base 1.1.0
 _ZN10QtMobility17QContactChangeSet21insertRemovedContactsERK5QListIjE@Base 1.1.0
 _ZN10QtMobility17QContactChangeSet25setOldAndNewSelfContactIdERK5QPairIjjE@Base 1.1.0
 _ZN10QtMobility17QContactChangeSet31clearAddedRelationshipsContactsEv@Base 1.1.0
 _ZN10QtMobility17QContactChangeSet31insertAddedRelationshipsContactEj@Base 1.1.0
 _ZN10QtMobility17QContactChangeSet32insertAddedRelationshipsContactsERK5QListIjE@Base 1.1.0
 _ZN10QtMobility17QContactChangeSet33clearRemovedRelationshipsContactsEv@Base 1.1.0
 _ZN10QtMobility17QContactChangeSet33insertRemovedRelationshipsContactEj@Base 1.1.0
 _ZN10QtMobility17QContactChangeSet34insertRemovedRelationshipsContactsERK5QListIjE@Base 1.1.0
 _ZN10QtMobility17QContactChangeSet8clearAllEv@Base 1.1.0
 _ZN10QtMobility17QContactChangeSetC1ERKS0_@Base 1.1.0
 _ZN10QtMobility17QContactChangeSetC1Ev@Base 1.1.0
 _ZN10QtMobility17QContactChangeSetC2ERKS0_@Base 1.1.0
 _ZN10QtMobility17QContactChangeSetC2Ev@Base 1.1.0
 _ZN10QtMobility17QContactChangeSetD1Ev@Base 1.1.0
 _ZN10QtMobility17QContactChangeSetD2Ev@Base 1.1.0
 _ZN10QtMobility17QContactChangeSetaSERKS0_@Base 1.1.0
 _ZN10QtMobility17QContactFetchHint15setMaxCountHintEi@Base 1.2.0
 _ZN10QtMobility17QContactFetchHint20setOptimizationHintsE6QFlagsINS0_16OptimizationHintEE@Base 1.1.0
 _ZN10QtMobility17QContactFetchHint21setPreferredImageSizeERK5QSize@Base 1.1.0
 _ZN10QtMobility17QContactFetchHint24setDetailDefinitionsHintERK11QStringList@Base 1.1.0
 _ZN10QtMobility17QContactFetchHint24setRelationshipTypesHintERK11QStringList@Base 1.1.0
 _ZN10QtMobility17QContactFetchHintC1ERKS0_@Base 1.1.0
 _ZN10QtMobility17QContactFetchHintC1Ev@Base 1.1.0
 _ZN10QtMobility17QContactFetchHintC2ERKS0_@Base 1.1.0
 _ZN10QtMobility17QContactFetchHintC2Ev@Base 1.1.0
 _ZN10QtMobility17QContactFetchHintD1Ev@Base 1.1.0
 _ZN10QtMobility17QContactFetchHintD2Ev@Base 1.1.0
 _ZN10QtMobility17QContactFetchHintaSERKS0_@Base 1.1.0
 _ZN10QtMobility17QContactSortOrder12setDirectionEN2Qt9SortOrderE@Base 1.1.0
 _ZN10QtMobility17QContactSortOrder14setBlankPolicyENS0_11BlankPolicyE@Base 1.1.0
 _ZN10QtMobility17QContactSortOrder18setCaseSensitivityEN2Qt15CaseSensitivityE@Base 1.1.0
 _ZN10QtMobility17QContactSortOrder23setDetailDefinitionNameERK7QStringS3_@Base 1.1.0
 _ZN10QtMobility17QContactSortOrderC1ERKS0_@Base 1.1.0
 _ZN10QtMobility17QContactSortOrderC1Ev@Base 1.1.0
 _ZN10QtMobility17QContactSortOrderC2ERKS0_@Base 1.1.0
 _ZN10QtMobility17QContactSortOrderC2Ev@Base 1.1.0
 _ZN10QtMobility17QContactSortOrderD1Ev@Base 1.1.0
 _ZN10QtMobility17QContactSortOrderD2Ev@Base 1.1.0
 _ZN10QtMobility17QContactSortOrderaSERKS0_@Base 1.1.0
 _ZN10QtMobility17QContactThumbnail14DefinitionNameE@Base 1.1.0
 _ZN10QtMobility17QContactThumbnail14FieldThumbnailE@Base 1.1.0
 _ZN10QtMobility17QContactTimestamp14DefinitionNameE@Base 1.1.0
 _ZN10QtMobility17QContactTimestamp22FieldCreationTimestampE@Base 1.1.0
 _ZN10QtMobility17QContactTimestamp26FieldModificationTimestampE@Base 1.1.0
 _ZN10QtMobility17QContactTimestampD1Ev@Base 1.2.0
 _ZN10QtMobility17QContactTimestampD2Ev@Base 1.2.0
 _ZN10QtMobility18QContactSyncTarget14DefinitionNameE@Base 1.1.0
 _ZN10QtMobility18QContactSyncTarget15FieldSyncTargetE@Base 1.1.0
 _ZN10QtMobility19QContactAnniversary10FieldEventE@Base 1.1.0
 _ZN10QtMobility19QContactAnniversary12FieldSubTypeE@Base 1.1.0
 _ZN10QtMobility19QContactAnniversary12SubTypeHouseE@Base 1.1.0
 _ZN10QtMobility19QContactAnniversary14DefinitionNameE@Base 1.1.0
 _ZN10QtMobility19QContactAnniversary14SubTypeWeddingE@Base 1.1.0
 _ZN10QtMobility19QContactAnniversary15FieldCalendarIdE@Base 1.1.0
 _ZN10QtMobility19QContactAnniversary15SubTypeMemorialE@Base 1.1.0
 _ZN10QtMobility19QContactAnniversary17FieldOriginalDateE@Base 1.1.0
 _ZN10QtMobility19QContactAnniversary17SubTypeEmploymentE@Base 1.1.0
 _ZN10QtMobility19QContactAnniversary17SubTypeEngagementE@Base 1.1.0
 _ZN10QtMobility19QContactGeoLocation10FieldLabelE@Base 1.1.0
 _ZN10QtMobility19QContactGeoLocation10FieldSpeedE@Base 1.1.0
 _ZN10QtMobility19QContactGeoLocation12FieldHeadingE@Base 1.1.0
 _ZN10QtMobility19QContactGeoLocation13FieldAccuracyE@Base 1.1.0
 _ZN10QtMobility19QContactGeoLocation13FieldAltitudeE@Base 1.1.0
 _ZN10QtMobility19QContactGeoLocation13FieldLatitudeE@Base 1.1.0
 _ZN10QtMobility19QContactGeoLocation14DefinitionNameE@Base 1.1.0
 _ZN10QtMobility19QContactGeoLocation14FieldLongitudeE@Base 1.1.0
 _ZN10QtMobility19QContactGeoLocation14FieldTimestampE@Base 1.1.0
 _ZN10QtMobility19QContactGeoLocation21FieldAltitudeAccuracyE@Base 1.1.0
 _ZN10QtMobility19QContactPhoneNumber10SubTypeCarE@Base 1.1.0
 _ZN10QtMobility19QContactPhoneNumber10SubTypeFaxE@Base 1.1.0
 _ZN10QtMobility19QContactPhoneNumber11FieldNumberE@Base 1.1.0
 _ZN10QtMobility19QContactPhoneNumber12SubTypeModemE@Base 1.1.0
 _ZN10QtMobility19QContactPhoneNumber12SubTypePagerE@Base 1.1.0
 _ZN10QtMobility19QContactPhoneNumber12SubTypeVideoE@Base 1.1.0
 _ZN10QtMobility19QContactPhoneNumber12SubTypeVoiceE@Base 1.1.0
 _ZN10QtMobility19QContactPhoneNumber13FieldSubTypesE@Base 1.1.0
 _ZN10QtMobility19QContactPhoneNumber13SubTypeMobileE@Base 1.1.0
 _ZN10QtMobility19QContactPhoneNumber14DefinitionNameE@Base 1.1.0
 _ZN10QtMobility19QContactPhoneNumber15SubTypeDtmfMenuE@Base 1.1.0
 _ZN10QtMobility19QContactPhoneNumber15SubTypeLandlineE@Base 1.1.0
 _ZN10QtMobility19QContactPhoneNumber16SubTypeAssistantE@Base 1.1.0
 _ZN10QtMobility19QContactPhoneNumber23SubTypeMessagingCapableE@Base 1.1.0
 _ZN10QtMobility19QContactPhoneNumber26SubTypeBulletinBoardSystemE@Base 1.1.0
 _ZN10QtMobility19QContactPhoneNumber5matchERK7QString@Base 1.1.0
 _ZN10QtMobility19QContactSaveRequest10setContactERKNS_8QContactE@Base 1.1.0
 _ZN10QtMobility19QContactSaveRequest11qt_metacallEN11QMetaObject4CallEiPPv@Base 1.1.0
 _ZN10QtMobility19QContactSaveRequest11qt_metacastEPKc@Base 1.1.0
 _ZN10QtMobility19QContactSaveRequest11setContactsERK5QListINS_8QContactEE@Base 1.1.0
 _ZN10QtMobility19QContactSaveRequest16staticMetaObjectE@Base 1.1.0
 _ZN10QtMobility19QContactSaveRequest17setDefinitionMaskERK11QStringList@Base 1.1.0
 _ZN10QtMobility19QContactSaveRequestC1EP7QObject@Base 1.1.0
 _ZN10QtMobility19QContactSaveRequestC2EP7QObject@Base 1.1.0
 _ZN10QtMobility19QContactSaveRequestD0Ev@Base 1.1.0
 _ZN10QtMobility19QContactSaveRequestD1Ev@Base 1.1.0
 _ZN10QtMobility19QContactSaveRequestD2Ev@Base 1.1.0
 _ZN10QtMobility19QContactUnionFilter10setFiltersERK5QListINS_14QContactFilterEE@Base 1.1.0
 _ZN10QtMobility19QContactUnionFilter5clearEv@Base 1.1.0
 _ZN10QtMobility19QContactUnionFilter6appendERKNS_14QContactFilterE@Base 1.1.0
 _ZN10QtMobility19QContactUnionFilter6removeERKNS_14QContactFilterE@Base 1.1.0
 _ZN10QtMobility19QContactUnionFilter7prependERKNS_14QContactFilterE@Base 1.1.0
 _ZN10QtMobility19QContactUnionFilterC1ERKNS_14QContactFilterE@Base 1.1.0
 _ZN10QtMobility19QContactUnionFilterC1Ev@Base 1.1.0
 _ZN10QtMobility19QContactUnionFilterC2ERKNS_14QContactFilterE@Base 1.1.0
 _ZN10QtMobility19QContactUnionFilterC2Ev@Base 1.1.0
 _ZN10QtMobility19QContactUnionFilterD1Ev@Base 1.2.0
 _ZN10QtMobility19QContactUnionFilterD2Ev@Base 1.2.0
 _ZN10QtMobility19QContactUnionFilterlsERKNS_14QContactFilterE@Base 1.1.0
 _ZN10QtMobility20QContactActionFilter13setActionNameERK7QString@Base 1.1.0
 _ZN10QtMobility20QContactActionFilterC1ERKNS_14QContactFilterE@Base 1.1.0
 _ZN10QtMobility20QContactActionFilterC1Ev@Base 1.1.0
 _ZN10QtMobility20QContactActionFilterC2ERKNS_14QContactFilterE@Base 1.1.0
 _ZN10QtMobility20QContactActionFilterC2Ev@Base 1.1.0
 _ZN10QtMobility20QContactActionFilterD1Ev@Base 1.2.0
 _ZN10QtMobility20QContactActionFilterD2Ev@Base 1.2.0
 _ZN10QtMobility20QContactActionTarget10setContactERKNS_8QContactE@Base 1.1.0
 _ZN10QtMobility20QContactActionTarget10setDetailsERK5QListINS_14QContactDetailEE@Base 1.1.0
 _ZN10QtMobility20QContactActionTargetC1ERKNS_8QContactERK5QListINS_14QContactDetailEE@Base 1.1.0
 _ZN10QtMobility20QContactActionTargetC1ERKNS_8QContactERKNS_14QContactDetailE@Base 1.1.0
 _ZN10QtMobility20QContactActionTargetC1ERKS0_@Base 1.1.0
 _ZN10QtMobility20QContactActionTargetC2ERKNS_8QContactERK5QListINS_14QContactDetailEE@Base 1.1.0
 _ZN10QtMobility20QContactActionTargetC2ERKNS_8QContactERKNS_14QContactDetailE@Base 1.1.0
 _ZN10QtMobility20QContactActionTargetC2ERKS0_@Base 1.1.0
 _ZN10QtMobility20QContactActionTargetD1Ev@Base 1.1.0
 _ZN10QtMobility20QContactActionTargetD2Ev@Base 1.1.0
 _ZN10QtMobility20QContactActionTargetaSERKS0_@Base 1.1.0
 _ZN10QtMobility20QContactDetailFilter13setMatchFlagsE6QFlagsINS_14QContactFilter9MatchFlagEE@Base 1.1.0
 _ZN10QtMobility20QContactDetailFilter23setDetailDefinitionNameERK7QStringS3_@Base 1.1.0
 _ZN10QtMobility20QContactDetailFilter8setValueERK8QVariant@Base 1.1.0
 _ZN10QtMobility20QContactDetailFilterC1ERKNS_14QContactFilterE@Base 1.1.0
 _ZN10QtMobility20QContactDetailFilterC1Ev@Base 1.1.0
 _ZN10QtMobility20QContactDetailFilterC2ERKNS_14QContactFilterE@Base 1.1.0
 _ZN10QtMobility20QContactDetailFilterC2Ev@Base 1.1.0
 _ZN10QtMobility20QContactDetailFilterD1Ev@Base 1.2.0
 _ZN10QtMobility20QContactDetailFilterD2Ev@Base 1.2.0
 _ZN10QtMobility20QContactDisplayLabel10FieldLabelE@Base 1.1.0
 _ZN10QtMobility20QContactDisplayLabel14DefinitionNameE@Base 1.1.0
 _ZN10QtMobility20QContactDisplayLabel5matchERK7QString@Base 1.1.0
 _ZN10QtMobility20QContactDisplayLabelD1Ev@Base 1.2.0
 _ZN10QtMobility20QContactDisplayLabelD2Ev@Base 1.2.0
 _ZN10QtMobility20QContactEmailAddress14DefinitionNameE@Base 1.1.0
 _ZN10QtMobility20QContactEmailAddress17FieldEmailAddressE@Base 1.1.0
 _ZN10QtMobility20QContactEmailAddress5matchERK7QString@Base 1.1.0
 _ZN10QtMobility20QContactFetchRequest10setSortingERK5QListINS_17QContactSortOrderEE@Base 1.1.0
 _ZN10QtMobility20QContactFetchRequest11qt_metacallEN11QMetaObject4CallEiPPv@Base 1.1.0
 _ZN10QtMobility20QContactFetchRequest11qt_metacastEPKc@Base 1.1.0
 _ZN10QtMobility20QContactFetchRequest12setFetchHintERKNS_17QContactFetchHintE@Base 1.1.0
 _ZN10QtMobility20QContactFetchRequest16staticMetaObjectE@Base 1.1.0
 _ZN10QtMobility20QContactFetchRequest9setFilterERKNS_14QContactFilterE@Base 1.1.0
 _ZN10QtMobility20QContactFetchRequestC1EP7QObject@Base 1.1.0
 _ZN10QtMobility20QContactFetchRequestC2EP7QObject@Base 1.1.0
 _ZN10QtMobility20QContactFetchRequestD0Ev@Base 1.1.0
 _ZN10QtMobility20QContactFetchRequestD1Ev@Base 1.1.0
 _ZN10QtMobility20QContactFetchRequestD2Ev@Base 1.1.0
 _ZN10QtMobility20QContactOrganization10FieldTitleE@Base 1.1.0
 _ZN10QtMobility20QContactOrganization12FieldLogoUrlE@Base 1.1.0
 _ZN10QtMobility20QContactOrganization13FieldLocationE@Base 1.1.0
 _ZN10QtMobility20QContactOrganization14DefinitionNameE@Base 1.1.0
 _ZN10QtMobility20QContactOrganization15FieldDepartmentE@Base 1.1.0
 _ZN10QtMobility20QContactOrganization18FieldAssistantNameE@Base 1.1.0
 _ZN10QtMobility20QContactOrganization9FieldNameE@Base 1.1.0
 _ZN10QtMobility20QContactOrganization9FieldRoleE@Base 1.1.0
 _ZN10QtMobility20QContactOrganizationD1Ev@Base 1.2.0
 _ZN10QtMobility20QContactOrganizationD2Ev@Base 1.2.0
 _ZN10QtMobility20QContactRelationship10AggregatesE@Base 1.1.0
 _ZN10QtMobility20QContactRelationship10HasManagerE@Base 1.1.0
 _ZN10QtMobility20QContactRelationship12HasAssistantE@Base 1.1.0
 _ZN10QtMobility20QContactRelationship19setRelationshipTypeERK7QString@Base 1.1.0
 _ZN10QtMobility20QContactRelationship8IsSameAsE@Base 1.1.0
 _ZN10QtMobility20QContactRelationship8setFirstERKNS_10QContactIdE@Base 1.1.0
 _ZN10QtMobility20QContactRelationship9HasMemberE@Base 1.1.0
 _ZN10QtMobility20QContactRelationship9HasSpouseE@Base 1.1.0
 _ZN10QtMobility20QContactRelationship9setSecondERKNS_10QContactIdE@Base 1.1.0
 _ZN10QtMobility20QContactRelationshipC1ERKS0_@Base 1.1.0
 _ZN10QtMobility20QContactRelationshipC1Ev@Base 1.1.0
 _ZN10QtMobility20QContactRelationshipC2ERKS0_@Base 1.1.0
 _ZN10QtMobility20QContactRelationshipC2Ev@Base 1.1.0
 _ZN10QtMobility20QContactRelationshipD1Ev@Base 1.1.0
 _ZN10QtMobility20QContactRelationshipD2Ev@Base 1.1.0
 _ZN10QtMobility20QContactRelationshipaSERKS0_@Base 1.1.0
 _ZN10QtMobility21QContactActionFactory11qt_metacallEN11QMetaObject4CallEiPPv@Base 1.1.0
 _ZN10QtMobility21QContactActionFactory11qt_metacastEPKc@Base 1.1.0
 _ZN10QtMobility21QContactActionFactory13InterfaceNameE@Base 1.1.0
 _ZN10QtMobility21QContactActionFactory16staticMetaObjectE@Base 1.1.0
 _ZN10QtMobility21QContactActionFactoryD0Ev@Base 1.1.0
 _ZN10QtMobility21QContactActionFactoryD1Ev@Base 1.1.0
 _ZN10QtMobility21QContactActionFactoryD2Ev@Base 1.1.0
 _ZN10QtMobility21QContactInvalidFilterC1ERKNS_14QContactFilterE@Base 1.1.0
 _ZN10QtMobility21QContactInvalidFilterC1Ev@Base 1.1.0
 _ZN10QtMobility21QContactInvalidFilterC2ERKNS_14QContactFilterE@Base 1.1.0
 _ZN10QtMobility21QContactInvalidFilterC2Ev@Base 1.1.0
 _ZN10QtMobility21QContactInvalidFilterD1Ev@Base 1.2.0
 _ZN10QtMobility21QContactInvalidFilterD2Ev@Base 1.2.0
 _ZN10QtMobility21QContactLocalIdFilter3addERKj@Base 1.1.0
 _ZN10QtMobility21QContactLocalIdFilter5clearEv@Base 1.1.0
 _ZN10QtMobility21QContactLocalIdFilter6removeERKj@Base 1.1.0
 _ZN10QtMobility21QContactLocalIdFilter6setIdsERK5QListIjE@Base 1.1.0
 _ZN10QtMobility21QContactLocalIdFilterC1ERKNS_14QContactFilterE@Base 1.1.0
 _ZN10QtMobility21QContactLocalIdFilterC1Ev@Base 1.1.0
 _ZN10QtMobility21QContactLocalIdFilterC2ERKNS_14QContactFilterE@Base 1.1.0
 _ZN10QtMobility21QContactLocalIdFilterC2Ev@Base 1.1.0
 _ZN10QtMobility21QContactLocalIdFilterD1Ev@Base 1.2.0
 _ZN10QtMobility21QContactLocalIdFilterD2Ev@Base 1.2.0
 _ZN10QtMobility21QContactManagerEngine10testFilterERKNS_14QContactFilterERKNS_8QContactE@Base 1.1.0
 _ZN10QtMobility21QContactManagerEngine11dataChangedEv@Base 1.1.0
 _ZN10QtMobility21QContactManagerEngine11qt_metacallEN11QMetaObject4CallEiPPv@Base 1.1.0
 _ZN10QtMobility21QContactManagerEngine11qt_metacastEPKc@Base 1.1.0
 _ZN10QtMobility21QContactManagerEngine11saveContactEPNS_8QContactEPNS_15QContactManager5ErrorE@Base 1.1.0
 _ZN10QtMobility21QContactManagerEngine12saveContactsEP5QListINS_8QContactEEP4QMapIiNS_15QContactManager5ErrorEEPS7_@Base 1.1.0
 _ZN10QtMobility21QContactManagerEngine12sortContactsERK5QListINS_8QContactEERKS1_INS_17QContactSortOrderEE@Base 1.1.0
 _ZN10QtMobility21QContactManagerEngine12startRequestEPNS_23QContactAbstractRequestE@Base 1.1.0
 _ZN10QtMobility21QContactManagerEngine13cancelRequestEPNS_23QContactAbstractRequestE@Base 1.1.0
 _ZN10QtMobility21QContactManagerEngine13contactsAddedERK5QListIjE@Base 1.1.0
 _ZN10QtMobility21QContactManagerEngine13removeContactERKjPNS_15QContactManager5ErrorE@Base 1.1.0
 _ZN10QtMobility21QContactManagerEngine14compareContactERKNS_8QContactES3_RK5QListINS_17QContactSortOrderEE@Base 1.1.0
 _ZN10QtMobility21QContactManagerEngine14compareVariantERK8QVariantS3_N2Qt15CaseSensitivityE@Base 1.1.0
 _ZN10QtMobility21QContactManagerEngine14removeContactsERK5QListIjEP4QMapIiNS_15QContactManager5ErrorEEPS7_@Base 1.1.0
 _ZN10QtMobility21QContactManagerEngine15contactsChangedERK5QListIjE@Base 1.1.0
 _ZN10QtMobility21QContactManagerEngine15contactsRemovedERK5QListIjE@Base 1.1.0
 _ZN10QtMobility21QContactManagerEngine16requestDestroyedEPNS_23QContactAbstractRequestE@Base 1.1.0
 _ZN10QtMobility21QContactManagerEngine16saveRelationshipEPNS_20QContactRelationshipEPNS_15QContactManager5ErrorE@Base 1.1.0
 _ZN10QtMobility21QContactManagerEngine16setSelfContactIdERKjPNS_15QContactManager5ErrorE@Base 1.1.0
 _ZN10QtMobility21QContactManagerEngine16staticMetaObjectE@Base 1.1.0
 _ZN10QtMobility21QContactManagerEngine17saveRelationshipsEP5QListINS_20QContactRelationshipEEP4QMapIiNS_15QContactManager5ErrorEEPS7_@Base 1.1.0
 _ZN10QtMobility21QContactManagerEngine17schemaDefinitionsEi@Base 1.1.0
 _ZN10QtMobility21QContactManagerEngine17schemaDefinitionsEv@Base 1.1.0
 _ZN10QtMobility21QContactManagerEngine18relationshipsAddedERK5QListIjE@Base 1.1.0
 _ZN10QtMobility21QContactManagerEngine18removeRelationshipERKNS_20QContactRelationshipEPNS_15QContactManager5ErrorE@Base 1.1.0
 _ZN10QtMobility21QContactManagerEngine18updateRequestStateEPNS_23QContactAbstractRequestENS1_5StateE@Base 1.1.0
 _ZN10QtMobility21QContactManagerEngine19canonicalizedFilterERKNS_14QContactFilterE@Base 1.1.0
 _ZN10QtMobility21QContactManagerEngine19removeRelationshipsERK5QListINS_20QContactRelationshipEEP4QMapIiNS_15QContactManager5ErrorEEPS8_@Base 1.1.0
 _ZN10QtMobility21QContactManagerEngine20relationshipsRemovedERK5QListIjE@Base 1.1.0
 _ZN10QtMobility21QContactManagerEngine20saveDetailDefinitionERKNS_24QContactDetailDefinitionERK7QStringPNS_15QContactManager5ErrorE@Base 1.1.0
 _ZN10QtMobility21QContactManagerEngine20selfContactIdChangedERKjS2_@Base 1.1.0
 _ZN10QtMobility21QContactManagerEngine22removeDetailDefinitionERK7QStringS3_PNS_15QContactManager5ErrorE@Base 1.1.0
 _ZN10QtMobility21QContactManagerEngine22setContactDisplayLabelEPNS_8QContactERK7QString@Base 1.1.0
 _ZN10QtMobility21QContactManagerEngine22waitForRequestFinishedEPNS_23QContactAbstractRequestEi@Base 1.1.0
 _ZN10QtMobility21QContactManagerEngine23setContactRelationshipsEPNS_8QContactERK5QListINS_20QContactRelationshipEE@Base 1.1.0
 _ZN10QtMobility21QContactManagerEngine24updateContactSaveRequestEPNS_19QContactSaveRequestERK5QListINS_8QContactEENS_15QContactManager5ErrorERK4QMapIiS9_ENS_23QContactAbstractRequest5StateE@Base 1.1.0
 _ZN10QtMobility21QContactManagerEngine25updateContactFetchRequestEPNS_20QContactFetchRequestERK5QListINS_8QContactEENS_15QContactManager5ErrorENS_23QContactAbstractRequest5StateE@Base 1.1.0
 _ZN10QtMobility21QContactManagerEngine26setDetailAccessConstraintsEPNS_14QContactDetailE6QFlagsINS1_16AccessConstraintEE@Base 1.1.0
 _ZN10QtMobility21QContactManagerEngine26updateContactRemoveRequestEPNS_21QContactRemoveRequestENS_15QContactManager5ErrorERK4QMapIiS4_ENS_23QContactAbstractRequest5StateE@Base 1.1.0
 _ZN10QtMobility21QContactManagerEngine27updateDefinitionSaveRequestEPNS_35QContactDetailDefinitionSaveRequestERK5QListINS_24QContactDetailDefinitionEENS_15QContactManager5ErrorERK4QMapIiS9_ENS_23QContactAbstractRequest5StateE@Base 1.1.0
 _ZN10QtMobility21QContactManagerEngine28updateDefinitionFetchRequestEPNS_36QContactDetailDefinitionFetchRequestERK4QMapI7QStringNS_24QContactDetailDefinitionEENS_15QContactManager5ErrorERKS3_IiSA_ENS_23QContactAbstractRequest5StateE@Base 1.1.0
 _ZN10QtMobility21QContactManagerEngine29updateDefinitionRemoveRequestEPNS_37QContactDetailDefinitionRemoveRequestENS_15QContactManager5ErrorERK4QMapIiS4_ENS_23QContactAbstractRequest5StateE@Base 1.1.0
 _ZN10QtMobility21QContactManagerEngine29updateRelationshipSaveRequestEPNS_31QContactRelationshipSaveRequestERK5QListINS_20QContactRelationshipEENS_15QContactManager5ErrorERK4QMapIiS9_ENS_23QContactAbstractRequest5StateE@Base 1.1.0
 _ZN10QtMobility21QContactManagerEngine30updateRelationshipFetchRequestEPNS_32QContactRelationshipFetchRequestERK5QListINS_20QContactRelationshipEENS_15QContactManager5ErrorENS_23QContactAbstractRequest5StateE@Base 1.1.0
 _ZN10QtMobility21QContactManagerEngine31updateRelationshipRemoveRequestEPNS_33QContactRelationshipRemoveRequestENS_15QContactManager5ErrorERK4QMapIiS4_ENS_23QContactAbstractRequest5StateE@Base 1.1.0
 _ZN10QtMobility21QContactManagerEngine32updateContactLocalIdFetchRequestEPNS_27QContactLocalIdFetchRequestERK5QListIjENS_15QContactManager5ErrorENS_23QContactAbstractRequest5StateE@Base 1.1.0
 _ZN10QtMobility21QContactManagerEngine9addSortedEP5QListINS_8QContactEERKS2_RKS1_INS_17QContactSortOrderEE@Base 1.1.0
 _ZN10QtMobility21QContactManagerEngineD0Ev@Base 1.2.0
 _ZN10QtMobility21QContactManagerEngineD1Ev@Base 1.2.0
 _ZN10QtMobility21QContactManagerEngineD2Ev@Base 1.2.0
 _ZN10QtMobility21QContactOnlineAccount10ProtocolQqE@Base 1.2.0
 _ZN10QtMobility21QContactOnlineAccount10SubTypeSipE@Base 1.1.0
 _ZN10QtMobility21QContactOnlineAccount11ProtocolAimE@Base 1.2.0
 _ZN10QtMobility21QContactOnlineAccount11ProtocolIcqE@Base 1.2.0
 _ZN10QtMobility21QContactOnlineAccount11ProtocolIrcE@Base 1.2.0
 _ZN10QtMobility21QContactOnlineAccount11ProtocolMsnE@Base 1.2.0
 _ZN10QtMobility21QContactOnlineAccount11SubTypeImppE@Base 1.1.0
 _ZN10QtMobility21QContactOnlineAccount13FieldProtocolE@Base 1.2.0
 _ZN10QtMobility21QContactOnlineAccount13FieldSubTypesE@Base 1.1.0
 _ZN10QtMobility21QContactOnlineAccount13ProtocolSkypeE@Base 1.2.0
 _ZN10QtMobility21QContactOnlineAccount13ProtocolYahooE@Base 1.2.0
 _ZN10QtMobility21QContactOnlineAccount14DefinitionNameE@Base 1.1.0
 _ZN10QtMobility21QContactOnlineAccount14ProtocolJabberE@Base 1.2.0
 _ZN10QtMobility21QContactOnlineAccount14SubTypeSipVoipE@Base 1.1.0
 _ZN10QtMobility21QContactOnlineAccount15FieldAccountUriE@Base 1.1.0
 _ZN10QtMobility21QContactOnlineAccount17FieldCapabilitiesE@Base 1.1.0
 _ZN10QtMobility21QContactOnlineAccount17SubTypeVideoShareE@Base 1.1.0
 _ZN10QtMobility21QContactOnlineAccount20FieldServiceProviderE@Base 1.1.0
 _ZN10QtMobility21QContactRemoveRequest11qt_metacallEN11QMetaObject4CallEiPPv@Base 1.1.0
 _ZN10QtMobility21QContactRemoveRequest11qt_metacastEPKc@Base 1.1.0
 _ZN10QtMobility21QContactRemoveRequest12setContactIdERKj@Base 1.1.0
 _ZN10QtMobility21QContactRemoveRequest13setContactIdsERK5QListIjE@Base 1.1.0
 _ZN10QtMobility21QContactRemoveRequest16staticMetaObjectE@Base 1.1.0
 _ZN10QtMobility21QContactRemoveRequestC1EP7QObject@Base 1.1.0
 _ZN10QtMobility21QContactRemoveRequestC2EP7QObject@Base 1.1.0
 _ZN10QtMobility21QContactRemoveRequestD0Ev@Base 1.1.0
 _ZN10QtMobility21QContactRemoveRequestD1Ev@Base 1.1.0
 _ZN10QtMobility21QContactRemoveRequestD2Ev@Base 1.1.0
 _ZN10QtMobility22QContactGlobalPresence13FieldNicknameE@Base 1.1.0
 _ZN10QtMobility22QContactGlobalPresence14DefinitionNameE@Base 1.1.0
 _ZN10QtMobility22QContactGlobalPresence14FieldTimestampE@Base 1.1.0
 _ZN10QtMobility22QContactGlobalPresence18FieldCustomMessageE@Base 1.1.0
 _ZN10QtMobility22QContactGlobalPresence18FieldPresenceStateE@Base 1.1.0
 _ZN10QtMobility22QContactGlobalPresence22FieldPresenceStateTextE@Base 1.1.0
 _ZN10QtMobility22QContactGlobalPresence26FieldPresenceStateImageUrlE@Base 1.1.0
 _ZN10QtMobility22QContactGlobalPresence5matchENS_16QContactPresence13PresenceStateE@Base 1.2.0
 _ZN10QtMobility23QContactAbstractRequest10setManagerEPNS_15QContactManagerE@Base 1.1.0
 _ZN10QtMobility23QContactAbstractRequest11qt_metacallEN11QMetaObject4CallEiPPv@Base 1.1.0
 _ZN10QtMobility23QContactAbstractRequest11qt_metacastEPKc@Base 1.1.0
 _ZN10QtMobility23QContactAbstractRequest12stateChangedENS0_5StateE@Base 1.1.0
 _ZN10QtMobility23QContactAbstractRequest15waitForFinishedEi@Base 1.1.0
 _ZN10QtMobility23QContactAbstractRequest16resultsAvailableEv@Base 1.1.0
 _ZN10QtMobility23QContactAbstractRequest16staticMetaObjectE@Base 1.1.0
 _ZN10QtMobility23QContactAbstractRequest5startEv@Base 1.1.0
 _ZN10QtMobility23QContactAbstractRequest6cancelEv@Base 1.1.0
 _ZN10QtMobility23QContactAbstractRequestC1EPNS_30QContactAbstractRequestPrivateEP7QObject@Base 1.1.0
 _ZN10QtMobility23QContactAbstractRequestC2EPNS_30QContactAbstractRequestPrivateEP7QObject@Base 1.1.0
 _ZN10QtMobility23QContactAbstractRequestD0Ev@Base 1.1.0
 _ZN10QtMobility23QContactAbstractRequestD1Ev@Base 1.1.0
 _ZN10QtMobility23QContactAbstractRequestD2Ev@Base 1.1.0
 _ZN10QtMobility23QContactChangeLogFilter12setEventTypeENS0_9EventTypeE@Base 1.1.0
 _ZN10QtMobility23QContactChangeLogFilter8setSinceERK9QDateTime@Base 1.1.0
 _ZN10QtMobility23QContactChangeLogFilterC1ENS0_9EventTypeE@Base 1.1.0
 _ZN10QtMobility23QContactChangeLogFilterC1ERKNS_14QContactFilterE@Base 1.1.0
 _ZN10QtMobility23QContactChangeLogFilterC2ENS0_9EventTypeE@Base 1.1.0
 _ZN10QtMobility23QContactChangeLogFilterC2ERKNS_14QContactFilterE@Base 1.1.0
 _ZN10QtMobility23QContactChangeLogFilterD1Ev@Base 1.2.0
 _ZN10QtMobility23QContactChangeLogFilterD2Ev@Base 1.2.0
 _ZN10QtMobility23QContactManagerEngineV211qt_metacallEN11QMetaObject4CallEiPPv@Base 1.1.0
 _ZN10QtMobility23QContactManagerEngineV211qt_metacastEPKc@Base 1.1.0
 _ZN10QtMobility23QContactManagerEngineV212saveContactsEP5QListINS_8QContactEEP4QMapIiNS_15QContactManager5ErrorEEPS7_@Base 1.1.0
 _ZN10QtMobility23QContactManagerEngineV212saveContactsEP5QListINS_8QContactEERK11QStringListP4QMapIiNS_15QContactManager5ErrorEEPSA_@Base 1.1.0
 _ZN10QtMobility23QContactManagerEngineV216staticMetaObjectE@Base 1.1.0
 _ZN10QtMobility23QContactManagerEngineV229updateContactFetchByIdRequestEPNS_24QContactFetchByIdRequestERK5QListINS_8QContactEENS_15QContactManager5ErrorERK4QMapIiS9_ENS_23QContactAbstractRequest5StateE@Base 1.1.0
 _ZN10QtMobility23QContactManagerEngineV2D0Ev@Base 1.2.0
 _ZN10QtMobility23QContactManagerEngineV2D1Ev@Base 1.2.0
 _ZN10QtMobility23QContactManagerEngineV2D2Ev@Base 1.2.0
 _ZN10QtMobility24QContactActionDescriptor12MetaDataIconE@Base 1.1.0
 _ZN10QtMobility24QContactActionDescriptor13MetaDataLabelE@Base 1.1.0
 _ZN10QtMobility24QContactActionDescriptor19MetaDataSecondLabelE@Base 1.1.0
 _ZN10QtMobility24QContactActionDescriptor29MetaDataOptionalParameterKeysE@Base 1.1.0
 _ZN10QtMobility24QContactActionDescriptor30MetaDataMandatoryParameterKeysE@Base 1.1.0
 _ZN10QtMobility24QContactActionDescriptorC1ERKS0_@Base 1.1.0
 _ZN10QtMobility24QContactActionDescriptorC1Ev@Base 1.1.0
 _ZN10QtMobility24QContactActionDescriptorC2ERKS0_@Base 1.1.0
 _ZN10QtMobility24QContactActionDescriptorC2Ev@Base 1.1.0
 _ZN10QtMobility24QContactActionDescriptorD1Ev@Base 1.1.0
 _ZN10QtMobility24QContactActionDescriptorD2Ev@Base 1.1.0
 _ZN10QtMobility24QContactActionDescriptoraSERKS0_@Base 1.1.0
 _ZN10QtMobility24QContactDetailDefinition11insertFieldERK7QStringRKNS_29QContactDetailFieldDefinitionE@Base 1.1.0
 _ZN10QtMobility24QContactDetailDefinition11removeFieldERK7QString@Base 1.1.0
 _ZN10QtMobility24QContactDetailDefinition7setNameERK7QString@Base 1.1.0
 _ZN10QtMobility24QContactDetailDefinition9setFieldsERK4QMapI7QStringNS_29QContactDetailFieldDefinitionEE@Base 1.1.0
 _ZN10QtMobility24QContactDetailDefinition9setUniqueEb@Base 1.1.0
 _ZN10QtMobility24QContactDetailDefinitionC1ERKS0_@Base 1.1.0
 _ZN10QtMobility24QContactDetailDefinitionC1Ev@Base 1.1.0
 _ZN10QtMobility24QContactDetailDefinitionC2ERKS0_@Base 1.1.0
 _ZN10QtMobility24QContactDetailDefinitionC2Ev@Base 1.1.0
 _ZN10QtMobility24QContactDetailDefinitionD1Ev@Base 1.1.0
 _ZN10QtMobility24QContactDetailDefinitionD2Ev@Base 1.1.0
 _ZN10QtMobility24QContactDetailDefinitionaSERKS0_@Base 1.1.0
 _ZN10QtMobility24QContactFetchByIdRequest11qt_metacallEN11QMetaObject4CallEiPPv@Base 1.1.0
 _ZN10QtMobility24QContactFetchByIdRequest11qt_metacastEPKc@Base 1.1.0
 _ZN10QtMobility24QContactFetchByIdRequest11setLocalIdsERK5QListIjE@Base 1.1.0
 _ZN10QtMobility24QContactFetchByIdRequest12setFetchHintERKNS_17QContactFetchHintE@Base 1.1.0
 _ZN10QtMobility24QContactFetchByIdRequest16staticMetaObjectE@Base 1.1.0
 _ZN10QtMobility24QContactFetchByIdRequestC1EP7QObject@Base 1.1.0
 _ZN10QtMobility24QContactFetchByIdRequestC2EP7QObject@Base 1.1.0
 _ZN10QtMobility24QContactFetchByIdRequestD0Ev@Base 1.1.0
 _ZN10QtMobility24QContactFetchByIdRequestD1Ev@Base 1.1.0
 _ZN10QtMobility24QContactFetchByIdRequestD2Ev@Base 1.1.0
 _ZN10QtMobility25QContactDetailRangeFilter13setMatchFlagsE6QFlagsINS_14QContactFilter9MatchFlagEE@Base 1.1.0
 _ZN10QtMobility25QContactDetailRangeFilter23setDetailDefinitionNameERK7QStringS3_@Base 1.1.0
 _ZN10QtMobility25QContactDetailRangeFilter8setRangeERK8QVariantS3_6QFlagsINS0_9RangeFlagEE@Base 1.1.0
 _ZN10QtMobility25QContactDetailRangeFilterC1ERKNS_14QContactFilterE@Base 1.1.0
 _ZN10QtMobility25QContactDetailRangeFilterC1Ev@Base 1.1.0
 _ZN10QtMobility25QContactDetailRangeFilterC2ERKNS_14QContactFilterE@Base 1.1.0
 _ZN10QtMobility25QContactDetailRangeFilterC2Ev@Base 1.1.0
 _ZN10QtMobility25QContactDetailRangeFilterD1Ev@Base 1.2.0
 _ZN10QtMobility25QContactDetailRangeFilterD2Ev@Base 1.2.0
 _ZN10QtMobility26QContactIntersectionFilter10setFiltersERK5QListINS_14QContactFilterEE@Base 1.1.0
 _ZN10QtMobility26QContactIntersectionFilter5clearEv@Base 1.1.0
 _ZN10QtMobility26QContactIntersectionFilter6appendERKNS_14QContactFilterE@Base 1.1.0
 _ZN10QtMobility26QContactIntersectionFilter6removeERKNS_14QContactFilterE@Base 1.1.0
 _ZN10QtMobility26QContactIntersectionFilter7prependERKNS_14QContactFilterE@Base 1.1.0
 _ZN10QtMobility26QContactIntersectionFilterC1ERKNS_14QContactFilterE@Base 1.1.0
 _ZN10QtMobility26QContactIntersectionFilterC1Ev@Base 1.1.0
 _ZN10QtMobility26QContactIntersectionFilterC2ERKNS_14QContactFilterE@Base 1.1.0
 _ZN10QtMobility26QContactIntersectionFilterC2Ev@Base 1.1.0
 _ZN10QtMobility26QContactIntersectionFilterD1Ev@Base 1.2.0
 _ZN10QtMobility26QContactIntersectionFilterD2Ev@Base 1.2.0
 _ZN10QtMobility26QContactIntersectionFilterlsERKNS_14QContactFilterE@Base 1.1.0
 _ZN10QtMobility26QContactRelationshipFilter19setRelatedContactIdERKNS_10QContactIdE@Base 1.1.0
 _ZN10QtMobility26QContactRelationshipFilter19setRelationshipTypeERK7QString@Base 1.1.0
 _ZN10QtMobility26QContactRelationshipFilter21setRelatedContactRoleENS_20QContactRelationship4RoleE@Base 1.1.0
 _ZN10QtMobility26QContactRelationshipFilterC1ERKNS_14QContactFilterE@Base 1.1.0
 _ZN10QtMobility26QContactRelationshipFilterC1Ev@Base 1.1.0
 _ZN10QtMobility26QContactRelationshipFilterC2ERKNS_14QContactFilterE@Base 1.1.0
 _ZN10QtMobility26QContactRelationshipFilterC2Ev@Base 1.1.0
 _ZN10QtMobility26QContactRelationshipFilterD1Ev@Base 1.2.0
 _ZN10QtMobility26QContactRelationshipFilterD2Ev@Base 1.2.0
 _ZN10QtMobility27QContactLocalIdFetchRequest10setSortingERK5QListINS_17QContactSortOrderEE@Base 1.1.0
 _ZN10QtMobility27QContactLocalIdFetchRequest11qt_metacallEN11QMetaObject4CallEiPPv@Base 1.1.0
 _ZN10QtMobility27QContactLocalIdFetchRequest11qt_metacastEPKc@Base 1.1.0
 _ZN10QtMobility27QContactLocalIdFetchRequest16staticMetaObjectE@Base 1.1.0
 _ZN10QtMobility27QContactLocalIdFetchRequest9setFilterERKNS_14QContactFilterE@Base 1.1.0
 _ZN10QtMobility27QContactLocalIdFetchRequestC1EP7QObject@Base 1.1.0
 _ZN10QtMobility27QContactLocalIdFetchRequestC2EP7QObject@Base 1.1.0
 _ZN10QtMobility27QContactLocalIdFetchRequestD0Ev@Base 1.1.0
 _ZN10QtMobility27QContactLocalIdFetchRequestD1Ev@Base 1.1.0
 _ZN10QtMobility27QContactLocalIdFetchRequestD2Ev@Base 1.1.0
 _ZN10QtMobility28QContactManagerEngineFactoryD0Ev@Base 1.1.0
 _ZN10QtMobility28QContactManagerEngineFactoryD1Ev@Base 1.1.0
 _ZN10QtMobility28QContactManagerEngineFactoryD2Ev@Base 1.1.0
 _ZN10QtMobility29QContactDetailFieldDefinition11setDataTypeEN8QVariant4TypeE@Base 1.1.0
 _ZN10QtMobility29QContactDetailFieldDefinition18setAllowableValuesE5QListI8QVariantE@Base 1.1.0
 _ZN10QtMobility29QContactDetailFieldDefinitionC1ERKS0_@Base 1.1.0
 _ZN10QtMobility29QContactDetailFieldDefinitionC1Ev@Base 1.1.0
 _ZN10QtMobility29QContactDetailFieldDefinitionC2ERKS0_@Base 1.1.0
 _ZN10QtMobility29QContactDetailFieldDefinitionC2Ev@Base 1.1.0
 _ZN10QtMobility29QContactDetailFieldDefinitionD1Ev@Base 1.1.0
 _ZN10QtMobility29QContactDetailFieldDefinitionD2Ev@Base 1.1.0
 _ZN10QtMobility29QContactDetailFieldDefinitionaSERKS0_@Base 1.1.0
 _ZN10QtMobility31QContactRelationshipSaveRequest11qt_metacallEN11QMetaObject4CallEiPPv@Base 1.1.0
 _ZN10QtMobility31QContactRelationshipSaveRequest11qt_metacastEPKc@Base 1.1.0
 _ZN10QtMobility31QContactRelationshipSaveRequest15setRelationshipERKNS_20QContactRelationshipE@Base 1.1.0
 _ZN10QtMobility31QContactRelationshipSaveRequest16setRelationshipsERK5QListINS_20QContactRelationshipEE@Base 1.1.0
 _ZN10QtMobility31QContactRelationshipSaveRequest16staticMetaObjectE@Base 1.1.0
 _ZN10QtMobility31QContactRelationshipSaveRequestC1EP7QObject@Base 1.1.0
 _ZN10QtMobility31QContactRelationshipSaveRequestC2EP7QObject@Base 1.1.0
 _ZN10QtMobility31QContactRelationshipSaveRequestD0Ev@Base 1.1.0
 _ZN10QtMobility31QContactRelationshipSaveRequestD1Ev@Base 1.1.0
 _ZN10QtMobility31QContactRelationshipSaveRequestD2Ev@Base 1.1.0
 _ZN10QtMobility32QContactRelationshipFetchRequest11qt_metacallEN11QMetaObject4CallEiPPv@Base 1.1.0
 _ZN10QtMobility32QContactRelationshipFetchRequest11qt_metacastEPKc@Base 1.1.0
 _ZN10QtMobility32QContactRelationshipFetchRequest16staticMetaObjectE@Base 1.1.0
 _ZN10QtMobility32QContactRelationshipFetchRequest19setRelationshipTypeERK7QString@Base 1.1.0
 _ZN10QtMobility32QContactRelationshipFetchRequest8setFirstERKNS_10QContactIdE@Base 1.1.0
 _ZN10QtMobility32QContactRelationshipFetchRequest9setSecondERKNS_10QContactIdE@Base 1.1.0
 _ZN10QtMobility32QContactRelationshipFetchRequestC1EP7QObject@Base 1.1.0
 _ZN10QtMobility32QContactRelationshipFetchRequestC2EP7QObject@Base 1.1.0
 _ZN10QtMobility32QContactRelationshipFetchRequestD0Ev@Base 1.1.0
 _ZN10QtMobility32QContactRelationshipFetchRequestD1Ev@Base 1.1.0
 _ZN10QtMobility32QContactRelationshipFetchRequestD2Ev@Base 1.1.0
 _ZN10QtMobility33QContactRelationshipRemoveRequest11qt_metacallEN11QMetaObject4CallEiPPv@Base 1.1.0
 _ZN10QtMobility33QContactRelationshipRemoveRequest11qt_metacastEPKc@Base 1.1.0
 _ZN10QtMobility33QContactRelationshipRemoveRequest15setRelationshipERKNS_20QContactRelationshipE@Base 1.1.0
 _ZN10QtMobility33QContactRelationshipRemoveRequest16setRelationshipsERK5QListINS_20QContactRelationshipEE@Base 1.1.0
 _ZN10QtMobility33QContactRelationshipRemoveRequest16staticMetaObjectE@Base 1.1.0
 _ZN10QtMobility33QContactRelationshipRemoveRequestC1EP7QObject@Base 1.1.0
 _ZN10QtMobility33QContactRelationshipRemoveRequestC2EP7QObject@Base 1.1.0
 _ZN10QtMobility33QContactRelationshipRemoveRequestD0Ev@Base 1.1.0
 _ZN10QtMobility33QContactRelationshipRemoveRequestD1Ev@Base 1.1.0
 _ZN10QtMobility33QContactRelationshipRemoveRequestD2Ev@Base 1.1.0
 _ZN10QtMobility35QContactDetailDefinitionSaveRequest11qt_metacallEN11QMetaObject4CallEiPPv@Base 1.1.0
 _ZN10QtMobility35QContactDetailDefinitionSaveRequest11qt_metacastEPKc@Base 1.1.0
 _ZN10QtMobility35QContactDetailDefinitionSaveRequest13setDefinitionERKNS_24QContactDetailDefinitionE@Base 1.1.0
 _ZN10QtMobility35QContactDetailDefinitionSaveRequest14setContactTypeERK7QString@Base 1.1.0
 _ZN10QtMobility35QContactDetailDefinitionSaveRequest14setDefinitionsERK5QListINS_24QContactDetailDefinitionEE@Base 1.1.0
 _ZN10QtMobility35QContactDetailDefinitionSaveRequest16staticMetaObjectE@Base 1.1.0
 _ZN10QtMobility35QContactDetailDefinitionSaveRequestC1EP7QObject@Base 1.1.0
 _ZN10QtMobility35QContactDetailDefinitionSaveRequestC2EP7QObject@Base 1.1.0
 _ZN10QtMobility35QContactDetailDefinitionSaveRequestD0Ev@Base 1.1.0
 _ZN10QtMobility35QContactDetailDefinitionSaveRequestD1Ev@Base 1.1.0
 _ZN10QtMobility35QContactDetailDefinitionSaveRequestD2Ev@Base 1.1.0
 _ZN10QtMobility36QContactDetailDefinitionFetchRequest11qt_metacallEN11QMetaObject4CallEiPPv@Base 1.1.0
 _ZN10QtMobility36QContactDetailDefinitionFetchRequest11qt_metacastEPKc@Base 1.1.0
 _ZN10QtMobility36QContactDetailDefinitionFetchRequest14setContactTypeERK7QString@Base 1.1.0
 _ZN10QtMobility36QContactDetailDefinitionFetchRequest16staticMetaObjectE@Base 1.1.0
 _ZN10QtMobility36QContactDetailDefinitionFetchRequest17setDefinitionNameERK7QString@Base 1.1.0
 _ZN10QtMobility36QContactDetailDefinitionFetchRequest18setDefinitionNamesERK11QStringList@Base 1.1.0
 _ZN10QtMobility36QContactDetailDefinitionFetchRequestC1EP7QObject@Base 1.1.0
 _ZN10QtMobility36QContactDetailDefinitionFetchRequestC2EP7QObject@Base 1.1.0
 _ZN10QtMobility36QContactDetailDefinitionFetchRequestD0Ev@Base 1.1.0
 _ZN10QtMobility36QContactDetailDefinitionFetchRequestD1Ev@Base 1.1.0
 _ZN10QtMobility36QContactDetailDefinitionFetchRequestD2Ev@Base 1.1.0
 _ZN10QtMobility37QContactDetailDefinitionRemoveRequest11qt_metacallEN11QMetaObject4CallEiPPv@Base 1.1.0
 _ZN10QtMobility37QContactDetailDefinitionRemoveRequest11qt_metacastEPKc@Base 1.1.0
 _ZN10QtMobility37QContactDetailDefinitionRemoveRequest14setContactTypeERK7QString@Base 1.1.0
 _ZN10QtMobility37QContactDetailDefinitionRemoveRequest16staticMetaObjectE@Base 1.1.0
 _ZN10QtMobility37QContactDetailDefinitionRemoveRequest17setDefinitionNameERK7QString@Base 1.1.0
 _ZN10QtMobility37QContactDetailDefinitionRemoveRequest18setDefinitionNamesERK11QStringList@Base 1.1.0
 _ZN10QtMobility37QContactDetailDefinitionRemoveRequestC1EP7QObject@Base 1.1.0
 _ZN10QtMobility37QContactDetailDefinitionRemoveRequestC2EP7QObject@Base 1.1.0
 _ZN10QtMobility37QContactDetailDefinitionRemoveRequestD0Ev@Base 1.1.0
 _ZN10QtMobility37QContactDetailDefinitionRemoveRequestD1Ev@Base 1.1.0
 _ZN10QtMobility37QContactDetailDefinitionRemoveRequestD2Ev@Base 1.1.0
 _ZN10QtMobility5qHashERKNS_10QContactIdE@Base 1.1.0
 _ZN10QtMobility5qHashERKNS_14QContactDetailE@Base 1.1.0
 _ZN10QtMobility5qHashERKNS_20QContactActionTargetE@Base 1.1.0
 _ZN10QtMobility5qHashERKNS_20QContactRelationshipE@Base 1.1.0
 _ZN10QtMobility5qHashERKNS_24QContactActionDescriptorE@Base 1.1.0
 _ZN10QtMobility5qHashERKNS_8QContactE@Base 1.1.0
 _ZN10QtMobility8QContact10saveDetailEPNS_14QContactDetailE@Base 1.1.0
 _ZN10QtMobility8QContact12clearDetailsEv@Base 1.1.0
 _ZN10QtMobility8QContact12removeDetailEPNS_14QContactDetailE@Base 1.1.0
 _ZN10QtMobility8QContact18setPreferredDetailERK7QStringRKNS_14QContactDetailE@Base 1.1.0
 _ZN10QtMobility8QContact5setIdERKNS_10QContactIdE@Base 1.1.0
 _ZN10QtMobility8QContact6addTagERK7QString@Base 1.2.0
 _ZN10QtMobility8QContact7setTagsERK11QStringList@Base 1.2.0
 _ZN10QtMobility8QContact7setTypeERK7QString@Base 1.1.0
 _ZN10QtMobility8QContact7setTypeERKNS_12QContactTypeE@Base 1.1.0
 _ZN10QtMobility8QContact9clearTagsEv@Base 1.2.0
 _ZN10QtMobility8QContactC1ERKS0_@Base 1.1.0
 _ZN10QtMobility8QContactC1Ev@Base 1.1.0
 _ZN10QtMobility8QContactC2ERKS0_@Base 1.1.0
 _ZN10QtMobility8QContactC2Ev@Base 1.1.0
 _ZN10QtMobility8QContactD1Ev@Base 1.1.0
 _ZN10QtMobility8QContactD2Ev@Base 1.1.0
 _ZN10QtMobility8QContactaSERKS0_@Base 1.1.0
 _ZN10QtMobilityanERKNS_14QContactFilterES2_@Base 1.1.0
 _ZN10QtMobilitylsE6QDebugRKNS_10QContactIdE@Base 1.1.0
 _ZN10QtMobilitylsE6QDebugRKNS_14QContactDetailE@Base 1.1.0
 _ZN10QtMobilitylsE6QDebugRKNS_14QContactFilterE@Base 1.2.0
 _ZN10QtMobilitylsE6QDebugRKNS_17QContactFetchHintE@Base 1.2.0
 _ZN10QtMobilitylsE6QDebugRKNS_17QContactSortOrderE@Base 1.2.0
 _ZN10QtMobilitylsE6QDebugRKNS_20QContactActionTargetE@Base 1.1.0
 _ZN10QtMobilitylsE6QDebugRKNS_20QContactRelationshipE@Base 1.1.0
 _ZN10QtMobilitylsE6QDebugRKNS_23QContactAbstractRequestE@Base 1.2.0
 _ZN10QtMobilitylsE6QDebugRKNS_24QContactActionDescriptorE@Base 1.1.0
 _ZN10QtMobilitylsE6QDebugRKNS_24QContactDetailDefinitionE@Base 1.2.0
 _ZN10QtMobilitylsE6QDebugRKNS_29QContactDetailFieldDefinitionE@Base 1.2.0
 _ZN10QtMobilitylsE6QDebugRKNS_8QContactE@Base 1.1.0
 _ZN10QtMobilitylsER11QDataStreamRKNS_10QContactIdE@Base 1.1.0
 _ZN10QtMobilitylsER11QDataStreamRKNS_14QContactDetailE@Base 1.1.0
 _ZN10QtMobilitylsER11QDataStreamRKNS_14QContactFilterE@Base 1.1.0
 _ZN10QtMobilitylsER11QDataStreamRKNS_17QContactFetchHintE@Base 1.1.0
 _ZN10QtMobilitylsER11QDataStreamRKNS_17QContactSortOrderE@Base 1.1.0
 _ZN10QtMobilitylsER11QDataStreamRKNS_20QContactActionTargetE@Base 1.1.0
 _ZN10QtMobilitylsER11QDataStreamRKNS_20QContactRelationshipE@Base 1.1.0
 _ZN10QtMobilitylsER11QDataStreamRKNS_24QContactDetailDefinitionE@Base 1.1.0
 _ZN10QtMobilitylsER11QDataStreamRKNS_29QContactDetailFieldDefinitionE@Base 1.1.0
 _ZN10QtMobilitylsER11QDataStreamRKNS_8QContactE@Base 1.1.0
 _ZN10QtMobilityorERKNS_14QContactFilterES2_@Base 1.1.0
 _ZN10QtMobilityrsER11QDataStreamRNS_10QContactIdE@Base 1.1.0
 _ZN10QtMobilityrsER11QDataStreamRNS_14QContactDetailE@Base 1.1.0
 _ZN10QtMobilityrsER11QDataStreamRNS_14QContactFilterE@Base 1.1.0
 _ZN10QtMobilityrsER11QDataStreamRNS_17QContactFetchHintE@Base 1.1.0
 _ZN10QtMobilityrsER11QDataStreamRNS_17QContactSortOrderE@Base 1.1.0
 _ZN10QtMobilityrsER11QDataStreamRNS_20QContactActionTargetE@Base 1.1.0
 _ZN10QtMobilityrsER11QDataStreamRNS_20QContactRelationshipE@Base 1.1.0
 _ZN10QtMobilityrsER11QDataStreamRNS_24QContactDetailDefinitionE@Base 1.1.0
 _ZN10QtMobilityrsER11QDataStreamRNS_29QContactDetailFieldDefinitionE@Base 1.1.0
 _ZN10QtMobilityrsER11QDataStreamRNS_8QContactE@Base 1.1.0
 _ZN11QDataStreamlsEh@Base 1.1.0
 _ZN11QDataStreamlsEj@Base 1.1.0
 _ZN11QDataStreamrsERh@Base 1.1.0
 _ZN11QDataStreamrsERj@Base 1.1.0
 (arch=powerpc)_ZN15QBasicAtomicInt18fetchAndAddAcquireEi@Base 1.2.0
 _ZN15QBasicAtomicInt18fetchAndAddOrderedEi@Base 1.1.0
 (arch=armhf)_ZN15QBasicAtomicInt18fetchAndAddRelaxedEi@Base 1.2.0
 _ZN15QBasicAtomicInt3refEv@Base 1.1.0
 _ZN15QBasicAtomicInt5derefEv@Base 1.1.0
 _ZN15QBasicAtomicIntC1Ev@Base 1.2.0
 _ZN15QBasicAtomicIntC2Ev@Base 1.2.0
 _ZN5QCharC1E11QLatin1Char@Base 1.1.0
 _ZN5QCharC2E11QLatin1Char@Base 1.1.0
 _ZN5QSizeC1Ev@Base 1.1.0
 _ZN5QSizeC2Ev@Base 1.1.0
 _ZN6QDebug6StreamD1Ev@Base 1.2.0
 _ZN6QDebug6StreamD2Ev@Base 1.2.0
 _ZN7QString5clearEv@Base 1.1.0
 _ZN9QHashData8willGrowEv@Base 1.1.0
 _ZN9QHashData9firstNodeEv@Base 1.1.0
 _ZN9QHashData9hasShrunkEv@Base 1.1.0
 _ZNK10QtMobility10QContactId10managerUriEv@Base 1.1.0
 _ZNK10QtMobility10QContactId7localIdEv@Base 1.1.0
 _ZNK10QtMobility10QContactIdeqERKS0_@Base 1.1.0
 _ZNK10QtMobility10QContactIdltERKS0_@Base 1.1.0
 _ZNK10QtMobility10QContactIdneERKS0_@Base 1.1.0
 _ZNK10QtMobility14QContactAction10metaObjectEv@Base 1.1.0
 _ZNK10QtMobility14QContactDetail12variantValueEPKc@Base 1.1.0
 _ZNK10QtMobility14QContactDetail12variantValueERK7QString@Base 1.1.0
 _ZNK10QtMobility14QContactDetail13variantValuesEv@Base 1.1.0
 _ZNK10QtMobility14QContactDetail14definitionNameEv@Base 1.1.0
 _ZNK10QtMobility14QContactDetail17accessConstraintsEv@Base 1.1.0
 _ZNK10QtMobility14QContactDetail3keyEv@Base 1.1.0
 _ZNK10QtMobility14QContactDetail5valueEPKc@Base 1.1.0
 _ZNK10QtMobility14QContactDetail5valueERK7QString@Base 1.1.0
 (optional=templinst)_ZNK10QtMobility14QContactDetail5valueI9QDateTimeEET_PKc@Base 1.1.0
 (optional=templinst)_ZNK10QtMobility14QContactDetail5valueI9QDateTimeLi18EEET_RKNS_15QLatin1ConstantIXT0_EEE@Base 1.1.0
 (optional=templinst)_ZNK10QtMobility14QContactDetail5valueI9QDateTimeLi22EEET_RKNS_15QLatin1ConstantIXT0_EEE@Base 1.1.0
 (optional=templinst)_ZNK10QtMobility14QContactDetail5valueILi10EEE7QStringRKNS_15QLatin1ConstantIXT_EEE@Base 1.1.0
 (optional=templinst)_ZNK10QtMobility14QContactDetail5valueILi11EEE7QStringRKNS_15QLatin1ConstantIXT_EEE@Base 1.1.0
 (optional=templinst)_ZNK10QtMobility14QContactDetail5valueILi12EEE7QStringRKNS_15QLatin1ConstantIXT_EEE@Base 1.1.0
 (optional=templinst)_ZNK10QtMobility14QContactDetail5valueILi4EEE7QStringRKNS_15QLatin1ConstantIXT_EEE@Base 1.2.0
 (optional=templinst)_ZNK10QtMobility14QContactDetail5valueILi5EEE7QStringRKNS_15QLatin1ConstantIXT_EEE@Base 1.1.0
 (optional=templinst)_ZNK10QtMobility14QContactDetail5valueILi6EEE7QStringRKNS_15QLatin1ConstantIXT_EEE@Base 1.1.0
 (optional=templinst)_ZNK10QtMobility14QContactDetail5valueILi7EEE7QStringRKNS_15QLatin1ConstantIXT_EEE@Base 1.1.0
 (optional=templinst)_ZNK10QtMobility14QContactDetail5valueILi9EEE7QStringRKNS_15QLatin1ConstantIXT_EEE@Base 1.1.0
 _ZNK10QtMobility14QContactDetail7isEmptyEv@Base 1.1.0
 _ZNK10QtMobility14QContactDetail8hasValueEPKc@Base 1.1.0
 _ZNK10QtMobility14QContactDetail8hasValueERK7QString@Base 1.1.0
 _ZNK10QtMobility14QContactDetaileqERKS0_@Base 1.1.0
 _ZNK10QtMobility14QContactFilter4typeEv@Base 1.1.0
 _ZNK10QtMobility14QContactFiltereqERKS0_@Base 1.1.0
 _ZNK10QtMobility15QContactManager10contactIdsERK5QListINS_17QContactSortOrderEE@Base 1.1.0
 _ZNK10QtMobility15QContactManager10contactIdsERKNS_14QContactFilterERK5QListINS_17QContactSortOrderEE@Base 1.1.0
 _ZNK10QtMobility15QContactManager10hasFeatureENS0_14ManagerFeatureERK7QString@Base 1.1.0
 _ZNK10QtMobility15QContactManager10managerUriEv@Base 1.1.0
 _ZNK10QtMobility15QContactManager10metaObjectEv@Base 1.1.0
 _ZNK10QtMobility15QContactManager11managerNameEv@Base 1.1.0
 _ZNK10QtMobility15QContactManager13relationshipsERK7QStringRKNS_10QContactIdENS_20QContactRelationship4RoleE@Base 1.1.0
 _ZNK10QtMobility15QContactManager13relationshipsERKNS_10QContactIdENS_20QContactRelationship4RoleE@Base 1.1.0
 _ZNK10QtMobility15QContactManager13selfContactIdEv@Base 1.1.0
 _ZNK10QtMobility15QContactManager14managerVersionEv@Base 1.1.0
 _ZNK10QtMobility15QContactManager16detailDefinitionERK7QStringS3_@Base 1.1.0
 _ZNK10QtMobility15QContactManager17detailDefinitionsERK7QString@Base 1.1.0
 _ZNK10QtMobility15QContactManager17isFilterSupportedERKNS_14QContactFilterE@Base 1.1.0
 _ZNK10QtMobility15QContactManager17managerParametersEv@Base 1.1.0
 _ZNK10QtMobility15QContactManager18supportedDataTypesEv@Base 1.1.0
 _ZNK10QtMobility15QContactManager21supportedContactTypesEv@Base 1.1.0
 _ZNK10QtMobility15QContactManager27isRelationshipTypeSupportedERK7QStringS3_@Base 1.1.0
 _ZNK10QtMobility15QContactManager29synthesizeContactDisplayLabelEPNS_8QContactE@Base 1.1.0
 _ZNK10QtMobility15QContactManager30synthesizedContactDisplayLabelERKNS_8QContactE@Base 1.1.0
 _ZNK10QtMobility15QContactManager5errorEv@Base 1.1.0
 _ZNK10QtMobility15QContactManager7contactERKjRKNS_17QContactFetchHintE@Base 1.1.0
 _ZNK10QtMobility15QContactManager8contactsERK5QListINS_17QContactSortOrderEERKNS_17QContactFetchHintE@Base 1.1.0
 _ZNK10QtMobility15QContactManager8contactsERK5QListIjERKNS_17QContactFetchHintEP4QMapIiNS0_5ErrorEE@Base 1.1.0
 _ZNK10QtMobility15QContactManager8contactsERKNS_14QContactFilterERK5QListINS_17QContactSortOrderEERKNS_17QContactFetchHintE@Base 1.1.0
 _ZNK10QtMobility15QContactManager8errorMapEv@Base 1.1.0
 _ZNK10QtMobility16QContactObserver10metaObjectEv@Base 1.2.0
 _ZNK10QtMobility16QContactObserver14contactLocalIdEv@Base 1.2.0
 _ZNK10QtMobility17QContactChangeSet13addedContactsEv@Base 1.1.0
 _ZNK10QtMobility17QContactChangeSet15changedContactsEv@Base 1.1.0
 _ZNK10QtMobility17QContactChangeSet15removedContactsEv@Base 1.1.0
 _ZNK10QtMobility17QContactChangeSet22oldAndNewSelfContactIdEv@Base 1.1.0
 _ZNK10QtMobility17QContactChangeSet26addedRelationshipsContactsEv@Base 1.1.0
 _ZNK10QtMobility17QContactChangeSet28removedRelationshipsContactsEv@Base 1.1.0
 _ZNK10QtMobility17QContactFetchHint12maxCountHintEv@Base 1.2.0
 _ZNK10QtMobility17QContactFetchHint17optimizationHintsEv@Base 1.1.0
 _ZNK10QtMobility17QContactFetchHint18preferredImageSizeEv@Base 1.1.0
 _ZNK10QtMobility17QContactFetchHint21detailDefinitionsHintEv@Base 1.1.0
 _ZNK10QtMobility17QContactFetchHint21relationshipTypesHintEv@Base 1.1.0
 _ZNK10QtMobility17QContactSortOrder11blankPolicyEv@Base 1.1.0
 _ZNK10QtMobility17QContactSortOrder15caseSensitivityEv@Base 1.1.0
 _ZNK10QtMobility17QContactSortOrder15detailFieldNameEv@Base 1.1.0
 _ZNK10QtMobility17QContactSortOrder20detailDefinitionNameEv@Base 1.1.0
 _ZNK10QtMobility17QContactSortOrder7isValidEv@Base 1.1.0
 _ZNK10QtMobility17QContactSortOrder9directionEv@Base 1.1.0
 _ZNK10QtMobility17QContactSortOrdereqERKS0_@Base 1.1.0
 _ZNK10QtMobility19QContactSaveRequest10metaObjectEv@Base 1.1.0
 _ZNK10QtMobility19QContactSaveRequest14definitionMaskEv@Base 1.1.0
 (optional=templinst)_ZNK10QtMobility19QContactSaveRequest26qt_check_for_QOBJECT_macroIS0_EEvRKT_@Base 1.1.0
 _ZNK10QtMobility19QContactSaveRequest8contactsEv@Base 1.1.0
 _ZNK10QtMobility19QContactSaveRequest8errorMapEv@Base 1.1.0
 _ZNK10QtMobility19QContactUnionFilter7filtersEv@Base 1.1.0
 _ZNK10QtMobility20QContactActionFilter10actionNameEv@Base 1.1.0
 _ZNK10QtMobility20QContactActionTarget4typeEv@Base 1.1.0
 _ZNK10QtMobility20QContactActionTarget7contactEv@Base 1.1.0
 _ZNK10QtMobility20QContactActionTarget7detailsEv@Base 1.1.0
 _ZNK10QtMobility20QContactActionTarget7isValidEv@Base 1.1.0
 _ZNK10QtMobility20QContactActionTargeteqERKS0_@Base 1.1.0
 _ZNK10QtMobility20QContactActionTargetneERKS0_@Base 1.1.0
 _ZNK10QtMobility20QContactDetailFilter10matchFlagsEv@Base 1.1.0
 _ZNK10QtMobility20QContactDetailFilter15detailFieldNameEv@Base 1.1.0
 _ZNK10QtMobility20QContactDetailFilter20detailDefinitionNameEv@Base 1.1.0
 _ZNK10QtMobility20QContactDetailFilter5valueEv@Base 1.1.0
 _ZNK10QtMobility20QContactFetchRequest10metaObjectEv@Base 1.1.0
 (optional=templinst)_ZNK10QtMobility20QContactFetchRequest26qt_check_for_QOBJECT_macroIS0_EEvRKT_@Base 1.1.0
 _ZNK10QtMobility20QContactFetchRequest6filterEv@Base 1.1.0
 _ZNK10QtMobility20QContactFetchRequest7sortingEv@Base 1.1.0
 _ZNK10QtMobility20QContactFetchRequest8contactsEv@Base 1.1.0
 _ZNK10QtMobility20QContactFetchRequest9fetchHintEv@Base 1.1.0
 _ZNK10QtMobility20QContactRelationship16relationshipTypeEv@Base 1.1.0
 _ZNK10QtMobility20QContactRelationship5firstEv@Base 1.1.0
 _ZNK10QtMobility20QContactRelationship6secondEv@Base 1.1.0
 _ZNK10QtMobility20QContactRelationshipeqERKS0_@Base 1.1.0
 _ZNK10QtMobility21QContactActionFactory10metaObjectEv@Base 1.1.0
 _ZNK10QtMobility21QContactActionFactory15supportsContactERKNS_8QContactERKNS_24QContactActionDescriptorE@Base 1.1.0
 _ZNK10QtMobility21QContactActionFactory16createDescriptorERK7QStringS3_S3_i@Base 1.1.0
 _ZNK10QtMobility21QContactLocalIdFilter3idsEv@Base 1.1.0
 _ZNK10QtMobility21QContactManagerEngine10contactIdsERKNS_14QContactFilterERK5QListINS_17QContactSortOrderEEPNS_15QContactManager5ErrorE@Base 1.1.0
 _ZNK10QtMobility21QContactManagerEngine10hasFeatureENS_15QContactManager14ManagerFeatureERK7QString@Base 1.1.0
 _ZNK10QtMobility21QContactManagerEngine10managerUriEv@Base 1.1.0
 _ZNK10QtMobility21QContactManagerEngine10metaObjectEv@Base 1.1.0
 _ZNK10QtMobility21QContactManagerEngine11managerNameEv@Base 1.1.0
 _ZNK10QtMobility21QContactManagerEngine13relationshipsERK7QStringRKNS_10QContactIdENS_20QContactRelationship4RoleEPNS_15QContactManager5ErrorE@Base 1.1.0
 _ZNK10QtMobility21QContactManagerEngine13selfContactIdEPNS_15QContactManager5ErrorE@Base 1.1.0
 _ZNK10QtMobility21QContactManagerEngine15validateContactERKNS_8QContactEPNS_15QContactManager5ErrorE@Base 1.1.0
 _ZNK10QtMobility21QContactManagerEngine16detailDefinitionERK7QStringS3_PNS_15QContactManager5ErrorE@Base 1.1.0
 _ZNK10QtMobility21QContactManagerEngine17compatibleContactERKNS_8QContactEPNS_15QContactManager5ErrorE@Base 1.1.0
 _ZNK10QtMobility21QContactManagerEngine17detailDefinitionsERK7QStringPNS_15QContactManager5ErrorE@Base 1.1.0
 _ZNK10QtMobility21QContactManagerEngine17isFilterSupportedERKNS_14QContactFilterE@Base 1.1.0
 _ZNK10QtMobility21QContactManagerEngine17managerParametersEv@Base 1.1.0
 _ZNK10QtMobility21QContactManagerEngine18supportedDataTypesEv@Base 1.1.0
 _ZNK10QtMobility21QContactManagerEngine18validateDefinitionERKNS_24QContactDetailDefinitionEPNS_15QContactManager5ErrorE@Base 1.1.0
 _ZNK10QtMobility21QContactManagerEngine21supportedContactTypesEv@Base 1.1.0
 _ZNK10QtMobility21QContactManagerEngine23synthesizedDisplayLabelERKNS_8QContactEPNS_15QContactManager5ErrorE@Base 1.1.0
 _ZNK10QtMobility21QContactManagerEngine27isRelationshipTypeSupportedERK7QStringS3_@Base 1.1.0
 _ZNK10QtMobility21QContactManagerEngine7contactERKjRKNS_17QContactFetchHintEPNS_15QContactManager5ErrorE@Base 1.1.0
 _ZNK10QtMobility21QContactManagerEngine8contactsERKNS_14QContactFilterERK5QListINS_17QContactSortOrderEERKNS_17QContactFetchHintEPNS_15QContactManager5ErrorE@Base 1.1.0
 _ZNK10QtMobility21QContactRemoveRequest10contactIdsEv@Base 1.1.0
 _ZNK10QtMobility21QContactRemoveRequest10metaObjectEv@Base 1.1.0
 _ZNK10QtMobility21QContactRemoveRequest8errorMapEv@Base 1.1.0
 _ZNK10QtMobility23QContactAbstractRequest10isCanceledEv@Base 1.1.0
 _ZNK10QtMobility23QContactAbstractRequest10isFinishedEv@Base 1.1.0
 _ZNK10QtMobility23QContactAbstractRequest10isInactiveEv@Base 1.1.0
 _ZNK10QtMobility23QContactAbstractRequest10metaObjectEv@Base 1.1.0
 (optional=templinst)_ZNK10QtMobility23QContactAbstractRequest26qt_check_for_QOBJECT_macroIS0_EEvRKT_@Base 1.1.0
 _ZNK10QtMobility23QContactAbstractRequest4typeEv@Base 1.1.0
 _ZNK10QtMobility23QContactAbstractRequest5errorEv@Base 1.1.0
 _ZNK10QtMobility23QContactAbstractRequest5stateEv@Base 1.1.0
 _ZNK10QtMobility23QContactAbstractRequest7managerEv@Base 1.1.0
 _ZNK10QtMobility23QContactAbstractRequest8isActiveEv@Base 1.1.0
 _ZNK10QtMobility23QContactChangeLogFilter5sinceEv@Base 1.1.0
 _ZNK10QtMobility23QContactChangeLogFilter9eventTypeEv@Base 1.1.0
 _ZNK10QtMobility23QContactManagerEngineV210metaObjectEv@Base 1.1.0
 _ZNK10QtMobility23QContactManagerEngineV28contactsERK5QListIjERKNS_17QContactFetchHintEP4QMapIiNS_15QContactManager5ErrorEEPSA_@Base 1.1.0
 _ZNK10QtMobility23QContactManagerEngineV28contactsERKNS_14QContactFilterERK5QListINS_17QContactSortOrderEERKNS_17QContactFetchHintEPNS_15QContactManager5ErrorE@Base 1.1.0
 _ZNK10QtMobility24QContactActionDescriptor10actionNameEv@Base 1.1.0
 _ZNK10QtMobility24QContactActionDescriptor11serviceNameEv@Base 1.1.0
 _ZNK10QtMobility24QContactActionDescriptor13contactFilterEv@Base 1.1.0
 _ZNK10QtMobility24QContactActionDescriptor15supportsContactERKNS_8QContactE@Base 1.1.0
 _ZNK10QtMobility24QContactActionDescriptor16actionIdentifierEv@Base 1.1.0
 _ZNK10QtMobility24QContactActionDescriptor16supportedTargetsERKNS_8QContactE@Base 1.1.0
 _ZNK10QtMobility24QContactActionDescriptor21implementationVersionEv@Base 1.1.0
 _ZNK10QtMobility24QContactActionDescriptor7isValidEv@Base 1.1.0
 _ZNK10QtMobility24QContactActionDescriptor8metaDataERK7QStringRK4QMapIS1_8QVariantE@Base 1.1.0
 _ZNK10QtMobility24QContactActionDescriptor8metaDataERK7QStringRK5QListINS_20QContactActionTargetEERK4QMapIS1_8QVariantE@Base 1.1.0
 _ZNK10QtMobility24QContactActionDescriptor8metaDataERK7QStringRKNS_20QContactActionTargetERK4QMapIS1_8QVariantE@Base 1.1.0
 _ZNK10QtMobility24QContactActionDescriptor8metaDataERK7QStringRKNS_8QContactERKNS_14QContactDetailERK4QMapIS1_8QVariantE@Base 1.1.0
 _ZNK10QtMobility24QContactActionDescriptoreqERKS0_@Base 1.1.0
 _ZNK10QtMobility24QContactActionDescriptorneERKS0_@Base 1.1.0
 _ZNK10QtMobility24QContactDetailDefinition4nameEv@Base 1.1.0
 _ZNK10QtMobility24QContactDetailDefinition6fieldsEv@Base 1.1.0
 _ZNK10QtMobility24QContactDetailDefinition7isEmptyEv@Base 1.1.0
 _ZNK10QtMobility24QContactDetailDefinition8isUniqueEv@Base 1.1.0
 _ZNK10QtMobility24QContactDetailDefinitioneqERKS0_@Base 1.1.0
 _ZNK10QtMobility24QContactFetchByIdRequest10metaObjectEv@Base 1.1.0
 (optional=templinst)_ZNK10QtMobility24QContactFetchByIdRequest26qt_check_for_QOBJECT_macroIS0_EEvRKT_@Base 1.1.0
 _ZNK10QtMobility24QContactFetchByIdRequest8contactsEv@Base 1.1.0
 _ZNK10QtMobility24QContactFetchByIdRequest8errorMapEv@Base 1.1.0
 _ZNK10QtMobility24QContactFetchByIdRequest8localIdsEv@Base 1.1.0
 _ZNK10QtMobility24QContactFetchByIdRequest9fetchHintEv@Base 1.1.0
 _ZNK10QtMobility25QContactDetailRangeFilter10matchFlagsEv@Base 1.1.0
 _ZNK10QtMobility25QContactDetailRangeFilter10rangeFlagsEv@Base 1.1.0
 _ZNK10QtMobility25QContactDetailRangeFilter15detailFieldNameEv@Base 1.1.0
 _ZNK10QtMobility25QContactDetailRangeFilter20detailDefinitionNameEv@Base 1.1.0
 _ZNK10QtMobility25QContactDetailRangeFilter8maxValueEv@Base 1.1.0
 _ZNK10QtMobility25QContactDetailRangeFilter8minValueEv@Base 1.1.0
 _ZNK10QtMobility26QContactIntersectionFilter7filtersEv@Base 1.1.0
 _ZNK10QtMobility26QContactRelationshipFilter16relatedContactIdEv@Base 1.1.0
 _ZNK10QtMobility26QContactRelationshipFilter16relationshipTypeEv@Base 1.1.0
 _ZNK10QtMobility26QContactRelationshipFilter18relatedContactRoleEv@Base 1.1.0
 _ZNK10QtMobility27QContactLocalIdFetchRequest10metaObjectEv@Base 1.1.0
 _ZNK10QtMobility27QContactLocalIdFetchRequest3idsEv@Base 1.1.0
 _ZNK10QtMobility27QContactLocalIdFetchRequest6filterEv@Base 1.1.0
 _ZNK10QtMobility27QContactLocalIdFetchRequest7sortingEv@Base 1.1.0
 _ZNK10QtMobility28QContactManagerEngineFactory31supportedImplementationVersionsEv@Base 1.1.0
 _ZNK10QtMobility29QContactDetailFieldDefinition15allowableValuesEv@Base 1.1.0
 _ZNK10QtMobility29QContactDetailFieldDefinition8dataTypeEv@Base 1.1.0
 _ZNK10QtMobility29QContactDetailFieldDefinitioneqERKS0_@Base 1.1.0
 _ZNK10QtMobility29QContactDetailFieldDefinitionneERKS0_@Base 1.1.0
 _ZNK10QtMobility31QContactRelationshipSaveRequest10metaObjectEv@Base 1.1.0
 _ZNK10QtMobility31QContactRelationshipSaveRequest13relationshipsEv@Base 1.1.0
 _ZNK10QtMobility31QContactRelationshipSaveRequest8errorMapEv@Base 1.1.0
 _ZNK10QtMobility32QContactRelationshipFetchRequest10metaObjectEv@Base 1.1.0
 _ZNK10QtMobility32QContactRelationshipFetchRequest13relationshipsEv@Base 1.1.0
 _ZNK10QtMobility32QContactRelationshipFetchRequest16relationshipTypeEv@Base 1.1.0
 _ZNK10QtMobility32QContactRelationshipFetchRequest5firstEv@Base 1.1.0
 _ZNK10QtMobility32QContactRelationshipFetchRequest6secondEv@Base 1.1.0
 _ZNK10QtMobility33QContactRelationshipRemoveRequest10metaObjectEv@Base 1.1.0
 _ZNK10QtMobility33QContactRelationshipRemoveRequest13relationshipsEv@Base 1.1.0
 _ZNK10QtMobility33QContactRelationshipRemoveRequest8errorMapEv@Base 1.1.0
 _ZNK10QtMobility35QContactDetailDefinitionSaveRequest10metaObjectEv@Base 1.1.0
 _ZNK10QtMobility35QContactDetailDefinitionSaveRequest11contactTypeEv@Base 1.1.0
 _ZNK10QtMobility35QContactDetailDefinitionSaveRequest11definitionsEv@Base 1.1.0
 _ZNK10QtMobility35QContactDetailDefinitionSaveRequest8errorMapEv@Base 1.1.0
 _ZNK10QtMobility36QContactDetailDefinitionFetchRequest10metaObjectEv@Base 1.1.0
 _ZNK10QtMobility36QContactDetailDefinitionFetchRequest11contactTypeEv@Base 1.1.0
 _ZNK10QtMobility36QContactDetailDefinitionFetchRequest11definitionsEv@Base 1.1.0
 _ZNK10QtMobility36QContactDetailDefinitionFetchRequest15definitionNamesEv@Base 1.1.0
 _ZNK10QtMobility36QContactDetailDefinitionFetchRequest8errorMapEv@Base 1.1.0
 _ZNK10QtMobility37QContactDetailDefinitionRemoveRequest10metaObjectEv@Base 1.1.0
 _ZNK10QtMobility37QContactDetailDefinitionRemoveRequest11contactTypeEv@Base 1.1.0
 _ZNK10QtMobility37QContactDetailDefinitionRemoveRequest15definitionNamesEv@Base 1.1.0
 _ZNK10QtMobility37QContactDetailDefinitionRemoveRequest8errorMapEv@Base 1.1.0
 _ZNK10QtMobility8QContact12displayLabelEv@Base 1.1.0
 _ZNK10QtMobility8QContact13relationshipsERK7QString@Base 1.1.0
 _ZNK10QtMobility8QContact15preferredDetailERK7QString@Base 1.1.0
 _ZNK10QtMobility8QContact15relatedContactsERK7QStringNS_20QContactRelationship4RoleE@Base 1.1.0
 _ZNK10QtMobility8QContact16availableActionsERK7QString@Base 1.1.0
 _ZNK10QtMobility8QContact16preferredDetailsEv@Base 1.1.0
 _ZNK10QtMobility8QContact17isPreferredDetailERK7QStringRKNS_14QContactDetailE@Base 1.1.0
 _ZNK10QtMobility8QContact2idEv@Base 1.1.0
 _ZNK10QtMobility8QContact4tagsEv@Base 1.2.0
 _ZNK10QtMobility8QContact4typeEv@Base 1.1.0
 _ZNK10QtMobility8QContact6detailEPKc@Base 1.1.0
 _ZNK10QtMobility8QContact6detailERK7QString@Base 1.1.0
 (optional=templinst)_ZNK10QtMobility8QContact6detailILi10EEENS_14QContactDetailERKNS_15QLatin1ConstantIXT_EEE@Base 1.1.0
 _ZNK10QtMobility8QContact7detailsEPKc@Base 1.1.0
 _ZNK10QtMobility8QContact7detailsEPKcS2_RK7QString@Base 1.1.0
 _ZNK10QtMobility8QContact7detailsERK7QString@Base 1.1.0
 _ZNK10QtMobility8QContact7detailsERK7QStringS3_S3_@Base 1.1.0
 (optional=templinst)_ZNK10QtMobility8QContact7detailsILi13EEE5QListINS_14QContactDetailEERKNS_15QLatin1ConstantIXT_EEE@Base 1.1.0
 (optional=templinst)_ZNK10QtMobility8QContact7detailsILi5EEE5QListINS_14QContactDetailEERKNS_15QLatin1ConstantIXT_EEE@Base 1.1.0
 (optional=templinst)_ZNK10QtMobility8QContact7detailsINS_11QContactTagEEE5QListIT_Ev@Base 1.2.0
 _ZNK10QtMobility8QContact7isEmptyEv@Base 1.1.0
 _ZNK10QtMobility8QContact7localIdEv@Base 1.1.0
 _ZNK10QtMobility8QContacteqERKS0_@Base 1.1.0
 _ZNK7QString3argERKS_S1_@Base 1.1.0
 _ZNK7QString3argEiiiRK5QChar@Base 1.1.0
 (optional=templinst)_ZNK8QVariant5valueI9QDateTimeEET_v@Base 1.1.0
 _ZSt4swapIN10QtMobility8QContactEEvRT_S3_@Base 1.2.0
 _ZTI11QSharedData@Base 1.1.0
 _ZTIN10QtMobility14QContactActionE@Base 1.1.0
 _ZTIN10QtMobility15QContactManagerE@Base 1.1.0
 _ZTIN10QtMobility16QContactObserverE@Base 1.2.0
 _ZTIN10QtMobility19QContactSaveRequestE@Base 1.1.0
 _ZTIN10QtMobility20QContactFetchRequestE@Base 1.1.0
 _ZTIN10QtMobility21QContactActionFactoryE@Base 1.1.0
 _ZTIN10QtMobility21QContactManagerEngineE@Base 1.1.0
 _ZTIN10QtMobility21QContactRemoveRequestE@Base 1.1.0
 _ZTIN10QtMobility23QContactAbstractRequestE@Base 1.1.0
 _ZTIN10QtMobility23QContactManagerEngineV2E@Base 1.1.0
 _ZTIN10QtMobility24QContactFetchByIdRequestE@Base 1.1.0
 _ZTIN10QtMobility27QContactLocalIdFetchRequestE@Base 1.1.0
 _ZTIN10QtMobility28QContactManagerEngineFactoryE@Base 1.1.0
 _ZTIN10QtMobility31QContactRelationshipSaveRequestE@Base 1.1.0
 _ZTIN10QtMobility32QContactRelationshipFetchRequestE@Base 1.1.0
 _ZTIN10QtMobility33QContactRelationshipRemoveRequestE@Base 1.1.0
 _ZTIN10QtMobility35QContactDetailDefinitionSaveRequestE@Base 1.1.0
 _ZTIN10QtMobility36QContactDetailDefinitionFetchRequestE@Base 1.1.0
 _ZTIN10QtMobility37QContactDetailDefinitionRemoveRequestE@Base 1.1.0
 _ZTS11QSharedData@Base 1.1.0
 _ZTSN10QtMobility14QContactActionE@Base 1.1.0
 _ZTSN10QtMobility15QContactManagerE@Base 1.1.0
 _ZTSN10QtMobility16QContactObserverE@Base 1.2.0
 _ZTSN10QtMobility19QContactSaveRequestE@Base 1.1.0
 _ZTSN10QtMobility20QContactFetchRequestE@Base 1.1.0
 _ZTSN10QtMobility21QContactActionFactoryE@Base 1.1.0
 _ZTSN10QtMobility21QContactManagerEngineE@Base 1.1.0
 _ZTSN10QtMobility21QContactRemoveRequestE@Base 1.1.0
 _ZTSN10QtMobility23QContactAbstractRequestE@Base 1.1.0
 _ZTSN10QtMobility23QContactManagerEngineV2E@Base 1.1.0
 _ZTSN10QtMobility24QContactFetchByIdRequestE@Base 1.1.0
 _ZTSN10QtMobility27QContactLocalIdFetchRequestE@Base 1.1.0
 _ZTSN10QtMobility28QContactManagerEngineFactoryE@Base 1.1.0
 _ZTSN10QtMobility31QContactRelationshipSaveRequestE@Base 1.1.0
 _ZTSN10QtMobility32QContactRelationshipFetchRequestE@Base 1.1.0
 _ZTSN10QtMobility33QContactRelationshipRemoveRequestE@Base 1.1.0
 _ZTSN10QtMobility35QContactDetailDefinitionSaveRequestE@Base 1.1.0
 _ZTSN10QtMobility36QContactDetailDefinitionFetchRequestE@Base 1.1.0
 _ZTSN10QtMobility37QContactDetailDefinitionRemoveRequestE@Base 1.1.0
 _ZTVN10QtMobility14QContactActionE@Base 1.1.0
 _ZTVN10QtMobility15QContactManagerE@Base 1.1.0
 _ZTVN10QtMobility16QContactObserverE@Base 1.2.0
 _ZTVN10QtMobility19QContactSaveRequestE@Base 1.1.0
 _ZTVN10QtMobility20QContactFetchRequestE@Base 1.1.0
 _ZTVN10QtMobility21QContactActionFactoryE@Base 1.1.0
 _ZTVN10QtMobility21QContactManagerEngineE@Base 1.1.0
 _ZTVN10QtMobility21QContactRemoveRequestE@Base 1.1.0
 _ZTVN10QtMobility23QContactAbstractRequestE@Base 1.1.0
 _ZTVN10QtMobility23QContactManagerEngineV2E@Base 1.1.0
 _ZTVN10QtMobility24QContactFetchByIdRequestE@Base 1.1.0
 _ZTVN10QtMobility27QContactLocalIdFetchRequestE@Base 1.1.0
 _ZTVN10QtMobility28QContactManagerEngineFactoryE@Base 1.1.0
 _ZTVN10QtMobility31QContactRelationshipSaveRequestE@Base 1.1.0
 _ZTVN10QtMobility32QContactRelationshipFetchRequestE@Base 1.1.0
 _ZTVN10QtMobility33QContactRelationshipRemoveRequestE@Base 1.1.0
 _ZTVN10QtMobility35QContactDetailDefinitionSaveRequestE@Base 1.1.0
 _ZTVN10QtMobility36QContactDetailDefinitionFetchRequestE@Base 1.1.0
 _ZTVN10QtMobility37QContactDetailDefinitionRemoveRequestE@Base 1.1.0
