# SymbolsHelper-Confirmed: 1.2.0 amd64 i386
libQtPublishSubscribe.so.1 libqtpublishsubscribe1 #MINVER#
 _Z6qDebugv@Base 1.1.0
 _Z8qWarningv@Base 1.1.0
 _ZN10QByteArray4dataEv@Base 1.1.0
 _ZN10QByteArraypLERKS_@Base 1.1.0
 _ZN10QtMobility11QValueSpace15availableLayersEv@Base 1.1.0
 _ZN10QtMobility11QValueSpace20initValueSpaceServerEv@Base 1.1.0
 _ZN10QtMobility20QValueSpacePublisher10resetValueERK7QString@Base 1.1.0
 _ZN10QtMobility20QValueSpacePublisher11qt_metacallEN11QMetaObject4CallEiPPv@Base 1.1.0
 _ZN10QtMobility20QValueSpacePublisher11qt_metacastEPKc@Base 1.1.0
 _ZN10QtMobility20QValueSpacePublisher13connectNotifyEPKc@Base 1.1.0
 _ZN10QtMobility20QValueSpacePublisher15interestChangedERK7QStringb@Base 1.1.0
 _ZN10QtMobility20QValueSpacePublisher16staticMetaObjectE@Base 1.1.0
 _ZN10QtMobility20QValueSpacePublisher4syncEv@Base 1.1.0
 _ZN10QtMobility20QValueSpacePublisher8setValueERK7QStringRK8QVariant@Base 1.1.0
 _ZN10QtMobility20QValueSpacePublisherC1E6QFlagsINS_11QValueSpace11LayerOptionEERK7QStringP7QObject@Base 1.1.0
 _ZN10QtMobility20QValueSpacePublisherC1ERK5QUuidRK7QStringP7QObject@Base 1.1.0
 _ZN10QtMobility20QValueSpacePublisherC1ERK7QStringP7QObject@Base 1.1.0
 _ZN10QtMobility20QValueSpacePublisherC2E6QFlagsINS_11QValueSpace11LayerOptionEERK7QStringP7QObject@Base 1.1.0
 _ZN10QtMobility20QValueSpacePublisherC2ERK5QUuidRK7QStringP7QObject@Base 1.1.0
 _ZN10QtMobility20QValueSpacePublisherC2ERK7QStringP7QObject@Base 1.1.0
 _ZN10QtMobility20QValueSpacePublisherD0Ev@Base 1.1.0
 _ZN10QtMobility20QValueSpacePublisherD1Ev@Base 1.1.0
 _ZN10QtMobility20QValueSpacePublisherD2Ev@Base 1.1.0
 _ZN10QtMobility21QValueSpaceSubscriber11qt_metacallEN11QMetaObject4CallEiPPv@Base 1.1.0
 _ZN10QtMobility21QValueSpaceSubscriber11qt_metacastEPKc@Base 1.1.0
 _ZN10QtMobility21QValueSpaceSubscriber13connectNotifyEPKc@Base 1.1.0
 _ZN10QtMobility21QValueSpaceSubscriber15contentsChangedEv@Base 1.1.0
 _ZN10QtMobility21QValueSpaceSubscriber16disconnectNotifyEPKc@Base 1.1.0
 _ZN10QtMobility21QValueSpaceSubscriber16staticMetaObjectE@Base 1.1.0
 _ZN10QtMobility21QValueSpaceSubscriber2cdERK7QString@Base 1.1.0
 _ZN10QtMobility21QValueSpaceSubscriber4cdUpEv@Base 1.1.0
 _ZN10QtMobility21QValueSpaceSubscriber7setPathEPS0_@Base 1.1.0
 _ZN10QtMobility21QValueSpaceSubscriber7setPathERK7QString@Base 1.1.0
 _ZN10QtMobility21QValueSpaceSubscriberC1E6QFlagsINS_11QValueSpace11LayerOptionEERK7QStringP7QObject@Base 1.1.0
 _ZN10QtMobility21QValueSpaceSubscriberC1EP7QObject@Base 1.1.0
 _ZN10QtMobility21QValueSpaceSubscriberC1ERK5QUuidRK7QStringP7QObject@Base 1.1.0
 _ZN10QtMobility21QValueSpaceSubscriberC1ERK7QStringP7QObject@Base 1.1.0
 _ZN10QtMobility21QValueSpaceSubscriberC2E6QFlagsINS_11QValueSpace11LayerOptionEERK7QStringP7QObject@Base 1.1.0
 _ZN10QtMobility21QValueSpaceSubscriberC2EP7QObject@Base 1.1.0
 _ZN10QtMobility21QValueSpaceSubscriberC2ERK5QUuidRK7QStringP7QObject@Base 1.1.0
 _ZN10QtMobility21QValueSpaceSubscriberC2ERK7QStringP7QObject@Base 1.1.0
 _ZN10QtMobility21QValueSpaceSubscriberD0Ev@Base 1.1.0
 _ZN10QtMobility21QValueSpaceSubscriberD1Ev@Base 1.1.0
 _ZN10QtMobility21QValueSpaceSubscriberD2Ev@Base 1.1.0
 _ZN11QDataStreamlsEh@Base 1.1.0
 _ZN11QDataStreamlsEj@Base 1.1.0
 (arch=amd64)_ZN11QDataStreamlsEy@Base 1.1.0
 _ZN11QDataStreamrsERh@Base 1.1.0
 _ZN11QDataStreamrsERj@Base 1.1.0
 (arch=amd64)_ZN11QDataStreamrsERy@Base 1.1.0
 _ZN15QBasicAtomicInt3refEv@Base 1.1.0
 _ZN15QBasicAtomicInt5derefEv@Base 1.1.0
#MISSING: 1.2.0# _ZN15QBasicAtomicIntC1Ev@Base 1.2.0
#MISSING: 1.2.0# _ZN15QBasicAtomicIntC2Ev@Base 1.2.0
 _ZN5QCharC1E11QLatin1Char@Base 1.1.0
 _ZN5QCharC2E11QLatin1Char@Base 1.1.0
#MISSING: 1.2.0# _ZN6QDebug6StreamD1Ev@Base 1.2.0
#MISSING: 1.2.0# _ZN6QDebug6StreamD2Ev@Base 1.2.0
 _ZN7QString5clearEv@Base 1.1.0
 _ZN9QHashData8willGrowEv@Base 1.1.0
 _ZN9QHashData9firstNodeEv@Base 1.1.0
 _ZN9QHashData9hasShrunkEv@Base 1.1.0
 _ZNK10QByteArray7isEmptyEv@Base 1.1.0
 _ZNK10QByteArraycvPKcEv@Base 1.1.0
 _ZNK10QtMobility20QValueSpacePublisher10metaObjectEv@Base 1.1.0
 _ZNK10QtMobility20QValueSpacePublisher11isConnectedEv@Base 1.1.0
 _ZNK10QtMobility20QValueSpacePublisher4pathEv@Base 1.1.0
 _ZNK10QtMobility21QValueSpaceSubscriber10metaObjectEv@Base 1.1.0
 _ZNK10QtMobility21QValueSpaceSubscriber11isConnectedEv@Base 1.1.0
 _ZNK10QtMobility21QValueSpaceSubscriber4pathEv@Base 1.1.0
 _ZNK10QtMobility21QValueSpaceSubscriber5valueERK7QStringRK8QVariant@Base 1.1.0
 _ZNK10QtMobility21QValueSpaceSubscriber6valuexERK8QVariant@Base 1.1.0
 _ZNK10QtMobility21QValueSpaceSubscriber8subPathsEv@Base 1.1.0
 _ZNK7QStringixEi@Base 1.1.0
 _ZTIN10QtMobility20QValueSpacePublisherE@Base 1.1.0
 _ZTIN10QtMobility21QValueSpaceSubscriberE@Base 1.1.0
 _ZTSN10QtMobility20QValueSpacePublisherE@Base 1.1.0
 _ZTSN10QtMobility21QValueSpaceSubscriberE@Base 1.1.0
 _ZTVN10QtMobility20QValueSpacePublisherE@Base 1.1.0
 _ZTVN10QtMobility21QValueSpaceSubscriberE@Base 1.1.0
