# SymbolsHelper-Confirmed: 1.2.0 amd64 i386
libQtSensors.so.1 libqtsensors1 #MINVER#
 _Z6qDebugv@Base 1.1.0
 _Z8qWarningv@Base 1.1.0
 _ZN10QByteArray4dataEv@Base 1.1.0
 _ZN10QtMobility10QGyroscope11qt_metacallEN11QMetaObject4CallEiPPv@Base 1.2.0
 _ZN10QtMobility10QGyroscope11qt_metacastEPKc@Base 1.2.0
 _ZN10QtMobility10QGyroscope16staticMetaObjectE@Base 1.2.0
 _ZN10QtMobility10QGyroscope4typeE@Base 1.2.0
 _ZN10QtMobility10QTapSensor11qt_metacallEN11QMetaObject4CallEiPPv@Base 1.1.0
 _ZN10QtMobility10QTapSensor11qt_metacastEPKc@Base 1.1.0
 _ZN10QtMobility10QTapSensor16staticMetaObjectE@Base 1.1.0
 _ZN10QtMobility10QTapSensor4typeE@Base 1.1.0
 _ZN10QtMobility11QTapReading11qt_metacallEN11QMetaObject4CallEiPPv@Base 1.1.0
 _ZN10QtMobility11QTapReading11qt_metacastEPKc@Base 1.1.0
 _ZN10QtMobility11QTapReading12setDoubleTapEb@Base 1.1.0
 _ZN10QtMobility11QTapReading14copyValuesFromEPNS_14QSensorReadingE@Base 1.1.0
 _ZN10QtMobility11QTapReading15setTapDirectionENS0_12TapDirectionE@Base 1.1.0
 _ZN10QtMobility11QTapReading16staticMetaObjectE@Base 1.1.0
 _ZN10QtMobility11QTapReadingC1EP7QObject@Base 1.1.0
 _ZN10QtMobility11QTapReadingC2EP7QObject@Base 1.1.0
 _ZN10QtMobility11QTapReadingD0Ev@Base 1.1.0
 _ZN10QtMobility11QTapReadingD1Ev@Base 1.1.0
 _ZN10QtMobility11QTapReadingD2Ev@Base 1.1.0
 _ZN10QtMobility12QLightSensor11qt_metacallEN11QMetaObject4CallEiPPv@Base 1.2.0
 _ZN10QtMobility12QLightSensor11qt_metacastEPKc@Base 1.2.0
 _ZN10QtMobility12QLightSensor16staticMetaObjectE@Base 1.2.0
 _ZN10QtMobility12QLightSensor4typeE@Base 1.2.0
 _ZN10QtMobility13QLightReading11qt_metacallEN11QMetaObject4CallEiPPv@Base 1.2.0
 _ZN10QtMobility13QLightReading11qt_metacastEPKc@Base 1.2.0
 _ZN10QtMobility13QLightReading14copyValuesFromEPNS_14QSensorReadingE@Base 1.2.0
 _ZN10QtMobility13QLightReading16staticMetaObjectE@Base 1.2.0
 (subst)_ZN10QtMobility13QLightReading6setLuxE{qreal}@Base 1.2.0
 _ZN10QtMobility13QLightReadingC1EP7QObject@Base 1.2.0
 _ZN10QtMobility13QLightReadingC2EP7QObject@Base 1.2.0
 _ZN10QtMobility13QLightReadingD0Ev@Base 1.2.0
 _ZN10QtMobility13QLightReadingD1Ev@Base 1.2.0
 _ZN10QtMobility13QLightReadingD2Ev@Base 1.2.0
 _ZN10QtMobility13QMagnetometer11qt_metacallEN11QMetaObject4CallEiPPv@Base 1.1.0
 _ZN10QtMobility13QMagnetometer11qt_metacastEPKc@Base 1.1.0
 _ZN10QtMobility13QMagnetometer16staticMetaObjectE@Base 1.1.0
 _ZN10QtMobility13QMagnetometer4typeE@Base 1.1.0
 _ZN10QtMobility13QSensorFilter9setSensorEPNS_7QSensorE@Base 1.1.0
 _ZN10QtMobility13QSensorFilterC1Ev@Base 1.1.0
 _ZN10QtMobility13QSensorFilterC2Ev@Base 1.1.0
 _ZN10QtMobility13QSensorFilterD1Ev@Base 1.1.0
 _ZN10QtMobility13QSensorFilterD2Ev@Base 1.1.0
 _ZN10QtMobility14QAccelerometer11qt_metacallEN11QMetaObject4CallEiPPv@Base 1.1.0
 _ZN10QtMobility14QAccelerometer11qt_metacastEPKc@Base 1.1.0
 _ZN10QtMobility14QAccelerometer16staticMetaObjectE@Base 1.1.0
 _ZN10QtMobility14QAccelerometer4typeE@Base 1.1.0
 _ZN10QtMobility14QSensorBackend10sensorBusyEv@Base 1.1.0
 (subst)_ZN10QtMobility14QSensorBackend11addDataRateE{qreal}{qreal}@Base 1.1.0
 _ZN10QtMobility14QSensorBackend11qt_metacallEN11QMetaObject4CallEiPPv@Base 1.1.0
 _ZN10QtMobility14QSensorBackend11qt_metacastEPKc@Base 1.1.0
 _ZN10QtMobility14QSensorBackend11sensorErrorEi@Base 1.1.0
 _ZN10QtMobility14QSensorBackend11setReadingsEPNS_14QSensorReadingES2_S2_@Base 1.1.0
 _ZN10QtMobility14QSensorBackend12setDataRatesEPKNS_7QSensorE@Base 1.1.0
 _ZN10QtMobility14QSensorBackend13sensorStoppedEv@Base 1.1.0
 (subst)_ZN10QtMobility14QSensorBackend14addOutputRangeE{qreal}{qreal}{qreal}@Base 1.1.0
 _ZN10QtMobility14QSensorBackend14setDescriptionERK7QString@Base 1.1.0
 _ZN10QtMobility14QSensorBackend16staticMetaObjectE@Base 1.1.0
 _ZN10QtMobility14QSensorBackend19newReadingAvailableEv@Base 1.1.0
 _ZN10QtMobility14QSensorBackendC1EPNS_7QSensorE@Base 1.1.0
 _ZN10QtMobility14QSensorBackendC2EPNS_7QSensorE@Base 1.1.0
 _ZN10QtMobility14QSensorBackendD0Ev@Base 1.1.0
 _ZN10QtMobility14QSensorBackendD1Ev@Base 1.1.0
 _ZN10QtMobility14QSensorBackendD2Ev@Base 1.1.0
 _ZN10QtMobility14QSensorManager13createBackendEPNS_7QSensorE@Base 1.1.0
 _ZN10QtMobility14QSensorManager15registerBackendERK10QByteArrayS3_PNS_21QSensorBackendFactoryE@Base 1.1.0
 _ZN10QtMobility14QSensorManager17unregisterBackendERK10QByteArrayS3_@Base 1.2.0
 _ZN10QtMobility14QSensorManager19isBackendRegisteredERK10QByteArrayS3_@Base 1.2.0
 _ZN10QtMobility14QSensorManager20registerStaticPluginEPFPNS_22QSensorPluginInterfaceEvE@Base 1.1.0
 _ZN10QtMobility14QSensorReading11qt_metacallEN11QMetaObject4CallEiPPv@Base 1.1.0
 _ZN10QtMobility14QSensorReading11qt_metacastEPKc@Base 1.1.0
 _ZN10QtMobility14QSensorReading12setTimestampENS_10qtimestampE@Base 1.1.0
 _ZN10QtMobility14QSensorReading14copyValuesFromEPS0_@Base 1.1.0
 _ZN10QtMobility14QSensorReading16staticMetaObjectE@Base 1.1.0
 _ZN10QtMobility14QSensorReadingC1EP7QObjectPNS_21QSensorReadingPrivateE@Base 1.1.0
 _ZN10QtMobility14QSensorReadingC2EP7QObjectPNS_21QSensorReadingPrivateE@Base 1.1.0
 _ZN10QtMobility14QSensorReadingD0Ev@Base 1.1.0
 _ZN10QtMobility14QSensorReadingD1Ev@Base 1.1.0
 _ZN10QtMobility14QSensorReadingD2Ev@Base 1.1.0
 (subst)_ZN10QtMobility15QCompassReading10setAzimuthE{qreal}@Base 1.1.0
 _ZN10QtMobility15QCompassReading11qt_metacallEN11QMetaObject4CallEiPPv@Base 1.1.0
 _ZN10QtMobility15QCompassReading11qt_metacastEPKc@Base 1.1.0
 _ZN10QtMobility15QCompassReading14copyValuesFromEPNS_14QSensorReadingE@Base 1.1.0
 _ZN10QtMobility15QCompassReading16staticMetaObjectE@Base 1.1.0
 (subst)_ZN10QtMobility15QCompassReading19setCalibrationLevelE{qreal}@Base 1.1.0
 _ZN10QtMobility15QCompassReadingC1EP7QObject@Base 1.1.0
 _ZN10QtMobility15QCompassReadingC2EP7QObject@Base 1.1.0
 _ZN10QtMobility15QCompassReadingD0Ev@Base 1.1.0
 _ZN10QtMobility15QCompassReadingD1Ev@Base 1.1.0
 _ZN10QtMobility15QCompassReadingD2Ev@Base 1.1.0
 _ZN10QtMobility15QRotationSensor11qt_metacallEN11QMetaObject4CallEiPPv@Base 1.1.0
 _ZN10QtMobility15QRotationSensor11qt_metacastEPKc@Base 1.1.0
 _ZN10QtMobility15QRotationSensor16staticMetaObjectE@Base 1.1.0
 _ZN10QtMobility15QRotationSensor4typeE@Base 1.1.0
 _ZN10QtMobility16QProximitySensor11qt_metacallEN11QMetaObject4CallEiPPv@Base 1.1.0
 _ZN10QtMobility16QProximitySensor11qt_metacastEPKc@Base 1.1.0
 _ZN10QtMobility16QProximitySensor16staticMetaObjectE@Base 1.1.0
 _ZN10QtMobility16QProximitySensor4typeE@Base 1.1.0
 _ZN10QtMobility16QRotationReading11qt_metacallEN11QMetaObject4CallEiPPv@Base 1.1.0
 _ZN10QtMobility16QRotationReading11qt_metacastEPKc@Base 1.1.0
 _ZN10QtMobility16QRotationReading14copyValuesFromEPNS_14QSensorReadingE@Base 1.1.0
 _ZN10QtMobility16QRotationReading16staticMetaObjectE@Base 1.1.0
 (subst)_ZN10QtMobility16QRotationReading4setXE{qreal}@Base 1.1.0
 (subst)_ZN10QtMobility16QRotationReading4setYE{qreal}@Base 1.1.0
 (subst)_ZN10QtMobility16QRotationReading4setZE{qreal}@Base 1.1.0
 _ZN10QtMobility16QRotationReadingC1EP7QObject@Base 1.1.0
 _ZN10QtMobility16QRotationReadingC2EP7QObject@Base 1.1.0
 _ZN10QtMobility16QRotationReadingD0Ev@Base 1.1.0
 _ZN10QtMobility16QRotationReadingD1Ev@Base 1.1.0
 _ZN10QtMobility16QRotationReadingD2Ev@Base 1.1.0
 _ZN10QtMobility17QGyroscopeReading11qt_metacallEN11QMetaObject4CallEiPPv@Base 1.2.0
 _ZN10QtMobility17QGyroscopeReading11qt_metacastEPKc@Base 1.2.0
 _ZN10QtMobility17QGyroscopeReading14copyValuesFromEPNS_14QSensorReadingE@Base 1.2.0
 _ZN10QtMobility17QGyroscopeReading16staticMetaObjectE@Base 1.2.0
 (subst)_ZN10QtMobility17QGyroscopeReading4setXE{qreal}@Base 1.2.0
 (subst)_ZN10QtMobility17QGyroscopeReading4setYE{qreal}@Base 1.2.0
 (subst)_ZN10QtMobility17QGyroscopeReading4setZE{qreal}@Base 1.2.0
 _ZN10QtMobility17QGyroscopeReadingC1EP7QObject@Base 1.2.0
 _ZN10QtMobility17QGyroscopeReadingC2EP7QObject@Base 1.2.0
 _ZN10QtMobility17QGyroscopeReadingD0Ev@Base 1.2.0
 _ZN10QtMobility17QGyroscopeReadingD1Ev@Base 1.2.0
 _ZN10QtMobility17QGyroscopeReadingD2Ev@Base 1.2.0
 _ZN10QtMobility17QProximityReading11qt_metacallEN11QMetaObject4CallEiPPv@Base 1.1.0
 _ZN10QtMobility17QProximityReading11qt_metacastEPKc@Base 1.1.0
 _ZN10QtMobility17QProximityReading14copyValuesFromEPNS_14QSensorReadingE@Base 1.1.0
 _ZN10QtMobility17QProximityReading16staticMetaObjectE@Base 1.1.0
 _ZN10QtMobility17QProximityReading8setCloseEb@Base 1.1.0
 _ZN10QtMobility17QProximityReadingC1EP7QObject@Base 1.1.0
 _ZN10QtMobility17QProximityReadingC2EP7QObject@Base 1.1.0
 _ZN10QtMobility17QProximityReadingD0Ev@Base 1.1.0
 _ZN10QtMobility17QProximityReadingD1Ev@Base 1.1.0
 _ZN10QtMobility17QProximityReadingD2Ev@Base 1.1.0
 _ZN10QtMobility18QOrientationSensor11qt_metacallEN11QMetaObject4CallEiPPv@Base 1.1.0
 _ZN10QtMobility18QOrientationSensor11qt_metacastEPKc@Base 1.1.0
 _ZN10QtMobility18QOrientationSensor16staticMetaObjectE@Base 1.1.0
 _ZN10QtMobility18QOrientationSensor4typeE@Base 1.1.0
 _ZN10QtMobility19QAmbientLightSensor11qt_metacallEN11QMetaObject4CallEiPPv@Base 1.1.0
 _ZN10QtMobility19QAmbientLightSensor11qt_metacastEPKc@Base 1.1.0
 _ZN10QtMobility19QAmbientLightSensor16staticMetaObjectE@Base 1.1.0
 _ZN10QtMobility19QAmbientLightSensor4typeE@Base 1.1.0
 _ZN10QtMobility19QOrientationReading11qt_metacallEN11QMetaObject4CallEiPPv@Base 1.1.0
 _ZN10QtMobility19QOrientationReading11qt_metacastEPKc@Base 1.1.0
 _ZN10QtMobility19QOrientationReading14copyValuesFromEPNS_14QSensorReadingE@Base 1.1.0
 _ZN10QtMobility19QOrientationReading14setOrientationENS0_11OrientationE@Base 1.1.0
 _ZN10QtMobility19QOrientationReading16staticMetaObjectE@Base 1.1.0
 _ZN10QtMobility19QOrientationReadingC1EP7QObject@Base 1.1.0
 _ZN10QtMobility19QOrientationReadingC2EP7QObject@Base 1.1.0
 _ZN10QtMobility19QOrientationReadingD0Ev@Base 1.1.0
 _ZN10QtMobility19QOrientationReadingD1Ev@Base 1.1.0
 _ZN10QtMobility19QOrientationReadingD2Ev@Base 1.1.0
 _ZN10QtMobility20QAmbientLightReading11qt_metacallEN11QMetaObject4CallEiPPv@Base 1.1.0
 _ZN10QtMobility20QAmbientLightReading11qt_metacastEPKc@Base 1.1.0
 _ZN10QtMobility20QAmbientLightReading13setLightLevelENS0_10LightLevelE@Base 1.1.0
 _ZN10QtMobility20QAmbientLightReading14copyValuesFromEPNS_14QSensorReadingE@Base 1.1.0
 _ZN10QtMobility20QAmbientLightReading16staticMetaObjectE@Base 1.1.0
 _ZN10QtMobility20QAmbientLightReadingC1EP7QObject@Base 1.1.0
 _ZN10QtMobility20QAmbientLightReadingC2EP7QObject@Base 1.1.0
 _ZN10QtMobility20QAmbientLightReadingD0Ev@Base 1.1.0
 _ZN10QtMobility20QAmbientLightReadingD1Ev@Base 1.1.0
 _ZN10QtMobility20QAmbientLightReadingD2Ev@Base 1.1.0
 _ZN10QtMobility20QMagnetometerReading11qt_metacallEN11QMetaObject4CallEiPPv@Base 1.1.0
 _ZN10QtMobility20QMagnetometerReading11qt_metacastEPKc@Base 1.1.0
 _ZN10QtMobility20QMagnetometerReading14copyValuesFromEPNS_14QSensorReadingE@Base 1.1.0
 _ZN10QtMobility20QMagnetometerReading16staticMetaObjectE@Base 1.1.0
 (subst)_ZN10QtMobility20QMagnetometerReading19setCalibrationLevelE{qreal}@Base 1.1.0
 (subst)_ZN10QtMobility20QMagnetometerReading4setXE{qreal}@Base 1.1.0
 (subst)_ZN10QtMobility20QMagnetometerReading4setYE{qreal}@Base 1.1.0
 (subst)_ZN10QtMobility20QMagnetometerReading4setZE{qreal}@Base 1.1.0
 _ZN10QtMobility20QMagnetometerReadingC1EP7QObject@Base 1.1.0
 _ZN10QtMobility20QMagnetometerReadingC2EP7QObject@Base 1.1.0
 _ZN10QtMobility20QMagnetometerReadingD0Ev@Base 1.1.0
 _ZN10QtMobility20QMagnetometerReadingD1Ev@Base 1.1.0
 _ZN10QtMobility20QMagnetometerReadingD2Ev@Base 1.1.0
 _ZN10QtMobility21QAccelerometerReading11qt_metacallEN11QMetaObject4CallEiPPv@Base 1.1.0
 _ZN10QtMobility21QAccelerometerReading11qt_metacastEPKc@Base 1.1.0
 _ZN10QtMobility21QAccelerometerReading14copyValuesFromEPNS_14QSensorReadingE@Base 1.1.0
 _ZN10QtMobility21QAccelerometerReading16staticMetaObjectE@Base 1.1.0
 (subst)_ZN10QtMobility21QAccelerometerReading4setXE{qreal}@Base 1.1.0
 (subst)_ZN10QtMobility21QAccelerometerReading4setYE{qreal}@Base 1.1.0
 (subst)_ZN10QtMobility21QAccelerometerReading4setZE{qreal}@Base 1.1.0
 _ZN10QtMobility21QAccelerometerReadingC1EP7QObject@Base 1.1.0
 _ZN10QtMobility21QAccelerometerReadingC2EP7QObject@Base 1.1.0
 _ZN10QtMobility21QAccelerometerReadingD0Ev@Base 1.1.0
 _ZN10QtMobility21QAccelerometerReadingD1Ev@Base 1.1.0
 _ZN10QtMobility21QAccelerometerReadingD2Ev@Base 1.1.0
 _ZN10QtMobility22sensors_unit_test_hookEi@Base 1.1.0
 _ZN10QtMobility7QSensor11busyChangedEv@Base 1.1.0
 _ZN10QtMobility7QSensor11qt_metacallEN11QMetaObject4CallEiPPv@Base 1.1.0
 _ZN10QtMobility7QSensor11qt_metacastEPKc@Base 1.1.0
 _ZN10QtMobility7QSensor11sensorErrorEi@Base 1.1.0
 _ZN10QtMobility7QSensor11sensorTypesEv@Base 1.1.0
 _ZN10QtMobility7QSensor11setDataRateEi@Base 1.1.0
 _ZN10QtMobility7QSensor12removeFilterEPNS_13QSensorFilterE@Base 1.1.0
 _ZN10QtMobility7QSensor13activeChangedEv@Base 1.1.0
 _ZN10QtMobility7QSensor13setIdentifierERK10QByteArray@Base 1.1.0
 _ZN10QtMobility7QSensor14readingChangedEv@Base 1.1.0
 _ZN10QtMobility7QSensor14sensorsForTypeERK10QByteArray@Base 1.1.0
 _ZN10QtMobility7QSensor14setOutputRangeEi@Base 1.1.0
 _ZN10QtMobility7QSensor16connectToBackendEv@Base 1.1.0
 _ZN10QtMobility7QSensor16registerInstanceEv@Base 1.2.0
 _ZN10QtMobility7QSensor16staticMetaObjectE@Base 1.1.0
 _ZN10QtMobility7QSensor20defaultSensorForTypeERK10QByteArray@Base 1.1.0
 _ZN10QtMobility7QSensor23availableSensorsChangedEv@Base 1.2.0
 _ZN10QtMobility7QSensor4stopEv@Base 1.1.0
 _ZN10QtMobility7QSensor5startEv@Base 1.1.0
 _ZN10QtMobility7QSensor9addFilterEPNS_13QSensorFilterE@Base 1.1.0
 _ZN10QtMobility7QSensor9setActiveEb@Base 1.1.0
 _ZN10QtMobility7QSensorC1ERK10QByteArrayP7QObject@Base 1.1.0
 _ZN10QtMobility7QSensorC2ERK10QByteArrayP7QObject@Base 1.1.0
 _ZN10QtMobility7QSensorD0Ev@Base 1.1.0
 _ZN10QtMobility7QSensorD1Ev@Base 1.1.0
 _ZN10QtMobility7QSensorD2Ev@Base 1.1.0
 _ZN10QtMobility8QCompass11qt_metacallEN11QMetaObject4CallEiPPv@Base 1.1.0
 _ZN10QtMobility8QCompass11qt_metacastEPKc@Base 1.1.0
 _ZN10QtMobility8QCompass16staticMetaObjectE@Base 1.1.0
 _ZN10QtMobility8QCompass4typeE@Base 1.1.0
 _ZN15QBasicAtomicInt3refEv@Base 1.1.0
 _ZN15QBasicAtomicInt5derefEv@Base 1.1.0
 _ZN5QCharC1E11QLatin1Char@Base 1.1.0
 _ZN5QCharC2E11QLatin1Char@Base 1.1.0
#MISSING: 1.2.0# _ZN6QDebug6StreamD1Ev@Base 1.2.0
#MISSING: 1.2.0# _ZN6QDebug6StreamD2Ev@Base 1.2.0
 _ZN9QHashData8willGrowEv@Base 1.1.0
 _ZN9QHashData9firstNodeEv@Base 1.1.0
 _ZN9QHashData9hasShrunkEv@Base 1.2.0
 _ZNK10QByteArray7isEmptyEv@Base 1.1.0
 _ZNK10QByteArraycvPKcEv@Base 1.1.0
 _ZNK10QtMobility10QGyroscope10metaObjectEv@Base 1.2.0
 _ZNK10QtMobility10QTapSensor10metaObjectEv@Base 1.1.0
 _ZNK10QtMobility11QTapReading10metaObjectEv@Base 1.1.0
 _ZNK10QtMobility11QTapReading11isDoubleTapEv@Base 1.1.0
 _ZNK10QtMobility11QTapReading12tapDirectionEv@Base 1.1.0
 _ZNK10QtMobility12QLightSensor10metaObjectEv@Base 1.2.0
 _ZNK10QtMobility13QLightReading10metaObjectEv@Base 1.2.0
 _ZNK10QtMobility13QLightReading3luxEv@Base 1.2.0
 _ZNK10QtMobility13QMagnetometer10metaObjectEv@Base 1.1.0
 _ZNK10QtMobility14QAccelerometer10metaObjectEv@Base 1.1.0
 _ZNK10QtMobility14QSensorBackend10metaObjectEv@Base 1.1.0
 _ZNK10QtMobility14QSensorBackend7readingEv@Base 1.1.0
 _ZNK10QtMobility14QSensorReading10metaObjectEv@Base 1.1.0
 _ZNK10QtMobility14QSensorReading10valueCountEv@Base 1.1.0
 _ZNK10QtMobility14QSensorReading5valueEi@Base 1.1.0
 _ZNK10QtMobility14QSensorReading9timestampEv@Base 1.1.0
 _ZNK10QtMobility15QCompassReading10metaObjectEv@Base 1.1.0
 _ZNK10QtMobility15QCompassReading16calibrationLevelEv@Base 1.1.0
 _ZNK10QtMobility15QCompassReading7azimuthEv@Base 1.1.0
 _ZNK10QtMobility15QRotationSensor10metaObjectEv@Base 1.1.0
 _ZNK10QtMobility16QProximitySensor10metaObjectEv@Base 1.1.0
 _ZNK10QtMobility16QRotationReading10metaObjectEv@Base 1.1.0
 _ZNK10QtMobility16QRotationReading1xEv@Base 1.1.0
 _ZNK10QtMobility16QRotationReading1yEv@Base 1.1.0
 _ZNK10QtMobility16QRotationReading1zEv@Base 1.1.0
 _ZNK10QtMobility17QGyroscopeReading10metaObjectEv@Base 1.2.0
 _ZNK10QtMobility17QGyroscopeReading1xEv@Base 1.2.0
 _ZNK10QtMobility17QGyroscopeReading1yEv@Base 1.2.0
 _ZNK10QtMobility17QGyroscopeReading1zEv@Base 1.2.0
 _ZNK10QtMobility17QProximityReading10metaObjectEv@Base 1.1.0
 _ZNK10QtMobility17QProximityReading5closeEv@Base 1.1.0
 _ZNK10QtMobility18QOrientationSensor10metaObjectEv@Base 1.1.0
 _ZNK10QtMobility19QAmbientLightSensor10metaObjectEv@Base 1.1.0
 _ZNK10QtMobility19QOrientationReading10metaObjectEv@Base 1.1.0
 _ZNK10QtMobility19QOrientationReading11orientationEv@Base 1.1.0
 _ZNK10QtMobility20QAmbientLightReading10lightLevelEv@Base 1.1.0
 _ZNK10QtMobility20QAmbientLightReading10metaObjectEv@Base 1.1.0
 _ZNK10QtMobility20QMagnetometerReading10metaObjectEv@Base 1.1.0
 _ZNK10QtMobility20QMagnetometerReading16calibrationLevelEv@Base 1.1.0
 _ZNK10QtMobility20QMagnetometerReading1xEv@Base 1.1.0
 _ZNK10QtMobility20QMagnetometerReading1yEv@Base 1.1.0
 _ZNK10QtMobility20QMagnetometerReading1zEv@Base 1.1.0
 _ZNK10QtMobility21QAccelerometerReading10metaObjectEv@Base 1.1.0
 _ZNK10QtMobility21QAccelerometerReading1xEv@Base 1.1.0
 _ZNK10QtMobility21QAccelerometerReading1yEv@Base 1.1.0
 _ZNK10QtMobility21QAccelerometerReading1zEv@Base 1.1.0
 _ZNK10QtMobility7QSensor10identifierEv@Base 1.1.0
 _ZNK10QtMobility7QSensor10metaObjectEv@Base 1.1.0
 _ZNK10QtMobility7QSensor11descriptionEv@Base 1.1.0
 _ZNK10QtMobility7QSensor11outputRangeEv@Base 1.1.0
 _ZNK10QtMobility7QSensor12outputRangesEv@Base 1.1.0
 _ZNK10QtMobility7QSensor18availableDataRatesEv@Base 1.1.0
 _ZNK10QtMobility7QSensor20isConnectedToBackendEv@Base 1.1.0
 _ZNK10QtMobility7QSensor4typeEv@Base 1.1.0
 _ZNK10QtMobility7QSensor5errorEv@Base 1.1.0
 _ZNK10QtMobility7QSensor6isBusyEv@Base 1.1.0
 _ZNK10QtMobility7QSensor7filtersEv@Base 1.2.0
 _ZNK10QtMobility7QSensor7readingEv@Base 1.1.0
 _ZNK10QtMobility7QSensor8dataRateEv@Base 1.1.0
 _ZNK10QtMobility7QSensor8isActiveEv@Base 1.1.0
 _ZNK10QtMobility8QCompass10metaObjectEv@Base 1.1.0
 _ZTIN10QtMobility10QGyroscopeE@Base 1.2.0
 _ZTIN10QtMobility10QTapSensorE@Base 1.1.0
 _ZTIN10QtMobility11QTapReadingE@Base 1.1.0
 _ZTIN10QtMobility12QLightSensorE@Base 1.2.0
 _ZTIN10QtMobility13QLightReadingE@Base 1.2.0
 _ZTIN10QtMobility13QMagnetometerE@Base 1.1.0
 _ZTIN10QtMobility13QSensorFilterE@Base 1.1.0
 _ZTIN10QtMobility14QAccelerometerE@Base 1.1.0
 _ZTIN10QtMobility14QSensorBackendE@Base 1.1.0
 _ZTIN10QtMobility14QSensorReadingE@Base 1.1.0
 _ZTIN10QtMobility15QCompassReadingE@Base 1.1.0
 _ZTIN10QtMobility15QRotationSensorE@Base 1.1.0
 _ZTIN10QtMobility16QProximitySensorE@Base 1.1.0
 _ZTIN10QtMobility16QRotationReadingE@Base 1.1.0
 _ZTIN10QtMobility17QGyroscopeReadingE@Base 1.2.0
 _ZTIN10QtMobility17QProximityReadingE@Base 1.1.0
 _ZTIN10QtMobility18QOrientationSensorE@Base 1.1.0
 _ZTIN10QtMobility19QAmbientLightSensorE@Base 1.1.0
 _ZTIN10QtMobility19QOrientationReadingE@Base 1.1.0
 _ZTIN10QtMobility20QAmbientLightReadingE@Base 1.1.0
 _ZTIN10QtMobility20QMagnetometerReadingE@Base 1.1.0
 _ZTIN10QtMobility21QAccelerometerReadingE@Base 1.1.0
 _ZTIN10QtMobility7QSensorE@Base 1.1.0
 _ZTIN10QtMobility8QCompassE@Base 1.1.0
 _ZTSN10QtMobility10QGyroscopeE@Base 1.2.0
 _ZTSN10QtMobility10QTapSensorE@Base 1.1.0
 _ZTSN10QtMobility11QTapReadingE@Base 1.1.0
 _ZTSN10QtMobility12QLightSensorE@Base 1.2.0
 _ZTSN10QtMobility13QLightReadingE@Base 1.2.0
 _ZTSN10QtMobility13QMagnetometerE@Base 1.1.0
 _ZTSN10QtMobility13QSensorFilterE@Base 1.1.0
 _ZTSN10QtMobility14QAccelerometerE@Base 1.1.0
 _ZTSN10QtMobility14QSensorBackendE@Base 1.1.0
 _ZTSN10QtMobility14QSensorReadingE@Base 1.1.0
 _ZTSN10QtMobility15QCompassReadingE@Base 1.1.0
 _ZTSN10QtMobility15QRotationSensorE@Base 1.1.0
 _ZTSN10QtMobility16QProximitySensorE@Base 1.1.0
 _ZTSN10QtMobility16QRotationReadingE@Base 1.1.0
 _ZTSN10QtMobility17QGyroscopeReadingE@Base 1.2.0
 _ZTSN10QtMobility17QProximityReadingE@Base 1.1.0
 _ZTSN10QtMobility18QOrientationSensorE@Base 1.1.0
 _ZTSN10QtMobility19QAmbientLightSensorE@Base 1.1.0
 _ZTSN10QtMobility19QOrientationReadingE@Base 1.1.0
 _ZTSN10QtMobility20QAmbientLightReadingE@Base 1.1.0
 _ZTSN10QtMobility20QMagnetometerReadingE@Base 1.1.0
 _ZTSN10QtMobility21QAccelerometerReadingE@Base 1.1.0
 _ZTSN10QtMobility7QSensorE@Base 1.1.0
 _ZTSN10QtMobility8QCompassE@Base 1.1.0
 _ZTVN10QtMobility10QGyroscopeE@Base 1.2.0
 _ZTVN10QtMobility10QTapSensorE@Base 1.1.0
 _ZTVN10QtMobility11QTapReadingE@Base 1.1.0
 _ZTVN10QtMobility12QLightSensorE@Base 1.2.0
 _ZTVN10QtMobility13QLightReadingE@Base 1.2.0
 _ZTVN10QtMobility13QMagnetometerE@Base 1.1.0
 _ZTVN10QtMobility13QSensorFilterE@Base 1.1.0
 _ZTVN10QtMobility14QAccelerometerE@Base 1.1.0
 _ZTVN10QtMobility14QSensorBackendE@Base 1.1.0
 _ZTVN10QtMobility14QSensorReadingE@Base 1.1.0
 _ZTVN10QtMobility15QCompassReadingE@Base 1.1.0
 _ZTVN10QtMobility15QRotationSensorE@Base 1.1.0
 _ZTVN10QtMobility16QProximitySensorE@Base 1.1.0
 _ZTVN10QtMobility16QRotationReadingE@Base 1.1.0
 _ZTVN10QtMobility17QGyroscopeReadingE@Base 1.2.0
 _ZTVN10QtMobility17QProximityReadingE@Base 1.1.0
 _ZTVN10QtMobility18QOrientationSensorE@Base 1.1.0
 _ZTVN10QtMobility19QAmbientLightSensorE@Base 1.1.0
 _ZTVN10QtMobility19QOrientationReadingE@Base 1.1.0
 _ZTVN10QtMobility20QAmbientLightReadingE@Base 1.1.0
 _ZTVN10QtMobility20QMagnetometerReadingE@Base 1.1.0
 _ZTVN10QtMobility21QAccelerometerReadingE@Base 1.1.0
 _ZTVN10QtMobility7QSensorE@Base 1.1.0
 _ZTVN10QtMobility8QCompassE@Base 1.1.0
