# SymbolsHelper-Confirmed: 1.1.0 i386
libQtMessaging.so.1 libqtmessaging1 #MINVER#
 _Z8qWarningv@Base 1.1.0
 _ZN10QByteArray4dataEv@Base 1.1.0
 _ZN10QtMobility10QMessageIdC1ERK7QString@Base 1.1.0
 _ZN10QtMobility10QMessageIdC1ERKS0_@Base 1.1.0
 _ZN10QtMobility10QMessageIdC1Ev@Base 1.1.0
 _ZN10QtMobility10QMessageIdC2ERK7QString@Base 1.1.0
 _ZN10QtMobility10QMessageIdC2ERKS0_@Base 1.1.0
 _ZN10QtMobility10QMessageIdC2Ev@Base 1.1.0
 _ZN10QtMobility10QMessageIdD1Ev@Base 1.1.0
 _ZN10QtMobility10QMessageIdD2Ev@Base 1.1.0
 _ZN10QtMobility10QMessageIdaSERKS0_@Base 1.1.0
 _ZN10QtMobility14QMessageFilter10byPriorityENS_8QMessage8PriorityENS_22QMessageDataComparator18EqualityComparatorE@Base 1.1.0
 _ZN10QtMobility14QMessageFilter11byTimeStampERK9QDateTimeNS_22QMessageDataComparator18EqualityComparatorE@Base 1.1.0
 _ZN10QtMobility14QMessageFilter11byTimeStampERK9QDateTimeNS_22QMessageDataComparator18RelationComparatorE@Base 1.1.0
 _ZN10QtMobility14QMessageFilter12byRecipientsERK7QStringNS_22QMessageDataComparator19InclusionComparatorE@Base 1.1.0
 _ZN10QtMobility14QMessageFilter13setMatchFlagsE6QFlagsINS_22QMessageDataComparator9MatchFlagEE@Base 1.1.0
 _ZN10QtMobility14QMessageFilter16byParentFolderIdERKNS_16QMessageFolderIdENS_22QMessageDataComparator18EqualityComparatorE@Base 1.1.0
 _ZN10QtMobility14QMessageFilter16byParentFolderIdERKNS_20QMessageFolderFilterENS_22QMessageDataComparator19InclusionComparatorE@Base 1.1.0
 _ZN10QtMobility14QMessageFilter16byStandardFolderENS_8QMessage14StandardFolderENS_22QMessageDataComparator18EqualityComparatorE@Base 1.1.0
 _ZN10QtMobility14QMessageFilter17byParentAccountIdERKNS_17QMessageAccountIdENS_22QMessageDataComparator18EqualityComparatorE@Base 1.1.0
 _ZN10QtMobility14QMessageFilter17byParentAccountIdERKNS_21QMessageAccountFilterENS_22QMessageDataComparator19InclusionComparatorE@Base 1.1.0
 _ZN10QtMobility14QMessageFilter19byAncestorFolderIdsERKNS_16QMessageFolderIdENS_22QMessageDataComparator19InclusionComparatorE@Base 1.1.0
 _ZN10QtMobility14QMessageFilter19byAncestorFolderIdsERKNS_20QMessageFolderFilterENS_22QMessageDataComparator19InclusionComparatorE@Base 1.1.0
 _ZN10QtMobility14QMessageFilter20byReceptionTimeStampERK9QDateTimeNS_22QMessageDataComparator18EqualityComparatorE@Base 1.1.0
 _ZN10QtMobility14QMessageFilter20byReceptionTimeStampERK9QDateTimeNS_22QMessageDataComparator18RelationComparatorE@Base 1.1.0
 _ZN10QtMobility14QMessageFilter4byIdERK5QListINS_10QMessageIdEENS_22QMessageDataComparator19InclusionComparatorE@Base 1.1.0
 _ZN10QtMobility14QMessageFilter4byIdERKNS_10QMessageIdENS_22QMessageDataComparator18EqualityComparatorE@Base 1.1.0
 _ZN10QtMobility14QMessageFilter4byIdERKS0_NS_22QMessageDataComparator19InclusionComparatorE@Base 1.1.0
 _ZN10QtMobility14QMessageFilter6bySizeEiNS_22QMessageDataComparator18EqualityComparatorE@Base 1.1.0
 _ZN10QtMobility14QMessageFilter6bySizeEiNS_22QMessageDataComparator18RelationComparatorE@Base 1.1.0
 _ZN10QtMobility14QMessageFilter6byTypeE6QFlagsINS_8QMessage4TypeEENS_22QMessageDataComparator19InclusionComparatorE@Base 1.1.0
 _ZN10QtMobility14QMessageFilter6byTypeENS_8QMessage4TypeENS_22QMessageDataComparator18EqualityComparatorE@Base 1.1.0
 _ZN10QtMobility14QMessageFilter8bySenderERK7QStringNS_22QMessageDataComparator18EqualityComparatorE@Base 1.1.0
 _ZN10QtMobility14QMessageFilter8bySenderERK7QStringNS_22QMessageDataComparator19InclusionComparatorE@Base 1.1.0
 _ZN10QtMobility14QMessageFilter8byStatusE6QFlagsINS_8QMessage6StatusEENS_22QMessageDataComparator19InclusionComparatorE@Base 1.1.0
 _ZN10QtMobility14QMessageFilter8byStatusENS_8QMessage6StatusENS_22QMessageDataComparator18EqualityComparatorE@Base 1.1.0
 _ZN10QtMobility14QMessageFilter9bySubjectERK7QStringNS_22QMessageDataComparator18EqualityComparatorE@Base 1.1.0
 _ZN10QtMobility14QMessageFilter9bySubjectERK7QStringNS_22QMessageDataComparator19InclusionComparatorE@Base 1.1.0
 _ZN10QtMobility14QMessageFilterC1ERKS0_@Base 1.1.0
 _ZN10QtMobility14QMessageFilterC1Ev@Base 1.1.0
 _ZN10QtMobility14QMessageFilterC2ERKS0_@Base 1.1.0
 _ZN10QtMobility14QMessageFilterC2Ev@Base 1.1.0
 _ZN10QtMobility14QMessageFilterD0Ev@Base 1.1.0
 _ZN10QtMobility14QMessageFilterD1Ev@Base 1.1.0
 _ZN10QtMobility14QMessageFilterD2Ev@Base 1.1.0
 _ZN10QtMobility14QMessageFilteraNERKS0_@Base 1.1.0
 _ZN10QtMobility14QMessageFilteraSERKS0_@Base 1.1.0
 _ZN10QtMobility14QMessageFilteroRERKS0_@Base 1.1.0
 _ZN10QtMobility14QMessageFolderC1ERKNS_16QMessageFolderIdE@Base 1.1.0
 _ZN10QtMobility14QMessageFolderC1ERKS0_@Base 1.1.0
 _ZN10QtMobility14QMessageFolderC1Ev@Base 1.1.0
 _ZN10QtMobility14QMessageFolderC2ERKNS_16QMessageFolderIdE@Base 1.1.0
 _ZN10QtMobility14QMessageFolderC2ERKS0_@Base 1.1.0
 _ZN10QtMobility14QMessageFolderC2Ev@Base 1.1.0
 _ZN10QtMobility14QMessageFolderD0Ev@Base 1.1.0
 _ZN10QtMobility14QMessageFolderD1Ev@Base 1.1.0
 _ZN10QtMobility14QMessageFolderD2Ev@Base 1.1.0
 _ZN10QtMobility14QMessageFolderaSERKS0_@Base 1.1.0
 _ZN10QtMobility15QMessageAccount14defaultAccountENS_8QMessage4TypeE@Base 1.1.0
 _ZN10QtMobility15QMessageAccountC1ERKNS_17QMessageAccountIdE@Base 1.1.0
 _ZN10QtMobility15QMessageAccountC1ERKS0_@Base 1.1.0
 _ZN10QtMobility15QMessageAccountC1Ev@Base 1.1.0
 _ZN10QtMobility15QMessageAccountC2ERKNS_17QMessageAccountIdE@Base 1.1.0
 _ZN10QtMobility15QMessageAccountC2ERKS0_@Base 1.1.0
 _ZN10QtMobility15QMessageAccountC2Ev@Base 1.1.0
 _ZN10QtMobility15QMessageAccountD0Ev@Base 1.1.0
 _ZN10QtMobility15QMessageAccountD1Ev@Base 1.1.0
 _ZN10QtMobility15QMessageAccountD2Ev@Base 1.1.0
 _ZN10QtMobility15QMessageAccountaSERKS0_@Base 1.1.0
 _ZN10QtMobility15QMessageAddress12setAddresseeERK7QString@Base 1.1.0
 _ZN10QtMobility15QMessageAddress17parseEmailAddressERK7QStringPS1_S4_S4_PbS5_@Base 1.1.0
 _ZN10QtMobility15QMessageAddress7setTypeENS0_4TypeE@Base 1.1.0
 _ZN10QtMobility15QMessageAddressC1ENS0_4TypeERK7QString@Base 1.1.0
 _ZN10QtMobility15QMessageAddressC1ERKS0_@Base 1.1.0
 _ZN10QtMobility15QMessageAddressC1Ev@Base 1.1.0
 _ZN10QtMobility15QMessageAddressC2ENS0_4TypeERK7QString@Base 1.1.0
 _ZN10QtMobility15QMessageAddressC2ERKS0_@Base 1.1.0
 _ZN10QtMobility15QMessageAddressC2Ev@Base 1.1.0
 _ZN10QtMobility15QMessageAddressD0Ev@Base 1.1.0
 _ZN10QtMobility15QMessageAddressD1Ev@Base 1.1.0
 _ZN10QtMobility15QMessageAddressD2Ev@Base 1.1.0
 _ZN10QtMobility15QMessageAddressaSERKS0_@Base 1.1.0
 _ZN10QtMobility15QMessageManager10addMessageEPNS_8QMessageE@Base 1.1.0
 _ZN10QtMobility15QMessageManager11qt_metacallEN11QMetaObject4CallEiPPv@Base 1.1.0
 _ZN10QtMobility15QMessageManager11qt_metacastEPKc@Base 1.1.0
 _ZN10QtMobility15QMessageManager12messageAddedERKNS_10QMessageIdERK4QSetIiE@Base 1.1.0
 _ZN10QtMobility15QMessageManager13removeMessageERKNS_10QMessageIdENS0_13RemovalOptionE@Base 1.1.0
 _ZN10QtMobility15QMessageManager13updateMessageEPNS_8QMessageE@Base 1.1.0
 _ZN10QtMobility15QMessageManager14messageRemovedERKNS_10QMessageIdERK4QSetIiE@Base 1.1.0
 _ZN10QtMobility15QMessageManager14messageUpdatedERKNS_10QMessageIdERK4QSetIiE@Base 1.1.0
 _ZN10QtMobility15QMessageManager14removeMessagesERKNS_14QMessageFilterENS0_13RemovalOptionE@Base 1.1.0
 _ZN10QtMobility15QMessageManager16staticMetaObjectE@Base 1.1.0
 _ZN10QtMobility15QMessageManager26registerNotificationFilterERKNS_14QMessageFilterE@Base 1.1.0
 _ZN10QtMobility15QMessageManager28unregisterNotificationFilterEi@Base 1.1.0
 _ZN10QtMobility15QMessageManagerC1EP7QObject@Base 1.1.0
 _ZN10QtMobility15QMessageManagerC2EP7QObject@Base 1.1.0
 _ZN10QtMobility15QMessageManagerD0Ev@Base 1.1.0
 _ZN10QtMobility15QMessageManagerD1Ev@Base 1.1.0
 _ZN10QtMobility15QMessageManagerD2Ev@Base 1.1.0
 _ZN10QtMobility15QMessageService11qt_metacallEN11QMetaObject4CallEiPPv@Base 1.1.0
 _ZN10QtMobility15QMessageService11qt_metacastEPKc@Base 1.1.0
 _ZN10QtMobility15QMessageService12retrieveBodyERKNS_10QMessageIdE@Base 1.1.0
 _ZN10QtMobility15QMessageService12stateChangedENS0_5StateE@Base 1.1.0
 _ZN10QtMobility15QMessageService13countMessagesERKNS_14QMessageFilterE@Base 1.1.0
 _ZN10QtMobility15QMessageService13exportUpdatesERKNS_17QMessageAccountIdE@Base 1.1.0
 _ZN10QtMobility15QMessageService13messagesFoundERK5QListINS_10QMessageIdEE@Base 1.1.0
 _ZN10QtMobility15QMessageService13queryMessagesERKNS_14QMessageFilterERK7QString6QFlagsINS_22QMessageDataComparator9MatchFlagEERKNS_17QMessageSortOrderEjj@Base 1.1.0
 _ZN10QtMobility15QMessageService13queryMessagesERKNS_14QMessageFilterERKNS_17QMessageSortOrderEjj@Base 1.1.0
 _ZN10QtMobility15QMessageService14retrieveHeaderERKNS_10QMessageIdE@Base 1.1.0
 _ZN10QtMobility15QMessageService15messagesCountedEi@Base 1.1.0
 _ZN10QtMobility15QMessageService15progressChangedEjj@Base 1.1.0
 _ZN10QtMobility15QMessageService16staticMetaObjectE@Base 1.1.0
 _ZN10QtMobility15QMessageService4sendERNS_8QMessageE@Base 1.1.0
 _ZN10QtMobility15QMessageService4showERKNS_10QMessageIdE@Base 1.1.0
 _ZN10QtMobility15QMessageService6cancelEv@Base 1.1.0
 _ZN10QtMobility15QMessageService7composeERKNS_8QMessageE@Base 1.1.0
 _ZN10QtMobility15QMessageService8retrieveERKNS_10QMessageIdERKNS_26QMessageContentContainerIdE@Base 1.1.0
 _ZN10QtMobility15QMessageServiceC1EP7QObject@Base 1.1.0
 _ZN10QtMobility15QMessageServiceC2EP7QObject@Base 1.1.0
 _ZN10QtMobility15QMessageServiceD0Ev@Base 1.1.0
 _ZN10QtMobility15QMessageServiceD1Ev@Base 1.1.0
 _ZN10QtMobility15QMessageServiceD2Ev@Base 1.1.0
 _ZN10QtMobility16QMessageFolderIdC1ERK7QString@Base 1.1.0
 _ZN10QtMobility16QMessageFolderIdC1ERKS0_@Base 1.1.0
 _ZN10QtMobility16QMessageFolderIdC1Ev@Base 1.1.0
 _ZN10QtMobility16QMessageFolderIdC2ERK7QString@Base 1.1.0
 _ZN10QtMobility16QMessageFolderIdC2ERKS0_@Base 1.1.0
 _ZN10QtMobility16QMessageFolderIdC2Ev@Base 1.1.0
 _ZN10QtMobility16QMessageFolderIdD1Ev@Base 1.1.0
 _ZN10QtMobility16QMessageFolderIdD2Ev@Base 1.1.0
 _ZN10QtMobility16QMessageFolderIdaSERKS0_@Base 1.1.0
 _ZN10QtMobility17QMessageAccountIdC1ERK7QString@Base 1.1.0
 _ZN10QtMobility17QMessageAccountIdC1ERKS0_@Base 1.1.0
 _ZN10QtMobility17QMessageAccountIdC1Ev@Base 1.1.0
 _ZN10QtMobility17QMessageAccountIdC2ERK7QString@Base 1.1.0
 _ZN10QtMobility17QMessageAccountIdC2ERKS0_@Base 1.1.0
 _ZN10QtMobility17QMessageAccountIdC2Ev@Base 1.1.0
 _ZN10QtMobility17QMessageAccountIdD1Ev@Base 1.1.0
 _ZN10QtMobility17QMessageAccountIdD2Ev@Base 1.1.0
 _ZN10QtMobility17QMessageAccountIdaSERKS0_@Base 1.1.0
 _ZN10QtMobility17QMessageSortOrder10byPriorityEN2Qt9SortOrderE@Base 1.1.0
 _ZN10QtMobility17QMessageSortOrder11byTimeStampEN2Qt9SortOrderE@Base 1.1.0
 _ZN10QtMobility17QMessageSortOrder12byRecipientsEN2Qt9SortOrderE@Base 1.1.0
 _ZN10QtMobility17QMessageSortOrder20byReceptionTimeStampEN2Qt9SortOrderE@Base 1.1.0
 _ZN10QtMobility17QMessageSortOrder6bySizeEN2Qt9SortOrderE@Base 1.1.0
 _ZN10QtMobility17QMessageSortOrder6byTypeEN2Qt9SortOrderE@Base 1.1.0
 _ZN10QtMobility17QMessageSortOrder8bySenderEN2Qt9SortOrderE@Base 1.1.0
 _ZN10QtMobility17QMessageSortOrder8byStatusENS_8QMessage6StatusEN2Qt9SortOrderE@Base 1.1.0
 _ZN10QtMobility17QMessageSortOrder9bySubjectEN2Qt9SortOrderE@Base 1.1.0
 _ZN10QtMobility17QMessageSortOrderC1ERKS0_@Base 1.1.0
 _ZN10QtMobility17QMessageSortOrderC1Ev@Base 1.1.0
 _ZN10QtMobility17QMessageSortOrderC2ERKS0_@Base 1.1.0
 _ZN10QtMobility17QMessageSortOrderC2Ev@Base 1.1.0
 _ZN10QtMobility17QMessageSortOrderD0Ev@Base 1.1.0
 _ZN10QtMobility17QMessageSortOrderD1Ev@Base 1.1.0
 _ZN10QtMobility17QMessageSortOrderD2Ev@Base 1.1.0
 _ZN10QtMobility17QMessageSortOrderaSERKS0_@Base 1.1.0
 _ZN10QtMobility17QMessageSortOrderpLERKS0_@Base 1.1.0
 _ZN10QtMobility20QMessageFolderFilter13setMatchFlagsE6QFlagsINS_22QMessageDataComparator9MatchFlagEE@Base 1.1.0
 _ZN10QtMobility20QMessageFolderFilter16byParentFolderIdERKNS_16QMessageFolderIdENS_22QMessageDataComparator18EqualityComparatorE@Base 1.1.0
 _ZN10QtMobility20QMessageFolderFilter16byParentFolderIdERKS0_NS_22QMessageDataComparator19InclusionComparatorE@Base 1.1.0
 _ZN10QtMobility20QMessageFolderFilter17byParentAccountIdERKNS_17QMessageAccountIdENS_22QMessageDataComparator18EqualityComparatorE@Base 1.1.0
 _ZN10QtMobility20QMessageFolderFilter17byParentAccountIdERKNS_21QMessageAccountFilterENS_22QMessageDataComparator19InclusionComparatorE@Base 1.1.0
 _ZN10QtMobility20QMessageFolderFilter19byAncestorFolderIdsERKNS_16QMessageFolderIdENS_22QMessageDataComparator19InclusionComparatorE@Base 1.1.0
 _ZN10QtMobility20QMessageFolderFilter19byAncestorFolderIdsERKS0_NS_22QMessageDataComparator19InclusionComparatorE@Base 1.1.0
 _ZN10QtMobility20QMessageFolderFilter4byIdERK5QListINS_16QMessageFolderIdEENS_22QMessageDataComparator19InclusionComparatorE@Base 1.1.0
 _ZN10QtMobility20QMessageFolderFilter4byIdERKNS_16QMessageFolderIdENS_22QMessageDataComparator18EqualityComparatorE@Base 1.1.0
 _ZN10QtMobility20QMessageFolderFilter4byIdERKS0_NS_22QMessageDataComparator19InclusionComparatorE@Base 1.1.0
 _ZN10QtMobility20QMessageFolderFilter6byNameERK7QStringNS_22QMessageDataComparator18EqualityComparatorE@Base 1.1.0
 _ZN10QtMobility20QMessageFolderFilter6byNameERK7QStringNS_22QMessageDataComparator19InclusionComparatorE@Base 1.1.0
 _ZN10QtMobility20QMessageFolderFilter6byPathERK7QStringNS_22QMessageDataComparator18EqualityComparatorE@Base 1.1.0
 _ZN10QtMobility20QMessageFolderFilter6byPathERK7QStringNS_22QMessageDataComparator19InclusionComparatorE@Base 1.1.0
 _ZN10QtMobility20QMessageFolderFilterC1ERKS0_@Base 1.1.0
 _ZN10QtMobility20QMessageFolderFilterC1Ev@Base 1.1.0
 _ZN10QtMobility20QMessageFolderFilterC2ERKS0_@Base 1.1.0
 _ZN10QtMobility20QMessageFolderFilterC2Ev@Base 1.1.0
 _ZN10QtMobility20QMessageFolderFilterD0Ev@Base 1.1.0
 _ZN10QtMobility20QMessageFolderFilterD1Ev@Base 1.1.0
 _ZN10QtMobility20QMessageFolderFilterD2Ev@Base 1.1.0
 _ZN10QtMobility20QMessageFolderFilteraNERKS0_@Base 1.1.0
 _ZN10QtMobility20QMessageFolderFilteraSERKS0_@Base 1.1.0
 _ZN10QtMobility20QMessageFolderFilteroRERKS0_@Base 1.1.0
 _ZN10QtMobility21QMessageAccountFilter13setMatchFlagsE6QFlagsINS_22QMessageDataComparator9MatchFlagEE@Base 1.1.0
 _ZN10QtMobility21QMessageAccountFilter4byIdERK5QListINS_17QMessageAccountIdEENS_22QMessageDataComparator19InclusionComparatorE@Base 1.1.0
 _ZN10QtMobility21QMessageAccountFilter4byIdERKNS_17QMessageAccountIdENS_22QMessageDataComparator18EqualityComparatorE@Base 1.1.0
 _ZN10QtMobility21QMessageAccountFilter4byIdERKS0_NS_22QMessageDataComparator19InclusionComparatorE@Base 1.1.0
 _ZN10QtMobility21QMessageAccountFilter6byNameERK7QStringNS_22QMessageDataComparator18EqualityComparatorE@Base 1.1.0
 _ZN10QtMobility21QMessageAccountFilter6byNameERK7QStringNS_22QMessageDataComparator19InclusionComparatorE@Base 1.1.0
 _ZN10QtMobility21QMessageAccountFilterC1ERKS0_@Base 1.1.0
 _ZN10QtMobility21QMessageAccountFilterC1Ev@Base 1.1.0
 _ZN10QtMobility21QMessageAccountFilterC2ERKS0_@Base 1.1.0
 _ZN10QtMobility21QMessageAccountFilterC2Ev@Base 1.1.0
 _ZN10QtMobility21QMessageAccountFilterD0Ev@Base 1.1.0
 _ZN10QtMobility21QMessageAccountFilterD1Ev@Base 1.1.0
 _ZN10QtMobility21QMessageAccountFilterD2Ev@Base 1.1.0
 _ZN10QtMobility21QMessageAccountFilteraNERKS0_@Base 1.1.0
 _ZN10QtMobility21QMessageAccountFilteraSERKS0_@Base 1.1.0
 _ZN10QtMobility21QMessageAccountFilteroRERKS0_@Base 1.1.0
 _ZN10QtMobility23QMessageFolderSortOrder6byNameEN2Qt9SortOrderE@Base 1.1.0
 _ZN10QtMobility23QMessageFolderSortOrder6byPathEN2Qt9SortOrderE@Base 1.1.0
 _ZN10QtMobility23QMessageFolderSortOrderC1ERKS0_@Base 1.1.0
 _ZN10QtMobility23QMessageFolderSortOrderC1Ev@Base 1.1.0
 _ZN10QtMobility23QMessageFolderSortOrderC2ERKS0_@Base 1.1.0
 _ZN10QtMobility23QMessageFolderSortOrderC2Ev@Base 1.1.0
 _ZN10QtMobility23QMessageFolderSortOrderD0Ev@Base 1.1.0
 _ZN10QtMobility23QMessageFolderSortOrderD1Ev@Base 1.1.0
 _ZN10QtMobility23QMessageFolderSortOrderD2Ev@Base 1.1.0
 _ZN10QtMobility23QMessageFolderSortOrderaSERKS0_@Base 1.1.0
 _ZN10QtMobility23QMessageFolderSortOrderpLERKS0_@Base 1.1.0
 _ZN10QtMobility24QMessageAccountSortOrder6byNameEN2Qt9SortOrderE@Base 1.1.0
 _ZN10QtMobility24QMessageAccountSortOrderC1ERKS0_@Base 1.1.0
 _ZN10QtMobility24QMessageAccountSortOrderC1Ev@Base 1.1.0
 _ZN10QtMobility24QMessageAccountSortOrderC2ERKS0_@Base 1.1.0
 _ZN10QtMobility24QMessageAccountSortOrderC2Ev@Base 1.1.0
 _ZN10QtMobility24QMessageAccountSortOrderD0Ev@Base 1.1.0
 _ZN10QtMobility24QMessageAccountSortOrderD1Ev@Base 1.1.0
 _ZN10QtMobility24QMessageAccountSortOrderD2Ev@Base 1.1.0
 _ZN10QtMobility24QMessageAccountSortOrderaSERKS0_@Base 1.1.0
 _ZN10QtMobility24QMessageContentContainer17setDerivedMessageEPNS_8QMessageE@Base 1.1.0
 _ZN10QtMobility24QMessageContentContainerC1ERKS0_@Base 1.1.0
 _ZN10QtMobility24QMessageContentContainerC1Ev@Base 1.1.0
 _ZN10QtMobility24QMessageContentContainerC2ERKS0_@Base 1.1.0
 _ZN10QtMobility24QMessageContentContainerC2Ev@Base 1.1.0
 _ZN10QtMobility24QMessageContentContainerD0Ev@Base 1.1.0
 _ZN10QtMobility24QMessageContentContainerD1Ev@Base 1.1.0
 _ZN10QtMobility24QMessageContentContainerD2Ev@Base 1.1.0
 _ZN10QtMobility24QMessageContentContaineraSERKS0_@Base 1.1.0
 _ZN10QtMobility26QMessageContentContainerIdC1ERK7QString@Base 1.1.0
 _ZN10QtMobility26QMessageContentContainerIdC1ERKS0_@Base 1.1.0
 _ZN10QtMobility26QMessageContentContainerIdC1Ev@Base 1.1.0
 _ZN10QtMobility26QMessageContentContainerIdC2ERK7QString@Base 1.1.0
 _ZN10QtMobility26QMessageContentContainerIdC2ERKS0_@Base 1.1.0
 _ZN10QtMobility26QMessageContentContainerIdC2Ev@Base 1.1.0
 _ZN10QtMobility26QMessageContentContainerIdD1Ev@Base 1.1.0
 _ZN10QtMobility26QMessageContentContainerIdD2Ev@Base 1.1.0
 _ZN10QtMobility26QMessageContentContainerIdaSERKS0_@Base 1.1.0
 _ZN10QtMobility5qHashERKNS_10QMessageIdE@Base 1.1.0
 _ZN10QtMobility5qHashERKNS_16QMessageFolderIdE@Base 1.1.0
 _ZN10QtMobility5qHashERKNS_17QMessageAccountIdE@Base 1.1.0
 _ZN10QtMobility8QMessage10setSubjectERK7QString@Base 1.1.0
 _ZN10QtMobility8QMessage11setPriorityENS0_8PriorityE@Base 1.1.0
 _ZN10QtMobility8QMessage15setReceivedDateERK9QDateTime@Base 1.1.0
 _ZN10QtMobility8QMessage16clearAttachmentsEv@Base 1.1.0
 _ZN10QtMobility8QMessage17appendAttachmentsERK11QStringList@Base 1.1.0
 _ZN10QtMobility8QMessage17preferredCharsetsEv@Base 1.1.0
 _ZN10QtMobility8QMessage18setParentAccountIdERKNS_17QMessageAccountIdE@Base 1.1.0
 _ZN10QtMobility8QMessage19preferredCharsetForERK7QString@Base 1.1.0
 _ZN10QtMobility8QMessage20setPreferredCharsetsERK5QListI10QByteArrayE@Base 1.1.0
 _ZN10QtMobility8QMessage5setCcERK5QListINS_15QMessageAddressEE@Base 1.1.0
 _ZN10QtMobility8QMessage5setToERK5QListINS_15QMessageAddressEE@Base 1.1.0
 _ZN10QtMobility8QMessage5setToERKNS_15QMessageAddressE@Base 1.1.0
 _ZN10QtMobility8QMessage6setBccERK5QListINS_15QMessageAddressEE@Base 1.1.0
 _ZN10QtMobility8QMessage7setBodyER11QTextStreamRK10QByteArray@Base 1.1.0
 _ZN10QtMobility8QMessage7setBodyERK7QStringRK10QByteArray@Base 1.1.0
 _ZN10QtMobility8QMessage7setDateERK9QDateTime@Base 1.1.0
 _ZN10QtMobility8QMessage7setFromERKNS_15QMessageAddressE@Base 1.1.0
 _ZN10QtMobility8QMessage7setTypeENS0_4TypeE@Base 1.1.0
 _ZN10QtMobility8QMessage9setStatusE6QFlagsINS0_6StatusEE@Base 1.1.0
 _ZN10QtMobility8QMessage9setStatusENS0_6StatusEb@Base 1.1.0
 _ZN10QtMobility8QMessageC1ERKNS_10QMessageIdE@Base 1.1.0
 _ZN10QtMobility8QMessageC1ERKS0_@Base 1.1.0
 _ZN10QtMobility8QMessageC1Ev@Base 1.1.0
 _ZN10QtMobility8QMessageC2ERKNS_10QMessageIdE@Base 1.1.0
 _ZN10QtMobility8QMessageC2ERKS0_@Base 1.1.0
 _ZN10QtMobility8QMessageC2Ev@Base 1.1.0
 _ZN10QtMobility8QMessageD0Ev@Base 1.1.0
 _ZN10QtMobility8QMessageD1Ev@Base 1.1.0
 _ZN10QtMobility8QMessageD2Ev@Base 1.1.0
 _ZN10QtMobility8QMessageaSERKS0_@Base 1.1.0
 _ZN15QBasicAtomicInt3refEv@Base 1.1.0
 _ZN15QBasicAtomicInt5derefEv@Base 1.1.0
 _ZN5QCharC1E11QLatin1Char@Base 1.1.0
 _ZN5QCharC2E11QLatin1Char@Base 1.1.0
 _ZN9QHashData8willGrowEv@Base 1.1.0
 _ZNK10QByteArray7isEmptyEv@Base 1.1.0
 _ZNK10QtMobility10QMessageId7isValidEv@Base 1.1.0
 _ZNK10QtMobility10QMessageId8toStringEv@Base 1.1.0
 _ZNK10QtMobility10QMessageIdeqERKS0_@Base 1.1.0
 _ZNK10QtMobility10QMessageIdltERKS0_@Base 1.1.0
 _ZNK10QtMobility10QMessageIdneERKS0_@Base 1.1.0
 _ZNK10QtMobility14QMessageFilter10matchFlagsEv@Base 1.1.0
 _ZNK10QtMobility14QMessageFilter11isSupportedEv@Base 1.1.0
 _ZNK10QtMobility14QMessageFilter7isEmptyEv@Base 1.1.0
 _ZNK10QtMobility14QMessageFilteranERKS0_@Base 1.1.0
 _ZNK10QtMobility14QMessageFiltercoEv@Base 1.1.0
 _ZNK10QtMobility14QMessageFiltereqERKS0_@Base 1.1.0
 _ZNK10QtMobility14QMessageFilterneERKS0_@Base 1.1.0
 _ZNK10QtMobility14QMessageFilterorERKS0_@Base 1.1.0
 _ZNK10QtMobility14QMessageFolder14parentFolderIdEv@Base 1.1.0
 _ZNK10QtMobility14QMessageFolder15parentAccountIdEv@Base 1.1.0
 _ZNK10QtMobility14QMessageFolder2idEv@Base 1.1.0
 _ZNK10QtMobility14QMessageFolder4nameEv@Base 1.1.0
 _ZNK10QtMobility14QMessageFolder4pathEv@Base 1.1.0
 _ZNK10QtMobility15QMessageAccount12messageTypesEv@Base 1.1.0
 _ZNK10QtMobility15QMessageAccount2idEv@Base 1.1.0
 _ZNK10QtMobility15QMessageAccount4nameEv@Base 1.1.0
 _ZNK10QtMobility15QMessageAddress4typeEv@Base 1.1.0
 _ZNK10QtMobility15QMessageAddress9addresseeEv@Base 1.1.0
 _ZNK10QtMobility15QMessageAddresseqERKS0_@Base 1.1.0
 _ZNK10QtMobility15QMessageAddressneERKS0_@Base 1.1.0
 _ZNK10QtMobility15QMessageManager10metaObjectEv@Base 1.1.0
 _ZNK10QtMobility15QMessageManager12countFoldersERKNS_20QMessageFolderFilterE@Base 1.1.0
 _ZNK10QtMobility15QMessageManager12queryFoldersERKNS_20QMessageFolderFilterERK5QListINS_23QMessageFolderSortOrderEEjj@Base 1.1.0
 _ZNK10QtMobility15QMessageManager12queryFoldersERKNS_20QMessageFolderFilterERKNS_23QMessageFolderSortOrderEjj@Base 1.1.0
 _ZNK10QtMobility15QMessageManager13countAccountsERKNS_21QMessageAccountFilterE@Base 1.1.0
 _ZNK10QtMobility15QMessageManager13countMessagesERKNS_14QMessageFilterE@Base 1.1.0
 _ZNK10QtMobility15QMessageManager13queryAccountsERKNS_21QMessageAccountFilterERK5QListINS_24QMessageAccountSortOrderEEjj@Base 1.1.0
 _ZNK10QtMobility15QMessageManager13queryAccountsERKNS_21QMessageAccountFilterERKNS_24QMessageAccountSortOrderEjj@Base 1.1.0
 _ZNK10QtMobility15QMessageManager13queryMessagesERKNS_14QMessageFilterERK5QListINS_17QMessageSortOrderEEjj@Base 1.1.0
 _ZNK10QtMobility15QMessageManager13queryMessagesERKNS_14QMessageFilterERK7QString6QFlagsINS_22QMessageDataComparator9MatchFlagEERK5QListINS_17QMessageSortOrderEEjj@Base 1.1.0
 _ZNK10QtMobility15QMessageManager13queryMessagesERKNS_14QMessageFilterERK7QString6QFlagsINS_22QMessageDataComparator9MatchFlagEERKNS_17QMessageSortOrderEjj@Base 1.1.0
 _ZNK10QtMobility15QMessageManager13queryMessagesERKNS_14QMessageFilterERKNS_17QMessageSortOrderEjj@Base 1.1.0
 _ZNK10QtMobility15QMessageManager5errorEv@Base 1.1.0
 _ZNK10QtMobility15QMessageManager6folderERKNS_16QMessageFolderIdE@Base 1.1.0
 _ZNK10QtMobility15QMessageManager7accountERKNS_17QMessageAccountIdE@Base 1.1.0
 _ZNK10QtMobility15QMessageManager7messageERKNS_10QMessageIdE@Base 1.1.0
 _ZNK10QtMobility15QMessageService10metaObjectEv@Base 1.1.0
 _ZNK10QtMobility15QMessageService5errorEv@Base 1.1.0
 _ZNK10QtMobility15QMessageService5stateEv@Base 1.1.0
 _ZNK10QtMobility16QMessageFolderId7isValidEv@Base 1.1.0
 _ZNK10QtMobility16QMessageFolderId8toStringEv@Base 1.1.0
 _ZNK10QtMobility16QMessageFolderIdeqERKS0_@Base 1.1.0
 _ZNK10QtMobility16QMessageFolderIdltERKS0_@Base 1.1.0
 _ZNK10QtMobility16QMessageFolderIdneERKS0_@Base 1.1.0
 _ZNK10QtMobility17QMessageAccountId7isValidEv@Base 1.1.0
 _ZNK10QtMobility17QMessageAccountId8toStringEv@Base 1.1.0
 _ZNK10QtMobility17QMessageAccountIdeqERKS0_@Base 1.1.0
 _ZNK10QtMobility17QMessageAccountIdltERKS0_@Base 1.1.0
 _ZNK10QtMobility17QMessageAccountIdneERKS0_@Base 1.1.0
 _ZNK10QtMobility17QMessageSortOrder11isSupportedEv@Base 1.1.0
 _ZNK10QtMobility17QMessageSortOrder7isEmptyEv@Base 1.1.0
 _ZNK10QtMobility17QMessageSortOrdereqERKS0_@Base 1.1.0
 _ZNK10QtMobility17QMessageSortOrderneERKS0_@Base 1.1.0
 _ZNK10QtMobility17QMessageSortOrderplERKS0_@Base 1.1.0
 _ZNK10QtMobility20QMessageFolderFilter10matchFlagsEv@Base 1.1.0
 _ZNK10QtMobility20QMessageFolderFilter11isSupportedEv@Base 1.1.0
 _ZNK10QtMobility20QMessageFolderFilter7isEmptyEv@Base 1.1.0
 _ZNK10QtMobility20QMessageFolderFilteranERKS0_@Base 1.1.0
 _ZNK10QtMobility20QMessageFolderFiltercoEv@Base 1.1.0
 _ZNK10QtMobility20QMessageFolderFiltereqERKS0_@Base 1.1.0
 _ZNK10QtMobility20QMessageFolderFilterneERKS0_@Base 1.1.0
 _ZNK10QtMobility20QMessageFolderFilterorERKS0_@Base 1.1.0
 _ZNK10QtMobility21QMessageAccountFilter10matchFlagsEv@Base 1.1.0
 _ZNK10QtMobility21QMessageAccountFilter11isSupportedEv@Base 1.1.0
 _ZNK10QtMobility21QMessageAccountFilter7isEmptyEv@Base 1.1.0
 _ZNK10QtMobility21QMessageAccountFilteranERKS0_@Base 1.1.0
 _ZNK10QtMobility21QMessageAccountFiltercoEv@Base 1.1.0
 _ZNK10QtMobility21QMessageAccountFiltereqERKS0_@Base 1.1.0
 _ZNK10QtMobility21QMessageAccountFilterneERKS0_@Base 1.1.0
 _ZNK10QtMobility21QMessageAccountFilterorERKS0_@Base 1.1.0
 _ZNK10QtMobility23QMessageFolderSortOrder11isSupportedEv@Base 1.1.0
 _ZNK10QtMobility23QMessageFolderSortOrder7isEmptyEv@Base 1.1.0
 _ZNK10QtMobility23QMessageFolderSortOrdereqERKS0_@Base 1.1.0
 _ZNK10QtMobility23QMessageFolderSortOrderneERKS0_@Base 1.1.0
 _ZNK10QtMobility23QMessageFolderSortOrderplERKS0_@Base 1.1.0
 _ZNK10QtMobility24QMessageAccountSortOrder11isSupportedEv@Base 1.1.0
 _ZNK10QtMobility24QMessageAccountSortOrder7isEmptyEv@Base 1.1.0
 _ZNK10QtMobility24QMessageAccountSortOrdereqERKS0_@Base 1.1.0
 _ZNK10QtMobility24QMessageAccountSortOrderneERKS0_@Base 1.1.0
 _ZNK10QtMobility24QMessageContentContainer10contentIdsEv@Base 1.1.0
 _ZNK10QtMobility24QMessageContentContainer11contentTypeEv@Base 1.1.0
 _ZNK10QtMobility24QMessageContentContainer11textContentEv@Base 1.1.0
 _ZNK10QtMobility24QMessageContentContainer12headerFieldsEv@Base 1.1.0
 _ZNK10QtMobility24QMessageContentContainer12writeContentER11QDataStream@Base 1.1.0
 _ZNK10QtMobility24QMessageContentContainer14contentCharsetEv@Base 1.1.0
 _ZNK10QtMobility24QMessageContentContainer14contentSubTypeEv@Base 1.1.0
 _ZNK10QtMobility24QMessageContentContainer16headerFieldValueERK10QByteArray@Base 1.1.0
 _ZNK10QtMobility24QMessageContentContainer16writeTextContentER11QTextStream@Base 1.1.0
 _ZNK10QtMobility24QMessageContentContainer17headerFieldValuesERK10QByteArray@Base 1.1.0
 _ZNK10QtMobility24QMessageContentContainer17suggestedFileNameEv@Base 1.1.0
 _ZNK10QtMobility24QMessageContentContainer18isContentAvailableEv@Base 1.1.0
 _ZNK10QtMobility24QMessageContentContainer4findERKNS_26QMessageContentContainerIdE@Base 1.1.0
 _ZNK10QtMobility24QMessageContentContainer4sizeEv@Base 1.1.0
 _ZNK10QtMobility24QMessageContentContainer7contentEv@Base 1.1.0
 _ZNK10QtMobility24QMessageContentContainer8containsERKNS_26QMessageContentContainerIdE@Base 1.1.0
 _ZNK10QtMobility26QMessageContentContainerId7isValidEv@Base 1.1.0
 _ZNK10QtMobility26QMessageContentContainerId8toStringEv@Base 1.1.0
 _ZNK10QtMobility26QMessageContentContainerIdeqERKS0_@Base 1.1.0
 _ZNK10QtMobility26QMessageContentContainerIdneERKS0_@Base 1.1.0
 _ZNK10QtMobility8QMessage10isModifiedEv@Base 1.1.0
 _ZNK10QtMobility8QMessage12receivedDateEv@Base 1.1.0
 _ZNK10QtMobility8QMessage13attachmentIdsEv@Base 1.1.0
 _ZNK10QtMobility8QMessage14parentFolderIdEv@Base 1.1.0
 _ZNK10QtMobility8QMessage14standardFolderEv@Base 1.1.0
 _ZNK10QtMobility8QMessage15parentAccountIdEv@Base 1.1.0
 _ZNK10QtMobility8QMessage21createResponseMessageENS0_12ResponseTypeE@Base 1.1.0
 _ZNK10QtMobility8QMessage2ccEv@Base 1.1.0
 _ZNK10QtMobility8QMessage2idEv@Base 1.1.0
 _ZNK10QtMobility8QMessage2toEv@Base 1.1.0
 _ZNK10QtMobility8QMessage3bccEv@Base 1.1.0
 _ZNK10QtMobility8QMessage4dateEv@Base 1.1.0
 _ZNK10QtMobility8QMessage4fromEv@Base 1.1.0
 _ZNK10QtMobility8QMessage4sizeEv@Base 1.1.0
 _ZNK10QtMobility8QMessage4typeEv@Base 1.1.0
 _ZNK10QtMobility8QMessage6bodyIdEv@Base 1.1.0
 _ZNK10QtMobility8QMessage6statusEv@Base 1.1.0
 _ZNK10QtMobility8QMessage7subjectEv@Base 1.1.0
 _ZNK10QtMobility8QMessage8priorityEv@Base 1.1.0
 _ZNK7QString3argEiiiRK5QChar@Base 1.1.0
 _ZNK7QString3endEv@Base 1.1.0
 _ZNK7QString5beginEv@Base 1.1.0
 _ZTIN10QtMobility14QMessageFilterE@Base 1.1.0
 _ZTIN10QtMobility14QMessageFolderE@Base 1.1.0
 _ZTIN10QtMobility15QMessageAccountE@Base 1.1.0
 _ZTIN10QtMobility15QMessageAddressE@Base 1.1.0
 _ZTIN10QtMobility15QMessageManagerE@Base 1.1.0
 _ZTIN10QtMobility15QMessageServiceE@Base 1.1.0
 _ZTIN10QtMobility17QMessageSortOrderE@Base 1.1.0
 _ZTIN10QtMobility20QMessageFolderFilterE@Base 1.1.0
 _ZTIN10QtMobility21QMessageAccountFilterE@Base 1.1.0
 _ZTIN10QtMobility23QMessageFolderSortOrderE@Base 1.1.0
 _ZTIN10QtMobility24QMessageAccountSortOrderE@Base 1.1.0
 _ZTIN10QtMobility24QMessageContentContainerE@Base 1.1.0
 _ZTIN10QtMobility8QMessageE@Base 1.1.0
 _ZTSN10QtMobility14QMessageFilterE@Base 1.1.0
 _ZTSN10QtMobility14QMessageFolderE@Base 1.1.0
 _ZTSN10QtMobility15QMessageAccountE@Base 1.1.0
 _ZTSN10QtMobility15QMessageAddressE@Base 1.1.0
 _ZTSN10QtMobility15QMessageManagerE@Base 1.1.0
 _ZTSN10QtMobility15QMessageServiceE@Base 1.1.0
 _ZTSN10QtMobility17QMessageSortOrderE@Base 1.1.0
 _ZTSN10QtMobility20QMessageFolderFilterE@Base 1.1.0
 _ZTSN10QtMobility21QMessageAccountFilterE@Base 1.1.0
 _ZTSN10QtMobility23QMessageFolderSortOrderE@Base 1.1.0
 _ZTSN10QtMobility24QMessageAccountSortOrderE@Base 1.1.0
 _ZTSN10QtMobility24QMessageContentContainerE@Base 1.1.0
 _ZTSN10QtMobility8QMessageE@Base 1.1.0
 _ZTVN10QtMobility14QMessageFilterE@Base 1.1.0
 _ZTVN10QtMobility14QMessageFolderE@Base 1.1.0
 _ZTVN10QtMobility15QMessageAccountE@Base 1.1.0
 _ZTVN10QtMobility15QMessageAddressE@Base 1.1.0
 _ZTVN10QtMobility15QMessageManagerE@Base 1.1.0
 _ZTVN10QtMobility15QMessageServiceE@Base 1.1.0
 _ZTVN10QtMobility17QMessageSortOrderE@Base 1.1.0
 _ZTVN10QtMobility20QMessageFolderFilterE@Base 1.1.0
 _ZTVN10QtMobility21QMessageAccountFilterE@Base 1.1.0
 _ZTVN10QtMobility23QMessageFolderSortOrderE@Base 1.1.0
 _ZTVN10QtMobility24QMessageAccountSortOrderE@Base 1.1.0
 _ZTVN10QtMobility24QMessageContentContainerE@Base 1.1.0
 _ZTVN10QtMobility8QMessageE@Base 1.1.0
 _ZdlPvS_@Base 1.1.0
 _ZnwjPv@Base 1.1.0
